
Comitas_hackathon_CMSIS.elf:     file format elf32-littlearm

Sections:
Idx Name          Size      VMA       LMA       File off  Algn
  0 .isr_vector   00000130  08000000  08000000  00001000  2**0
                  CONTENTS, ALLOC, LOAD, READONLY, DATA
  1 .text         00004234  08000130  08000130  00001130  2**3
                  CONTENTS, ALLOC, LOAD, READONLY, CODE
  2 .rodata       00000370  08004368  08004368  00005368  2**3
                  CONTENTS, ALLOC, LOAD, READONLY, DATA
  3 .ARM.extab    00000000  080046d8  080046d8  000061d8  2**0
                  CONTENTS
  4 .ARM          00000008  080046d8  080046d8  000056d8  2**2
                  CONTENTS, ALLOC, LOAD, READONLY, DATA
  5 .preinit_array 00000000  080046e0  080046e0  000061d8  2**0
                  CONTENTS, ALLOC, LOAD, DATA
  6 .init_array   00000004  080046e0  080046e0  000056e0  2**2
                  CONTENTS, ALLOC, LOAD, READONLY, DATA
  7 .fini_array   00000004  080046e4  080046e4  000056e4  2**2
                  CONTENTS, ALLOC, LOAD, READONLY, DATA
  8 .data         000001d8  20000000  080046e8  00006000  2**2
                  CONTENTS, ALLOC, LOAD, DATA
  9 .bss          00000188  200001d8  080048c0  000061d8  2**2
                  ALLOC
 10 ._user_heap_stack 00000600  20000360  080048c0  00006360  2**0
                  ALLOC
 11 .ARM.attributes 00000029  00000000  00000000  000061d8  2**0
                  CONTENTS, READONLY
 12 .debug_info   00002243  00000000  00000000  00006201  2**0
                  CONTENTS, READONLY, DEBUGGING, OCTETS
 13 .debug_abbrev 00000b8e  00000000  00000000  00008444  2**0
                  CONTENTS, READONLY, DEBUGGING, OCTETS
 14 .debug_aranges 00000290  00000000  00000000  00008fd8  2**3
                  CONTENTS, READONLY, DEBUGGING, OCTETS
 15 .debug_rnglists 000001b9  00000000  00000000  00009268  2**0
                  CONTENTS, READONLY, DEBUGGING, OCTETS
 16 .debug_macro  00011b0e  00000000  00000000  00009421  2**0
                  CONTENTS, READONLY, DEBUGGING, OCTETS
 17 .debug_line   0000327c  00000000  00000000  0001af2f  2**0
                  CONTENTS, READONLY, DEBUGGING, OCTETS
 18 .debug_str    00059642  00000000  00000000  0001e1ab  2**0
                  CONTENTS, READONLY, DEBUGGING, OCTETS
 19 .comment      00000043  00000000  00000000  000777ed  2**0
                  CONTENTS, READONLY
 20 .debug_frame  00001888  00000000  00000000  00077830  2**2
                  CONTENTS, READONLY, DEBUGGING, OCTETS
 21 .debug_line_str 0000007c  00000000  00000000  000790b8  2**0
                  CONTENTS, READONLY, DEBUGGING, OCTETS

Disassembly of section .text:

08000130 <__do_global_dtors_aux>:
 8000130:	b510      	push	{r4, lr}
 8000132:	4c05      	ldr	r4, [pc, #20]	@ (8000148 <__do_global_dtors_aux+0x18>)
 8000134:	7823      	ldrb	r3, [r4, #0]
 8000136:	b933      	cbnz	r3, 8000146 <__do_global_dtors_aux+0x16>
 8000138:	4b04      	ldr	r3, [pc, #16]	@ (800014c <__do_global_dtors_aux+0x1c>)
 800013a:	b113      	cbz	r3, 8000142 <__do_global_dtors_aux+0x12>
 800013c:	4804      	ldr	r0, [pc, #16]	@ (8000150 <__do_global_dtors_aux+0x20>)
 800013e:	f3af 8000 	nop.w
 8000142:	2301      	movs	r3, #1
 8000144:	7023      	strb	r3, [r4, #0]
 8000146:	bd10      	pop	{r4, pc}
 8000148:	200001d8 	.word	0x200001d8
 800014c:	00000000 	.word	0x00000000
 8000150:	0800434c 	.word	0x0800434c

08000154 <frame_dummy>:
 8000154:	b508      	push	{r3, lr}
 8000156:	4b03      	ldr	r3, [pc, #12]	@ (8000164 <frame_dummy+0x10>)
 8000158:	b11b      	cbz	r3, 8000162 <frame_dummy+0xe>
 800015a:	4903      	ldr	r1, [pc, #12]	@ (8000168 <frame_dummy+0x14>)
 800015c:	4803      	ldr	r0, [pc, #12]	@ (800016c <frame_dummy+0x18>)
 800015e:	f3af 8000 	nop.w
 8000162:	bd08      	pop	{r3, pc}
 8000164:	00000000 	.word	0x00000000
 8000168:	200001dc 	.word	0x200001dc
 800016c:	0800434c 	.word	0x0800434c

08000170 <strlen>:
 8000170:	4603      	mov	r3, r0
 8000172:	f813 2b01 	ldrb.w	r2, [r3], #1
 8000176:	2a00      	cmp	r2, #0
 8000178:	d1fb      	bne.n	8000172 <strlen+0x2>
 800017a:	1a18      	subs	r0, r3, r0
 800017c:	3801      	subs	r0, #1
 800017e:	4770      	bx	lr

08000180 <__aeabi_fmul>:
 8000180:	f04f 0cff 	mov.w	ip, #255	@ 0xff
 8000184:	ea1c 52d0 	ands.w	r2, ip, r0, lsr #23
 8000188:	bf1e      	ittt	ne
 800018a:	ea1c 53d1 	andsne.w	r3, ip, r1, lsr #23
 800018e:	ea92 0f0c 	teqne	r2, ip
 8000192:	ea93 0f0c 	teqne	r3, ip
 8000196:	d06f      	beq.n	8000278 <__aeabi_fmul+0xf8>
 8000198:	441a      	add	r2, r3
 800019a:	ea80 0c01 	eor.w	ip, r0, r1
 800019e:	0240      	lsls	r0, r0, #9
 80001a0:	bf18      	it	ne
 80001a2:	ea5f 2141 	movsne.w	r1, r1, lsl #9
 80001a6:	d01e      	beq.n	80001e6 <__aeabi_fmul+0x66>
 80001a8:	f04f 6300 	mov.w	r3, #134217728	@ 0x8000000
 80001ac:	ea43 1050 	orr.w	r0, r3, r0, lsr #5
 80001b0:	ea43 1151 	orr.w	r1, r3, r1, lsr #5
 80001b4:	fba0 3101 	umull	r3, r1, r0, r1
 80001b8:	f00c 4000 	and.w	r0, ip, #2147483648	@ 0x80000000
 80001bc:	f5b1 0f00 	cmp.w	r1, #8388608	@ 0x800000
 80001c0:	bf3e      	ittt	cc
 80001c2:	0049      	lslcc	r1, r1, #1
 80001c4:	ea41 71d3 	orrcc.w	r1, r1, r3, lsr #31
 80001c8:	005b      	lslcc	r3, r3, #1
 80001ca:	ea40 0001 	orr.w	r0, r0, r1
 80001ce:	f162 027f 	sbc.w	r2, r2, #127	@ 0x7f
 80001d2:	2afd      	cmp	r2, #253	@ 0xfd
 80001d4:	d81d      	bhi.n	8000212 <__aeabi_fmul+0x92>
 80001d6:	f1b3 4f00 	cmp.w	r3, #2147483648	@ 0x80000000
 80001da:	eb40 50c2 	adc.w	r0, r0, r2, lsl #23
 80001de:	bf08      	it	eq
 80001e0:	f020 0001 	biceq.w	r0, r0, #1
 80001e4:	4770      	bx	lr
 80001e6:	f090 0f00 	teq	r0, #0
 80001ea:	f00c 4c00 	and.w	ip, ip, #2147483648	@ 0x80000000
 80001ee:	bf08      	it	eq
 80001f0:	0249      	lsleq	r1, r1, #9
 80001f2:	ea4c 2050 	orr.w	r0, ip, r0, lsr #9
 80001f6:	ea40 2051 	orr.w	r0, r0, r1, lsr #9
 80001fa:	3a7f      	subs	r2, #127	@ 0x7f
 80001fc:	bfc2      	ittt	gt
 80001fe:	f1d2 03ff 	rsbsgt	r3, r2, #255	@ 0xff
 8000202:	ea40 50c2 	orrgt.w	r0, r0, r2, lsl #23
 8000206:	4770      	bxgt	lr
 8000208:	f440 0000 	orr.w	r0, r0, #8388608	@ 0x800000
 800020c:	f04f 0300 	mov.w	r3, #0
 8000210:	3a01      	subs	r2, #1
 8000212:	dc5d      	bgt.n	80002d0 <__aeabi_fmul+0x150>
 8000214:	f112 0f19 	cmn.w	r2, #25
 8000218:	bfdc      	itt	le
 800021a:	f000 4000 	andle.w	r0, r0, #2147483648	@ 0x80000000
 800021e:	4770      	bxle	lr
 8000220:	f1c2 0200 	rsb	r2, r2, #0
 8000224:	0041      	lsls	r1, r0, #1
 8000226:	fa21 f102 	lsr.w	r1, r1, r2
 800022a:	f1c2 0220 	rsb	r2, r2, #32
 800022e:	fa00 fc02 	lsl.w	ip, r0, r2
 8000232:	ea5f 0031 	movs.w	r0, r1, rrx
 8000236:	f140 0000 	adc.w	r0, r0, #0
 800023a:	ea53 034c 	orrs.w	r3, r3, ip, lsl #1
 800023e:	bf08      	it	eq
 8000240:	ea20 70dc 	biceq.w	r0, r0, ip, lsr #31
 8000244:	4770      	bx	lr
 8000246:	f092 0f00 	teq	r2, #0
 800024a:	f000 4c00 	and.w	ip, r0, #2147483648	@ 0x80000000
 800024e:	bf02      	ittt	eq
 8000250:	0040      	lsleq	r0, r0, #1
 8000252:	f410 0f00 	tsteq.w	r0, #8388608	@ 0x800000
 8000256:	3a01      	subeq	r2, #1
 8000258:	d0f9      	beq.n	800024e <__aeabi_fmul+0xce>
 800025a:	ea40 000c 	orr.w	r0, r0, ip
 800025e:	f093 0f00 	teq	r3, #0
 8000262:	f001 4c00 	and.w	ip, r1, #2147483648	@ 0x80000000
 8000266:	bf02      	ittt	eq
 8000268:	0049      	lsleq	r1, r1, #1
 800026a:	f411 0f00 	tsteq.w	r1, #8388608	@ 0x800000
 800026e:	3b01      	subeq	r3, #1
 8000270:	d0f9      	beq.n	8000266 <__aeabi_fmul+0xe6>
 8000272:	ea41 010c 	orr.w	r1, r1, ip
 8000276:	e78f      	b.n	8000198 <__aeabi_fmul+0x18>
 8000278:	ea0c 53d1 	and.w	r3, ip, r1, lsr #23
 800027c:	ea92 0f0c 	teq	r2, ip
 8000280:	bf18      	it	ne
 8000282:	ea93 0f0c 	teqne	r3, ip
 8000286:	d00a      	beq.n	800029e <__aeabi_fmul+0x11e>
 8000288:	f030 4c00 	bics.w	ip, r0, #2147483648	@ 0x80000000
 800028c:	bf18      	it	ne
 800028e:	f031 4c00 	bicsne.w	ip, r1, #2147483648	@ 0x80000000
 8000292:	d1d8      	bne.n	8000246 <__aeabi_fmul+0xc6>
 8000294:	ea80 0001 	eor.w	r0, r0, r1
 8000298:	f000 4000 	and.w	r0, r0, #2147483648	@ 0x80000000
 800029c:	4770      	bx	lr
 800029e:	f090 0f00 	teq	r0, #0
 80002a2:	bf17      	itett	ne
 80002a4:	f090 4f00 	teqne	r0, #2147483648	@ 0x80000000
 80002a8:	4608      	moveq	r0, r1
 80002aa:	f091 0f00 	teqne	r1, #0
 80002ae:	f091 4f00 	teqne	r1, #2147483648	@ 0x80000000
 80002b2:	d014      	beq.n	80002de <__aeabi_fmul+0x15e>
 80002b4:	ea92 0f0c 	teq	r2, ip
 80002b8:	d101      	bne.n	80002be <__aeabi_fmul+0x13e>
 80002ba:	0242      	lsls	r2, r0, #9
 80002bc:	d10f      	bne.n	80002de <__aeabi_fmul+0x15e>
 80002be:	ea93 0f0c 	teq	r3, ip
 80002c2:	d103      	bne.n	80002cc <__aeabi_fmul+0x14c>
 80002c4:	024b      	lsls	r3, r1, #9
 80002c6:	bf18      	it	ne
 80002c8:	4608      	movne	r0, r1
 80002ca:	d108      	bne.n	80002de <__aeabi_fmul+0x15e>
 80002cc:	ea80 0001 	eor.w	r0, r0, r1
 80002d0:	f000 4000 	and.w	r0, r0, #2147483648	@ 0x80000000
 80002d4:	f040 40fe 	orr.w	r0, r0, #2130706432	@ 0x7f000000
 80002d8:	f440 0000 	orr.w	r0, r0, #8388608	@ 0x800000
 80002dc:	4770      	bx	lr
 80002de:	f040 40fe 	orr.w	r0, r0, #2130706432	@ 0x7f000000
 80002e2:	f440 0040 	orr.w	r0, r0, #12582912	@ 0xc00000
 80002e6:	4770      	bx	lr

080002e8 <__aeabi_drsub>:
 80002e8:	f081 4100 	eor.w	r1, r1, #2147483648	@ 0x80000000
 80002ec:	e002      	b.n	80002f4 <__adddf3>
 80002ee:	bf00      	nop

080002f0 <__aeabi_dsub>:
 80002f0:	f083 4300 	eor.w	r3, r3, #2147483648	@ 0x80000000

080002f4 <__adddf3>:
 80002f4:	b530      	push	{r4, r5, lr}
 80002f6:	ea4f 0441 	mov.w	r4, r1, lsl #1
 80002fa:	ea4f 0543 	mov.w	r5, r3, lsl #1
 80002fe:	ea94 0f05 	teq	r4, r5
 8000302:	bf08      	it	eq
 8000304:	ea90 0f02 	teqeq	r0, r2
 8000308:	bf1f      	itttt	ne
 800030a:	ea54 0c00 	orrsne.w	ip, r4, r0
 800030e:	ea55 0c02 	orrsne.w	ip, r5, r2
 8000312:	ea7f 5c64 	mvnsne.w	ip, r4, asr #21
 8000316:	ea7f 5c65 	mvnsne.w	ip, r5, asr #21
 800031a:	f000 80e2 	beq.w	80004e2 <__adddf3+0x1ee>
 800031e:	ea4f 5454 	mov.w	r4, r4, lsr #21
 8000322:	ebd4 5555 	rsbs	r5, r4, r5, lsr #21
 8000326:	bfb8      	it	lt
 8000328:	426d      	neglt	r5, r5
 800032a:	dd0c      	ble.n	8000346 <__adddf3+0x52>
 800032c:	442c      	add	r4, r5
 800032e:	ea80 0202 	eor.w	r2, r0, r2
 8000332:	ea81 0303 	eor.w	r3, r1, r3
 8000336:	ea82 0000 	eor.w	r0, r2, r0
 800033a:	ea83 0101 	eor.w	r1, r3, r1
 800033e:	ea80 0202 	eor.w	r2, r0, r2
 8000342:	ea81 0303 	eor.w	r3, r1, r3
 8000346:	2d36      	cmp	r5, #54	@ 0x36
 8000348:	bf88      	it	hi
 800034a:	bd30      	pophi	{r4, r5, pc}
 800034c:	f011 4f00 	tst.w	r1, #2147483648	@ 0x80000000
 8000350:	ea4f 3101 	mov.w	r1, r1, lsl #12
 8000354:	f44f 1c80 	mov.w	ip, #1048576	@ 0x100000
 8000358:	ea4c 3111 	orr.w	r1, ip, r1, lsr #12
 800035c:	d002      	beq.n	8000364 <__adddf3+0x70>
 800035e:	4240      	negs	r0, r0
 8000360:	eb61 0141 	sbc.w	r1, r1, r1, lsl #1
 8000364:	f013 4f00 	tst.w	r3, #2147483648	@ 0x80000000
 8000368:	ea4f 3303 	mov.w	r3, r3, lsl #12
 800036c:	ea4c 3313 	orr.w	r3, ip, r3, lsr #12
 8000370:	d002      	beq.n	8000378 <__adddf3+0x84>
 8000372:	4252      	negs	r2, r2
 8000374:	eb63 0343 	sbc.w	r3, r3, r3, lsl #1
 8000378:	ea94 0f05 	teq	r4, r5
 800037c:	f000 80a7 	beq.w	80004ce <__adddf3+0x1da>
 8000380:	f1a4 0401 	sub.w	r4, r4, #1
 8000384:	f1d5 0e20 	rsbs	lr, r5, #32
 8000388:	db0d      	blt.n	80003a6 <__adddf3+0xb2>
 800038a:	fa02 fc0e 	lsl.w	ip, r2, lr
 800038e:	fa22 f205 	lsr.w	r2, r2, r5
 8000392:	1880      	adds	r0, r0, r2
 8000394:	f141 0100 	adc.w	r1, r1, #0
 8000398:	fa03 f20e 	lsl.w	r2, r3, lr
 800039c:	1880      	adds	r0, r0, r2
 800039e:	fa43 f305 	asr.w	r3, r3, r5
 80003a2:	4159      	adcs	r1, r3
 80003a4:	e00e      	b.n	80003c4 <__adddf3+0xd0>
 80003a6:	f1a5 0520 	sub.w	r5, r5, #32
 80003aa:	f10e 0e20 	add.w	lr, lr, #32
 80003ae:	2a01      	cmp	r2, #1
 80003b0:	fa03 fc0e 	lsl.w	ip, r3, lr
 80003b4:	bf28      	it	cs
 80003b6:	f04c 0c02 	orrcs.w	ip, ip, #2
 80003ba:	fa43 f305 	asr.w	r3, r3, r5
 80003be:	18c0      	adds	r0, r0, r3
 80003c0:	eb51 71e3 	adcs.w	r1, r1, r3, asr #31
 80003c4:	f001 4500 	and.w	r5, r1, #2147483648	@ 0x80000000
 80003c8:	d507      	bpl.n	80003da <__adddf3+0xe6>
 80003ca:	f04f 0e00 	mov.w	lr, #0
 80003ce:	f1dc 0c00 	rsbs	ip, ip, #0
 80003d2:	eb7e 0000 	sbcs.w	r0, lr, r0
 80003d6:	eb6e 0101 	sbc.w	r1, lr, r1
 80003da:	f5b1 1f80 	cmp.w	r1, #1048576	@ 0x100000
 80003de:	d31b      	bcc.n	8000418 <__adddf3+0x124>
 80003e0:	f5b1 1f00 	cmp.w	r1, #2097152	@ 0x200000
 80003e4:	d30c      	bcc.n	8000400 <__adddf3+0x10c>
 80003e6:	0849      	lsrs	r1, r1, #1
 80003e8:	ea5f 0030 	movs.w	r0, r0, rrx
 80003ec:	ea4f 0c3c 	mov.w	ip, ip, rrx
 80003f0:	f104 0401 	add.w	r4, r4, #1
 80003f4:	ea4f 5244 	mov.w	r2, r4, lsl #21
 80003f8:	f512 0f80 	cmn.w	r2, #4194304	@ 0x400000
 80003fc:	f080 809a 	bcs.w	8000534 <__adddf3+0x240>
 8000400:	f1bc 4f00 	cmp.w	ip, #2147483648	@ 0x80000000
 8000404:	bf08      	it	eq
 8000406:	ea5f 0c50 	movseq.w	ip, r0, lsr #1
 800040a:	f150 0000 	adcs.w	r0, r0, #0
 800040e:	eb41 5104 	adc.w	r1, r1, r4, lsl #20
 8000412:	ea41 0105 	orr.w	r1, r1, r5
 8000416:	bd30      	pop	{r4, r5, pc}
 8000418:	ea5f 0c4c 	movs.w	ip, ip, lsl #1
 800041c:	4140      	adcs	r0, r0
 800041e:	eb41 0101 	adc.w	r1, r1, r1
 8000422:	3c01      	subs	r4, #1
 8000424:	bf28      	it	cs
 8000426:	f5b1 1f80 	cmpcs.w	r1, #1048576	@ 0x100000
 800042a:	d2e9      	bcs.n	8000400 <__adddf3+0x10c>
 800042c:	f091 0f00 	teq	r1, #0
 8000430:	bf04      	itt	eq
 8000432:	4601      	moveq	r1, r0
 8000434:	2000      	moveq	r0, #0
 8000436:	fab1 f381 	clz	r3, r1
 800043a:	bf08      	it	eq
 800043c:	3320      	addeq	r3, #32
 800043e:	f1a3 030b 	sub.w	r3, r3, #11
 8000442:	f1b3 0220 	subs.w	r2, r3, #32
 8000446:	da0c      	bge.n	8000462 <__adddf3+0x16e>
 8000448:	320c      	adds	r2, #12
 800044a:	dd08      	ble.n	800045e <__adddf3+0x16a>
 800044c:	f102 0c14 	add.w	ip, r2, #20
 8000450:	f1c2 020c 	rsb	r2, r2, #12
 8000454:	fa01 f00c 	lsl.w	r0, r1, ip
 8000458:	fa21 f102 	lsr.w	r1, r1, r2
 800045c:	e00c      	b.n	8000478 <__adddf3+0x184>
 800045e:	f102 0214 	add.w	r2, r2, #20
 8000462:	bfd8      	it	le
 8000464:	f1c2 0c20 	rsble	ip, r2, #32
 8000468:	fa01 f102 	lsl.w	r1, r1, r2
 800046c:	fa20 fc0c 	lsr.w	ip, r0, ip
 8000470:	bfdc      	itt	le
 8000472:	ea41 010c 	orrle.w	r1, r1, ip
 8000476:	4090      	lslle	r0, r2
 8000478:	1ae4      	subs	r4, r4, r3
 800047a:	bfa2      	ittt	ge
 800047c:	eb01 5104 	addge.w	r1, r1, r4, lsl #20
 8000480:	4329      	orrge	r1, r5
 8000482:	bd30      	popge	{r4, r5, pc}
 8000484:	ea6f 0404 	mvn.w	r4, r4
 8000488:	3c1f      	subs	r4, #31
 800048a:	da1c      	bge.n	80004c6 <__adddf3+0x1d2>
 800048c:	340c      	adds	r4, #12
 800048e:	dc0e      	bgt.n	80004ae <__adddf3+0x1ba>
 8000490:	f104 0414 	add.w	r4, r4, #20
 8000494:	f1c4 0220 	rsb	r2, r4, #32
 8000498:	fa20 f004 	lsr.w	r0, r0, r4
 800049c:	fa01 f302 	lsl.w	r3, r1, r2
 80004a0:	ea40 0003 	orr.w	r0, r0, r3
 80004a4:	fa21 f304 	lsr.w	r3, r1, r4
 80004a8:	ea45 0103 	orr.w	r1, r5, r3
 80004ac:	bd30      	pop	{r4, r5, pc}
 80004ae:	f1c4 040c 	rsb	r4, r4, #12
 80004b2:	f1c4 0220 	rsb	r2, r4, #32
 80004b6:	fa20 f002 	lsr.w	r0, r0, r2
 80004ba:	fa01 f304 	lsl.w	r3, r1, r4
 80004be:	ea40 0003 	orr.w	r0, r0, r3
 80004c2:	4629      	mov	r1, r5
 80004c4:	bd30      	pop	{r4, r5, pc}
 80004c6:	fa21 f004 	lsr.w	r0, r1, r4
 80004ca:	4629      	mov	r1, r5
 80004cc:	bd30      	pop	{r4, r5, pc}
 80004ce:	f094 0f00 	teq	r4, #0
 80004d2:	f483 1380 	eor.w	r3, r3, #1048576	@ 0x100000
 80004d6:	bf06      	itte	eq
 80004d8:	f481 1180 	eoreq.w	r1, r1, #1048576	@ 0x100000
 80004dc:	3401      	addeq	r4, #1
 80004de:	3d01      	subne	r5, #1
 80004e0:	e74e      	b.n	8000380 <__adddf3+0x8c>
 80004e2:	ea7f 5c64 	mvns.w	ip, r4, asr #21
 80004e6:	bf18      	it	ne
 80004e8:	ea7f 5c65 	mvnsne.w	ip, r5, asr #21
 80004ec:	d029      	beq.n	8000542 <__adddf3+0x24e>
 80004ee:	ea94 0f05 	teq	r4, r5
 80004f2:	bf08      	it	eq
 80004f4:	ea90 0f02 	teqeq	r0, r2
 80004f8:	d005      	beq.n	8000506 <__adddf3+0x212>
 80004fa:	ea54 0c00 	orrs.w	ip, r4, r0
 80004fe:	bf04      	itt	eq
 8000500:	4619      	moveq	r1, r3
 8000502:	4610      	moveq	r0, r2
 8000504:	bd30      	pop	{r4, r5, pc}
 8000506:	ea91 0f03 	teq	r1, r3
 800050a:	bf1e      	ittt	ne
 800050c:	2100      	movne	r1, #0
 800050e:	2000      	movne	r0, #0
 8000510:	bd30      	popne	{r4, r5, pc}
 8000512:	ea5f 5c54 	movs.w	ip, r4, lsr #21
 8000516:	d105      	bne.n	8000524 <__adddf3+0x230>
 8000518:	0040      	lsls	r0, r0, #1
 800051a:	4149      	adcs	r1, r1
 800051c:	bf28      	it	cs
 800051e:	f041 4100 	orrcs.w	r1, r1, #2147483648	@ 0x80000000
 8000522:	bd30      	pop	{r4, r5, pc}
 8000524:	f514 0480 	adds.w	r4, r4, #4194304	@ 0x400000
 8000528:	bf3c      	itt	cc
 800052a:	f501 1180 	addcc.w	r1, r1, #1048576	@ 0x100000
 800052e:	bd30      	popcc	{r4, r5, pc}
 8000530:	f001 4500 	and.w	r5, r1, #2147483648	@ 0x80000000
 8000534:	f045 41fe 	orr.w	r1, r5, #2130706432	@ 0x7f000000
 8000538:	f441 0170 	orr.w	r1, r1, #15728640	@ 0xf00000
 800053c:	f04f 0000 	mov.w	r0, #0
 8000540:	bd30      	pop	{r4, r5, pc}
 8000542:	ea7f 5c64 	mvns.w	ip, r4, asr #21
 8000546:	bf1a      	itte	ne
 8000548:	4619      	movne	r1, r3
 800054a:	4610      	movne	r0, r2
 800054c:	ea7f 5c65 	mvnseq.w	ip, r5, asr #21
 8000550:	bf1c      	itt	ne
 8000552:	460b      	movne	r3, r1
 8000554:	4602      	movne	r2, r0
 8000556:	ea50 3401 	orrs.w	r4, r0, r1, lsl #12
 800055a:	bf06      	itte	eq
 800055c:	ea52 3503 	orrseq.w	r5, r2, r3, lsl #12
 8000560:	ea91 0f03 	teqeq	r1, r3
 8000564:	f441 2100 	orrne.w	r1, r1, #524288	@ 0x80000
 8000568:	bd30      	pop	{r4, r5, pc}
 800056a:	bf00      	nop

0800056c <__aeabi_ui2d>:
 800056c:	f090 0f00 	teq	r0, #0
 8000570:	bf04      	itt	eq
 8000572:	2100      	moveq	r1, #0
 8000574:	4770      	bxeq	lr
 8000576:	b530      	push	{r4, r5, lr}
 8000578:	f44f 6480 	mov.w	r4, #1024	@ 0x400
 800057c:	f104 0432 	add.w	r4, r4, #50	@ 0x32
 8000580:	f04f 0500 	mov.w	r5, #0
 8000584:	f04f 0100 	mov.w	r1, #0
 8000588:	e750      	b.n	800042c <__adddf3+0x138>
 800058a:	bf00      	nop

0800058c <__aeabi_i2d>:
 800058c:	f090 0f00 	teq	r0, #0
 8000590:	bf04      	itt	eq
 8000592:	2100      	moveq	r1, #0
 8000594:	4770      	bxeq	lr
 8000596:	b530      	push	{r4, r5, lr}
 8000598:	f44f 6480 	mov.w	r4, #1024	@ 0x400
 800059c:	f104 0432 	add.w	r4, r4, #50	@ 0x32
 80005a0:	f010 4500 	ands.w	r5, r0, #2147483648	@ 0x80000000
 80005a4:	bf48      	it	mi
 80005a6:	4240      	negmi	r0, r0
 80005a8:	f04f 0100 	mov.w	r1, #0
 80005ac:	e73e      	b.n	800042c <__adddf3+0x138>
 80005ae:	bf00      	nop

080005b0 <__aeabi_f2d>:
 80005b0:	0042      	lsls	r2, r0, #1
 80005b2:	ea4f 01e2 	mov.w	r1, r2, asr #3
 80005b6:	ea4f 0131 	mov.w	r1, r1, rrx
 80005ba:	ea4f 7002 	mov.w	r0, r2, lsl #28
 80005be:	bf1f      	itttt	ne
 80005c0:	f012 437f 	andsne.w	r3, r2, #4278190080	@ 0xff000000
 80005c4:	f093 4f7f 	teqne	r3, #4278190080	@ 0xff000000
 80005c8:	f081 5160 	eorne.w	r1, r1, #939524096	@ 0x38000000
 80005cc:	4770      	bxne	lr
 80005ce:	f032 427f 	bics.w	r2, r2, #4278190080	@ 0xff000000
 80005d2:	bf08      	it	eq
 80005d4:	4770      	bxeq	lr
 80005d6:	f093 4f7f 	teq	r3, #4278190080	@ 0xff000000
 80005da:	bf04      	itt	eq
 80005dc:	f441 2100 	orreq.w	r1, r1, #524288	@ 0x80000
 80005e0:	4770      	bxeq	lr
 80005e2:	b530      	push	{r4, r5, lr}
 80005e4:	f44f 7460 	mov.w	r4, #896	@ 0x380
 80005e8:	f001 4500 	and.w	r5, r1, #2147483648	@ 0x80000000
 80005ec:	f021 4100 	bic.w	r1, r1, #2147483648	@ 0x80000000
 80005f0:	e71c      	b.n	800042c <__adddf3+0x138>
 80005f2:	bf00      	nop

080005f4 <__aeabi_ul2d>:
 80005f4:	ea50 0201 	orrs.w	r2, r0, r1
 80005f8:	bf08      	it	eq
 80005fa:	4770      	bxeq	lr
 80005fc:	b530      	push	{r4, r5, lr}
 80005fe:	f04f 0500 	mov.w	r5, #0
 8000602:	e00a      	b.n	800061a <__aeabi_l2d+0x16>

08000604 <__aeabi_l2d>:
 8000604:	ea50 0201 	orrs.w	r2, r0, r1
 8000608:	bf08      	it	eq
 800060a:	4770      	bxeq	lr
 800060c:	b530      	push	{r4, r5, lr}
 800060e:	f011 4500 	ands.w	r5, r1, #2147483648	@ 0x80000000
 8000612:	d502      	bpl.n	800061a <__aeabi_l2d+0x16>
 8000614:	4240      	negs	r0, r0
 8000616:	eb61 0141 	sbc.w	r1, r1, r1, lsl #1
 800061a:	f44f 6480 	mov.w	r4, #1024	@ 0x400
 800061e:	f104 0432 	add.w	r4, r4, #50	@ 0x32
 8000622:	ea5f 5c91 	movs.w	ip, r1, lsr #22
 8000626:	f43f aed8 	beq.w	80003da <__adddf3+0xe6>
 800062a:	f04f 0203 	mov.w	r2, #3
 800062e:	ea5f 0cdc 	movs.w	ip, ip, lsr #3
 8000632:	bf18      	it	ne
 8000634:	3203      	addne	r2, #3
 8000636:	ea5f 0cdc 	movs.w	ip, ip, lsr #3
 800063a:	bf18      	it	ne
 800063c:	3203      	addne	r2, #3
 800063e:	eb02 02dc 	add.w	r2, r2, ip, lsr #3
 8000642:	f1c2 0320 	rsb	r3, r2, #32
 8000646:	fa00 fc03 	lsl.w	ip, r0, r3
 800064a:	fa20 f002 	lsr.w	r0, r0, r2
 800064e:	fa01 fe03 	lsl.w	lr, r1, r3
 8000652:	ea40 000e 	orr.w	r0, r0, lr
 8000656:	fa21 f102 	lsr.w	r1, r1, r2
 800065a:	4414      	add	r4, r2
 800065c:	e6bd      	b.n	80003da <__adddf3+0xe6>
 800065e:	bf00      	nop

08000660 <__aeabi_dmul>:
 8000660:	b570      	push	{r4, r5, r6, lr}
 8000662:	f04f 0cff 	mov.w	ip, #255	@ 0xff
 8000666:	f44c 6ce0 	orr.w	ip, ip, #1792	@ 0x700
 800066a:	ea1c 5411 	ands.w	r4, ip, r1, lsr #20
 800066e:	bf1d      	ittte	ne
 8000670:	ea1c 5513 	andsne.w	r5, ip, r3, lsr #20
 8000674:	ea94 0f0c 	teqne	r4, ip
 8000678:	ea95 0f0c 	teqne	r5, ip
 800067c:	f000 f8de 	bleq	800083c <__aeabi_dmul+0x1dc>
 8000680:	442c      	add	r4, r5
 8000682:	ea81 0603 	eor.w	r6, r1, r3
 8000686:	ea21 514c 	bic.w	r1, r1, ip, lsl #21
 800068a:	ea23 534c 	bic.w	r3, r3, ip, lsl #21
 800068e:	ea50 3501 	orrs.w	r5, r0, r1, lsl #12
 8000692:	bf18      	it	ne
 8000694:	ea52 3503 	orrsne.w	r5, r2, r3, lsl #12
 8000698:	f441 1180 	orr.w	r1, r1, #1048576	@ 0x100000
 800069c:	f443 1380 	orr.w	r3, r3, #1048576	@ 0x100000
 80006a0:	d038      	beq.n	8000714 <__aeabi_dmul+0xb4>
 80006a2:	fba0 ce02 	umull	ip, lr, r0, r2
 80006a6:	f04f 0500 	mov.w	r5, #0
 80006aa:	fbe1 e502 	umlal	lr, r5, r1, r2
 80006ae:	f006 4200 	and.w	r2, r6, #2147483648	@ 0x80000000
 80006b2:	fbe0 e503 	umlal	lr, r5, r0, r3
 80006b6:	f04f 0600 	mov.w	r6, #0
 80006ba:	fbe1 5603 	umlal	r5, r6, r1, r3
 80006be:	f09c 0f00 	teq	ip, #0
 80006c2:	bf18      	it	ne
 80006c4:	f04e 0e01 	orrne.w	lr, lr, #1
 80006c8:	f1a4 04ff 	sub.w	r4, r4, #255	@ 0xff
 80006cc:	f5b6 7f00 	cmp.w	r6, #512	@ 0x200
 80006d0:	f564 7440 	sbc.w	r4, r4, #768	@ 0x300
 80006d4:	d204      	bcs.n	80006e0 <__aeabi_dmul+0x80>
 80006d6:	ea5f 0e4e 	movs.w	lr, lr, lsl #1
 80006da:	416d      	adcs	r5, r5
 80006dc:	eb46 0606 	adc.w	r6, r6, r6
 80006e0:	ea42 21c6 	orr.w	r1, r2, r6, lsl #11
 80006e4:	ea41 5155 	orr.w	r1, r1, r5, lsr #21
 80006e8:	ea4f 20c5 	mov.w	r0, r5, lsl #11
 80006ec:	ea40 505e 	orr.w	r0, r0, lr, lsr #21
 80006f0:	ea4f 2ece 	mov.w	lr, lr, lsl #11
 80006f4:	f1b4 0cfd 	subs.w	ip, r4, #253	@ 0xfd
 80006f8:	bf88      	it	hi
 80006fa:	f5bc 6fe0 	cmphi.w	ip, #1792	@ 0x700
 80006fe:	d81e      	bhi.n	800073e <__aeabi_dmul+0xde>
 8000700:	f1be 4f00 	cmp.w	lr, #2147483648	@ 0x80000000
 8000704:	bf08      	it	eq
 8000706:	ea5f 0e50 	movseq.w	lr, r0, lsr #1
 800070a:	f150 0000 	adcs.w	r0, r0, #0
 800070e:	eb41 5104 	adc.w	r1, r1, r4, lsl #20
 8000712:	bd70      	pop	{r4, r5, r6, pc}
 8000714:	f006 4600 	and.w	r6, r6, #2147483648	@ 0x80000000
 8000718:	ea46 0101 	orr.w	r1, r6, r1
 800071c:	ea40 0002 	orr.w	r0, r0, r2
 8000720:	ea81 0103 	eor.w	r1, r1, r3
 8000724:	ebb4 045c 	subs.w	r4, r4, ip, lsr #1
 8000728:	bfc2      	ittt	gt
 800072a:	ebd4 050c 	rsbsgt	r5, r4, ip
 800072e:	ea41 5104 	orrgt.w	r1, r1, r4, lsl #20
 8000732:	bd70      	popgt	{r4, r5, r6, pc}
 8000734:	f441 1180 	orr.w	r1, r1, #1048576	@ 0x100000
 8000738:	f04f 0e00 	mov.w	lr, #0
 800073c:	3c01      	subs	r4, #1
 800073e:	f300 80ab 	bgt.w	8000898 <__aeabi_dmul+0x238>
 8000742:	f114 0f36 	cmn.w	r4, #54	@ 0x36
 8000746:	bfde      	ittt	le
 8000748:	2000      	movle	r0, #0
 800074a:	f001 4100 	andle.w	r1, r1, #2147483648	@ 0x80000000
 800074e:	bd70      	pople	{r4, r5, r6, pc}
 8000750:	f1c4 0400 	rsb	r4, r4, #0
 8000754:	3c20      	subs	r4, #32
 8000756:	da35      	bge.n	80007c4 <__aeabi_dmul+0x164>
 8000758:	340c      	adds	r4, #12
 800075a:	dc1b      	bgt.n	8000794 <__aeabi_dmul+0x134>
 800075c:	f104 0414 	add.w	r4, r4, #20
 8000760:	f1c4 0520 	rsb	r5, r4, #32
 8000764:	fa00 f305 	lsl.w	r3, r0, r5
 8000768:	fa20 f004 	lsr.w	r0, r0, r4
 800076c:	fa01 f205 	lsl.w	r2, r1, r5
 8000770:	ea40 0002 	orr.w	r0, r0, r2
 8000774:	f001 4200 	and.w	r2, r1, #2147483648	@ 0x80000000
 8000778:	f021 4100 	bic.w	r1, r1, #2147483648	@ 0x80000000
 800077c:	eb10 70d3 	adds.w	r0, r0, r3, lsr #31
 8000780:	fa21 f604 	lsr.w	r6, r1, r4
 8000784:	eb42 0106 	adc.w	r1, r2, r6
 8000788:	ea5e 0e43 	orrs.w	lr, lr, r3, lsl #1
 800078c:	bf08      	it	eq
 800078e:	ea20 70d3 	biceq.w	r0, r0, r3, lsr #31
 8000792:	bd70      	pop	{r4, r5, r6, pc}
 8000794:	f1c4 040c 	rsb	r4, r4, #12
 8000798:	f1c4 0520 	rsb	r5, r4, #32
 800079c:	fa00 f304 	lsl.w	r3, r0, r4
 80007a0:	fa20 f005 	lsr.w	r0, r0, r5
 80007a4:	fa01 f204 	lsl.w	r2, r1, r4
 80007a8:	ea40 0002 	orr.w	r0, r0, r2
 80007ac:	f001 4100 	and.w	r1, r1, #2147483648	@ 0x80000000
 80007b0:	eb10 70d3 	adds.w	r0, r0, r3, lsr #31
 80007b4:	f141 0100 	adc.w	r1, r1, #0
 80007b8:	ea5e 0e43 	orrs.w	lr, lr, r3, lsl #1
 80007bc:	bf08      	it	eq
 80007be:	ea20 70d3 	biceq.w	r0, r0, r3, lsr #31
 80007c2:	bd70      	pop	{r4, r5, r6, pc}
 80007c4:	f1c4 0520 	rsb	r5, r4, #32
 80007c8:	fa00 f205 	lsl.w	r2, r0, r5
 80007cc:	ea4e 0e02 	orr.w	lr, lr, r2
 80007d0:	fa20 f304 	lsr.w	r3, r0, r4
 80007d4:	fa01 f205 	lsl.w	r2, r1, r5
 80007d8:	ea43 0302 	orr.w	r3, r3, r2
 80007dc:	fa21 f004 	lsr.w	r0, r1, r4
 80007e0:	f001 4100 	and.w	r1, r1, #2147483648	@ 0x80000000
 80007e4:	fa21 f204 	lsr.w	r2, r1, r4
 80007e8:	ea20 0002 	bic.w	r0, r0, r2
 80007ec:	eb00 70d3 	add.w	r0, r0, r3, lsr #31
 80007f0:	ea5e 0e43 	orrs.w	lr, lr, r3, lsl #1
 80007f4:	bf08      	it	eq
 80007f6:	ea20 70d3 	biceq.w	r0, r0, r3, lsr #31
 80007fa:	bd70      	pop	{r4, r5, r6, pc}
 80007fc:	f094 0f00 	teq	r4, #0
 8000800:	d10f      	bne.n	8000822 <__aeabi_dmul+0x1c2>
 8000802:	f001 4600 	and.w	r6, r1, #2147483648	@ 0x80000000
 8000806:	0040      	lsls	r0, r0, #1
 8000808:	eb41 0101 	adc.w	r1, r1, r1
 800080c:	f411 1f80 	tst.w	r1, #1048576	@ 0x100000
 8000810:	bf08      	it	eq
 8000812:	3c01      	subeq	r4, #1
 8000814:	d0f7      	beq.n	8000806 <__aeabi_dmul+0x1a6>
 8000816:	ea41 0106 	orr.w	r1, r1, r6
 800081a:	f095 0f00 	teq	r5, #0
 800081e:	bf18      	it	ne
 8000820:	4770      	bxne	lr
 8000822:	f003 4600 	and.w	r6, r3, #2147483648	@ 0x80000000
 8000826:	0052      	lsls	r2, r2, #1
 8000828:	eb43 0303 	adc.w	r3, r3, r3
 800082c:	f413 1f80 	tst.w	r3, #1048576	@ 0x100000
 8000830:	bf08      	it	eq
 8000832:	3d01      	subeq	r5, #1
 8000834:	d0f7      	beq.n	8000826 <__aeabi_dmul+0x1c6>
 8000836:	ea43 0306 	orr.w	r3, r3, r6
 800083a:	4770      	bx	lr
 800083c:	ea94 0f0c 	teq	r4, ip
 8000840:	ea0c 5513 	and.w	r5, ip, r3, lsr #20
 8000844:	bf18      	it	ne
 8000846:	ea95 0f0c 	teqne	r5, ip
 800084a:	d00c      	beq.n	8000866 <__aeabi_dmul+0x206>
 800084c:	ea50 0641 	orrs.w	r6, r0, r1, lsl #1
 8000850:	bf18      	it	ne
 8000852:	ea52 0643 	orrsne.w	r6, r2, r3, lsl #1
 8000856:	d1d1      	bne.n	80007fc <__aeabi_dmul+0x19c>
 8000858:	ea81 0103 	eor.w	r1, r1, r3
 800085c:	f001 4100 	and.w	r1, r1, #2147483648	@ 0x80000000
 8000860:	f04f 0000 	mov.w	r0, #0
 8000864:	bd70      	pop	{r4, r5, r6, pc}
 8000866:	ea50 0641 	orrs.w	r6, r0, r1, lsl #1
 800086a:	bf06      	itte	eq
 800086c:	4610      	moveq	r0, r2
 800086e:	4619      	moveq	r1, r3
 8000870:	ea52 0643 	orrsne.w	r6, r2, r3, lsl #1
 8000874:	d019      	beq.n	80008aa <__aeabi_dmul+0x24a>
 8000876:	ea94 0f0c 	teq	r4, ip
 800087a:	d102      	bne.n	8000882 <__aeabi_dmul+0x222>
 800087c:	ea50 3601 	orrs.w	r6, r0, r1, lsl #12
 8000880:	d113      	bne.n	80008aa <__aeabi_dmul+0x24a>
 8000882:	ea95 0f0c 	teq	r5, ip
 8000886:	d105      	bne.n	8000894 <__aeabi_dmul+0x234>
 8000888:	ea52 3603 	orrs.w	r6, r2, r3, lsl #12
 800088c:	bf1c      	itt	ne
 800088e:	4610      	movne	r0, r2
 8000890:	4619      	movne	r1, r3
 8000892:	d10a      	bne.n	80008aa <__aeabi_dmul+0x24a>
 8000894:	ea81 0103 	eor.w	r1, r1, r3
 8000898:	f001 4100 	and.w	r1, r1, #2147483648	@ 0x80000000
 800089c:	f041 41fe 	orr.w	r1, r1, #2130706432	@ 0x7f000000
 80008a0:	f441 0170 	orr.w	r1, r1, #15728640	@ 0xf00000
 80008a4:	f04f 0000 	mov.w	r0, #0
 80008a8:	bd70      	pop	{r4, r5, r6, pc}
 80008aa:	f041 41fe 	orr.w	r1, r1, #2130706432	@ 0x7f000000
 80008ae:	f441 0178 	orr.w	r1, r1, #16252928	@ 0xf80000
 80008b2:	bd70      	pop	{r4, r5, r6, pc}

080008b4 <__aeabi_ddiv>:
 80008b4:	b570      	push	{r4, r5, r6, lr}
 80008b6:	f04f 0cff 	mov.w	ip, #255	@ 0xff
 80008ba:	f44c 6ce0 	orr.w	ip, ip, #1792	@ 0x700
 80008be:	ea1c 5411 	ands.w	r4, ip, r1, lsr #20
 80008c2:	bf1d      	ittte	ne
 80008c4:	ea1c 5513 	andsne.w	r5, ip, r3, lsr #20
 80008c8:	ea94 0f0c 	teqne	r4, ip
 80008cc:	ea95 0f0c 	teqne	r5, ip
 80008d0:	f000 f8a7 	bleq	8000a22 <__aeabi_ddiv+0x16e>
 80008d4:	eba4 0405 	sub.w	r4, r4, r5
 80008d8:	ea81 0e03 	eor.w	lr, r1, r3
 80008dc:	ea52 3503 	orrs.w	r5, r2, r3, lsl #12
 80008e0:	ea4f 3101 	mov.w	r1, r1, lsl #12
 80008e4:	f000 8088 	beq.w	80009f8 <__aeabi_ddiv+0x144>
 80008e8:	ea4f 3303 	mov.w	r3, r3, lsl #12
 80008ec:	f04f 5580 	mov.w	r5, #268435456	@ 0x10000000
 80008f0:	ea45 1313 	orr.w	r3, r5, r3, lsr #4
 80008f4:	ea43 6312 	orr.w	r3, r3, r2, lsr #24
 80008f8:	ea4f 2202 	mov.w	r2, r2, lsl #8
 80008fc:	ea45 1511 	orr.w	r5, r5, r1, lsr #4
 8000900:	ea45 6510 	orr.w	r5, r5, r0, lsr #24
 8000904:	ea4f 2600 	mov.w	r6, r0, lsl #8
 8000908:	f00e 4100 	and.w	r1, lr, #2147483648	@ 0x80000000
 800090c:	429d      	cmp	r5, r3
 800090e:	bf08      	it	eq
 8000910:	4296      	cmpeq	r6, r2
 8000912:	f144 04fd 	adc.w	r4, r4, #253	@ 0xfd
 8000916:	f504 7440 	add.w	r4, r4, #768	@ 0x300
 800091a:	d202      	bcs.n	8000922 <__aeabi_ddiv+0x6e>
 800091c:	085b      	lsrs	r3, r3, #1
 800091e:	ea4f 0232 	mov.w	r2, r2, rrx
 8000922:	1ab6      	subs	r6, r6, r2
 8000924:	eb65 0503 	sbc.w	r5, r5, r3
 8000928:	085b      	lsrs	r3, r3, #1
 800092a:	ea4f 0232 	mov.w	r2, r2, rrx
 800092e:	f44f 1080 	mov.w	r0, #1048576	@ 0x100000
 8000932:	f44f 2c00 	mov.w	ip, #524288	@ 0x80000
 8000936:	ebb6 0e02 	subs.w	lr, r6, r2
 800093a:	eb75 0e03 	sbcs.w	lr, r5, r3
 800093e:	bf22      	ittt	cs
 8000940:	1ab6      	subcs	r6, r6, r2
 8000942:	4675      	movcs	r5, lr
 8000944:	ea40 000c 	orrcs.w	r0, r0, ip
 8000948:	085b      	lsrs	r3, r3, #1
 800094a:	ea4f 0232 	mov.w	r2, r2, rrx
 800094e:	ebb6 0e02 	subs.w	lr, r6, r2
 8000952:	eb75 0e03 	sbcs.w	lr, r5, r3
 8000956:	bf22      	ittt	cs
 8000958:	1ab6      	subcs	r6, r6, r2
 800095a:	4675      	movcs	r5, lr
 800095c:	ea40 005c 	orrcs.w	r0, r0, ip, lsr #1
 8000960:	085b      	lsrs	r3, r3, #1
 8000962:	ea4f 0232 	mov.w	r2, r2, rrx
 8000966:	ebb6 0e02 	subs.w	lr, r6, r2
 800096a:	eb75 0e03 	sbcs.w	lr, r5, r3
 800096e:	bf22      	ittt	cs
 8000970:	1ab6      	subcs	r6, r6, r2
 8000972:	4675      	movcs	r5, lr
 8000974:	ea40 009c 	orrcs.w	r0, r0, ip, lsr #2
 8000978:	085b      	lsrs	r3, r3, #1
 800097a:	ea4f 0232 	mov.w	r2, r2, rrx
 800097e:	ebb6 0e02 	subs.w	lr, r6, r2
 8000982:	eb75 0e03 	sbcs.w	lr, r5, r3
 8000986:	bf22      	ittt	cs
 8000988:	1ab6      	subcs	r6, r6, r2
 800098a:	4675      	movcs	r5, lr
 800098c:	ea40 00dc 	orrcs.w	r0, r0, ip, lsr #3
 8000990:	ea55 0e06 	orrs.w	lr, r5, r6
 8000994:	d018      	beq.n	80009c8 <__aeabi_ddiv+0x114>
 8000996:	ea4f 1505 	mov.w	r5, r5, lsl #4
 800099a:	ea45 7516 	orr.w	r5, r5, r6, lsr #28
 800099e:	ea4f 1606 	mov.w	r6, r6, lsl #4
 80009a2:	ea4f 03c3 	mov.w	r3, r3, lsl #3
 80009a6:	ea43 7352 	orr.w	r3, r3, r2, lsr #29
 80009aa:	ea4f 02c2 	mov.w	r2, r2, lsl #3
 80009ae:	ea5f 1c1c 	movs.w	ip, ip, lsr #4
 80009b2:	d1c0      	bne.n	8000936 <__aeabi_ddiv+0x82>
 80009b4:	f411 1f80 	tst.w	r1, #1048576	@ 0x100000
 80009b8:	d10b      	bne.n	80009d2 <__aeabi_ddiv+0x11e>
 80009ba:	ea41 0100 	orr.w	r1, r1, r0
 80009be:	f04f 0000 	mov.w	r0, #0
 80009c2:	f04f 4c00 	mov.w	ip, #2147483648	@ 0x80000000
 80009c6:	e7b6      	b.n	8000936 <__aeabi_ddiv+0x82>
 80009c8:	f411 1f80 	tst.w	r1, #1048576	@ 0x100000
 80009cc:	bf04      	itt	eq
 80009ce:	4301      	orreq	r1, r0
 80009d0:	2000      	moveq	r0, #0
 80009d2:	f1b4 0cfd 	subs.w	ip, r4, #253	@ 0xfd
 80009d6:	bf88      	it	hi
 80009d8:	f5bc 6fe0 	cmphi.w	ip, #1792	@ 0x700
 80009dc:	f63f aeaf 	bhi.w	800073e <__aeabi_dmul+0xde>
 80009e0:	ebb5 0c03 	subs.w	ip, r5, r3
 80009e4:	bf04      	itt	eq
 80009e6:	ebb6 0c02 	subseq.w	ip, r6, r2
 80009ea:	ea5f 0c50 	movseq.w	ip, r0, lsr #1
 80009ee:	f150 0000 	adcs.w	r0, r0, #0
 80009f2:	eb41 5104 	adc.w	r1, r1, r4, lsl #20
 80009f6:	bd70      	pop	{r4, r5, r6, pc}
 80009f8:	f00e 4e00 	and.w	lr, lr, #2147483648	@ 0x80000000
 80009fc:	ea4e 3111 	orr.w	r1, lr, r1, lsr #12
 8000a00:	eb14 045c 	adds.w	r4, r4, ip, lsr #1
 8000a04:	bfc2      	ittt	gt
 8000a06:	ebd4 050c 	rsbsgt	r5, r4, ip
 8000a0a:	ea41 5104 	orrgt.w	r1, r1, r4, lsl #20
 8000a0e:	bd70      	popgt	{r4, r5, r6, pc}
 8000a10:	f441 1180 	orr.w	r1, r1, #1048576	@ 0x100000
 8000a14:	f04f 0e00 	mov.w	lr, #0
 8000a18:	3c01      	subs	r4, #1
 8000a1a:	e690      	b.n	800073e <__aeabi_dmul+0xde>
 8000a1c:	ea45 0e06 	orr.w	lr, r5, r6
 8000a20:	e68d      	b.n	800073e <__aeabi_dmul+0xde>
 8000a22:	ea0c 5513 	and.w	r5, ip, r3, lsr #20
 8000a26:	ea94 0f0c 	teq	r4, ip
 8000a2a:	bf08      	it	eq
 8000a2c:	ea95 0f0c 	teqeq	r5, ip
 8000a30:	f43f af3b 	beq.w	80008aa <__aeabi_dmul+0x24a>
 8000a34:	ea94 0f0c 	teq	r4, ip
 8000a38:	d10a      	bne.n	8000a50 <__aeabi_ddiv+0x19c>
 8000a3a:	ea50 3401 	orrs.w	r4, r0, r1, lsl #12
 8000a3e:	f47f af34 	bne.w	80008aa <__aeabi_dmul+0x24a>
 8000a42:	ea95 0f0c 	teq	r5, ip
 8000a46:	f47f af25 	bne.w	8000894 <__aeabi_dmul+0x234>
 8000a4a:	4610      	mov	r0, r2
 8000a4c:	4619      	mov	r1, r3
 8000a4e:	e72c      	b.n	80008aa <__aeabi_dmul+0x24a>
 8000a50:	ea95 0f0c 	teq	r5, ip
 8000a54:	d106      	bne.n	8000a64 <__aeabi_ddiv+0x1b0>
 8000a56:	ea52 3503 	orrs.w	r5, r2, r3, lsl #12
 8000a5a:	f43f aefd 	beq.w	8000858 <__aeabi_dmul+0x1f8>
 8000a5e:	4610      	mov	r0, r2
 8000a60:	4619      	mov	r1, r3
 8000a62:	e722      	b.n	80008aa <__aeabi_dmul+0x24a>
 8000a64:	ea50 0641 	orrs.w	r6, r0, r1, lsl #1
 8000a68:	bf18      	it	ne
 8000a6a:	ea52 0643 	orrsne.w	r6, r2, r3, lsl #1
 8000a6e:	f47f aec5 	bne.w	80007fc <__aeabi_dmul+0x19c>
 8000a72:	ea50 0441 	orrs.w	r4, r0, r1, lsl #1
 8000a76:	f47f af0d 	bne.w	8000894 <__aeabi_dmul+0x234>
 8000a7a:	ea52 0543 	orrs.w	r5, r2, r3, lsl #1
 8000a7e:	f47f aeeb 	bne.w	8000858 <__aeabi_dmul+0x1f8>
 8000a82:	e712      	b.n	80008aa <__aeabi_dmul+0x24a>

08000a84 <__gedf2>:
 8000a84:	f04f 3cff 	mov.w	ip, #4294967295
 8000a88:	e006      	b.n	8000a98 <__cmpdf2+0x4>
 8000a8a:	bf00      	nop

08000a8c <__ledf2>:
 8000a8c:	f04f 0c01 	mov.w	ip, #1
 8000a90:	e002      	b.n	8000a98 <__cmpdf2+0x4>
 8000a92:	bf00      	nop

08000a94 <__cmpdf2>:
 8000a94:	f04f 0c01 	mov.w	ip, #1
 8000a98:	f84d cd04 	str.w	ip, [sp, #-4]!
 8000a9c:	ea4f 0c41 	mov.w	ip, r1, lsl #1
 8000aa0:	ea7f 5c6c 	mvns.w	ip, ip, asr #21
 8000aa4:	ea4f 0c43 	mov.w	ip, r3, lsl #1
 8000aa8:	bf18      	it	ne
 8000aaa:	ea7f 5c6c 	mvnsne.w	ip, ip, asr #21
 8000aae:	d01b      	beq.n	8000ae8 <__cmpdf2+0x54>
 8000ab0:	b001      	add	sp, #4
 8000ab2:	ea50 0c41 	orrs.w	ip, r0, r1, lsl #1
 8000ab6:	bf0c      	ite	eq
 8000ab8:	ea52 0c43 	orrseq.w	ip, r2, r3, lsl #1
 8000abc:	ea91 0f03 	teqne	r1, r3
 8000ac0:	bf02      	ittt	eq
 8000ac2:	ea90 0f02 	teqeq	r0, r2
 8000ac6:	2000      	moveq	r0, #0
 8000ac8:	4770      	bxeq	lr
 8000aca:	f110 0f00 	cmn.w	r0, #0
 8000ace:	ea91 0f03 	teq	r1, r3
 8000ad2:	bf58      	it	pl
 8000ad4:	4299      	cmppl	r1, r3
 8000ad6:	bf08      	it	eq
 8000ad8:	4290      	cmpeq	r0, r2
 8000ada:	bf2c      	ite	cs
 8000adc:	17d8      	asrcs	r0, r3, #31
 8000ade:	ea6f 70e3 	mvncc.w	r0, r3, asr #31
 8000ae2:	f040 0001 	orr.w	r0, r0, #1
 8000ae6:	4770      	bx	lr
 8000ae8:	ea4f 0c41 	mov.w	ip, r1, lsl #1
 8000aec:	ea7f 5c6c 	mvns.w	ip, ip, asr #21
 8000af0:	d102      	bne.n	8000af8 <__cmpdf2+0x64>
 8000af2:	ea50 3c01 	orrs.w	ip, r0, r1, lsl #12
 8000af6:	d107      	bne.n	8000b08 <__cmpdf2+0x74>
 8000af8:	ea4f 0c43 	mov.w	ip, r3, lsl #1
 8000afc:	ea7f 5c6c 	mvns.w	ip, ip, asr #21
 8000b00:	d1d6      	bne.n	8000ab0 <__cmpdf2+0x1c>
 8000b02:	ea52 3c03 	orrs.w	ip, r2, r3, lsl #12
 8000b06:	d0d3      	beq.n	8000ab0 <__cmpdf2+0x1c>
 8000b08:	f85d 0b04 	ldr.w	r0, [sp], #4
 8000b0c:	4770      	bx	lr
 8000b0e:	bf00      	nop

08000b10 <__aeabi_cdrcmple>:
 8000b10:	4684      	mov	ip, r0
 8000b12:	4610      	mov	r0, r2
 8000b14:	4662      	mov	r2, ip
 8000b16:	468c      	mov	ip, r1
 8000b18:	4619      	mov	r1, r3
 8000b1a:	4663      	mov	r3, ip
 8000b1c:	e000      	b.n	8000b20 <__aeabi_cdcmpeq>
 8000b1e:	bf00      	nop

08000b20 <__aeabi_cdcmpeq>:
 8000b20:	b501      	push	{r0, lr}
 8000b22:	f7ff ffb7 	bl	8000a94 <__cmpdf2>
 8000b26:	2800      	cmp	r0, #0
 8000b28:	bf48      	it	mi
 8000b2a:	f110 0f00 	cmnmi.w	r0, #0
 8000b2e:	bd01      	pop	{r0, pc}

08000b30 <__aeabi_dcmpeq>:
 8000b30:	f84d ed08 	str.w	lr, [sp, #-8]!
 8000b34:	f7ff fff4 	bl	8000b20 <__aeabi_cdcmpeq>
 8000b38:	bf0c      	ite	eq
 8000b3a:	2001      	moveq	r0, #1
 8000b3c:	2000      	movne	r0, #0
 8000b3e:	f85d fb08 	ldr.w	pc, [sp], #8
 8000b42:	bf00      	nop

08000b44 <__aeabi_dcmplt>:
 8000b44:	f84d ed08 	str.w	lr, [sp, #-8]!
 8000b48:	f7ff ffea 	bl	8000b20 <__aeabi_cdcmpeq>
 8000b4c:	bf34      	ite	cc
 8000b4e:	2001      	movcc	r0, #1
 8000b50:	2000      	movcs	r0, #0
 8000b52:	f85d fb08 	ldr.w	pc, [sp], #8
 8000b56:	bf00      	nop

08000b58 <__aeabi_dcmple>:
 8000b58:	f84d ed08 	str.w	lr, [sp, #-8]!
 8000b5c:	f7ff ffe0 	bl	8000b20 <__aeabi_cdcmpeq>
 8000b60:	bf94      	ite	ls
 8000b62:	2001      	movls	r0, #1
 8000b64:	2000      	movhi	r0, #0
 8000b66:	f85d fb08 	ldr.w	pc, [sp], #8
 8000b6a:	bf00      	nop

08000b6c <__aeabi_dcmpge>:
 8000b6c:	f84d ed08 	str.w	lr, [sp, #-8]!
 8000b70:	f7ff ffce 	bl	8000b10 <__aeabi_cdrcmple>
 8000b74:	bf94      	ite	ls
 8000b76:	2001      	movls	r0, #1
 8000b78:	2000      	movhi	r0, #0
 8000b7a:	f85d fb08 	ldr.w	pc, [sp], #8
 8000b7e:	bf00      	nop

08000b80 <__aeabi_dcmpgt>:
 8000b80:	f84d ed08 	str.w	lr, [sp, #-8]!
 8000b84:	f7ff ffc4 	bl	8000b10 <__aeabi_cdrcmple>
 8000b88:	bf34      	ite	cc
 8000b8a:	2001      	movcc	r0, #1
 8000b8c:	2000      	movcs	r0, #0
 8000b8e:	f85d fb08 	ldr.w	pc, [sp], #8
 8000b92:	bf00      	nop

08000b94 <__aeabi_dcmpun>:
 8000b94:	ea4f 0c41 	mov.w	ip, r1, lsl #1
 8000b98:	ea7f 5c6c 	mvns.w	ip, ip, asr #21
 8000b9c:	d102      	bne.n	8000ba4 <__aeabi_dcmpun+0x10>
 8000b9e:	ea50 3c01 	orrs.w	ip, r0, r1, lsl #12
 8000ba2:	d10a      	bne.n	8000bba <__aeabi_dcmpun+0x26>
 8000ba4:	ea4f 0c43 	mov.w	ip, r3, lsl #1
 8000ba8:	ea7f 5c6c 	mvns.w	ip, ip, asr #21
 8000bac:	d102      	bne.n	8000bb4 <__aeabi_dcmpun+0x20>
 8000bae:	ea52 3c03 	orrs.w	ip, r2, r3, lsl #12
 8000bb2:	d102      	bne.n	8000bba <__aeabi_dcmpun+0x26>
 8000bb4:	f04f 0000 	mov.w	r0, #0
 8000bb8:	4770      	bx	lr
 8000bba:	f04f 0001 	mov.w	r0, #1
 8000bbe:	4770      	bx	lr

08000bc0 <__aeabi_d2iz>:
 8000bc0:	ea4f 0241 	mov.w	r2, r1, lsl #1
 8000bc4:	f512 1200 	adds.w	r2, r2, #2097152	@ 0x200000
 8000bc8:	d215      	bcs.n	8000bf6 <__aeabi_d2iz+0x36>
 8000bca:	d511      	bpl.n	8000bf0 <__aeabi_d2iz+0x30>
 8000bcc:	f46f 7378 	mvn.w	r3, #992	@ 0x3e0
 8000bd0:	ebb3 5262 	subs.w	r2, r3, r2, asr #21
 8000bd4:	d912      	bls.n	8000bfc <__aeabi_d2iz+0x3c>
 8000bd6:	ea4f 23c1 	mov.w	r3, r1, lsl #11
 8000bda:	f043 4300 	orr.w	r3, r3, #2147483648	@ 0x80000000
 8000bde:	ea43 5350 	orr.w	r3, r3, r0, lsr #21
 8000be2:	f011 4f00 	tst.w	r1, #2147483648	@ 0x80000000
 8000be6:	fa23 f002 	lsr.w	r0, r3, r2
 8000bea:	bf18      	it	ne
 8000bec:	4240      	negne	r0, r0
 8000bee:	4770      	bx	lr
 8000bf0:	f04f 0000 	mov.w	r0, #0
 8000bf4:	4770      	bx	lr
 8000bf6:	ea50 3001 	orrs.w	r0, r0, r1, lsl #12
 8000bfa:	d105      	bne.n	8000c08 <__aeabi_d2iz+0x48>
 8000bfc:	f011 4000 	ands.w	r0, r1, #2147483648	@ 0x80000000
 8000c00:	bf08      	it	eq
 8000c02:	f06f 4000 	mvneq.w	r0, #2147483648	@ 0x80000000
 8000c06:	4770      	bx	lr
 8000c08:	f04f 0000 	mov.w	r0, #0
 8000c0c:	4770      	bx	lr
 8000c0e:	bf00      	nop

08000c10 <__aeabi_frsub>:
 8000c10:	f080 4000 	eor.w	r0, r0, #2147483648	@ 0x80000000
 8000c14:	e002      	b.n	8000c1c <__addsf3>
 8000c16:	bf00      	nop

08000c18 <__aeabi_fsub>:
 8000c18:	f081 4100 	eor.w	r1, r1, #2147483648	@ 0x80000000

08000c1c <__addsf3>:
 8000c1c:	0042      	lsls	r2, r0, #1
 8000c1e:	bf1f      	itttt	ne
 8000c20:	ea5f 0341 	movsne.w	r3, r1, lsl #1
 8000c24:	ea92 0f03 	teqne	r2, r3
 8000c28:	ea7f 6c22 	mvnsne.w	ip, r2, asr #24
 8000c2c:	ea7f 6c23 	mvnsne.w	ip, r3, asr #24
 8000c30:	d06a      	beq.n	8000d08 <__addsf3+0xec>
 8000c32:	ea4f 6212 	mov.w	r2, r2, lsr #24
 8000c36:	ebd2 6313 	rsbs	r3, r2, r3, lsr #24
 8000c3a:	bfc1      	itttt	gt
 8000c3c:	18d2      	addgt	r2, r2, r3
 8000c3e:	4041      	eorgt	r1, r0
 8000c40:	4048      	eorgt	r0, r1
 8000c42:	4041      	eorgt	r1, r0
 8000c44:	bfb8      	it	lt
 8000c46:	425b      	neglt	r3, r3
 8000c48:	2b19      	cmp	r3, #25
 8000c4a:	bf88      	it	hi
 8000c4c:	4770      	bxhi	lr
 8000c4e:	f010 4f00 	tst.w	r0, #2147483648	@ 0x80000000
 8000c52:	f440 0000 	orr.w	r0, r0, #8388608	@ 0x800000
 8000c56:	f020 407f 	bic.w	r0, r0, #4278190080	@ 0xff000000
 8000c5a:	bf18      	it	ne
 8000c5c:	4240      	negne	r0, r0
 8000c5e:	f011 4f00 	tst.w	r1, #2147483648	@ 0x80000000
 8000c62:	f441 0100 	orr.w	r1, r1, #8388608	@ 0x800000
 8000c66:	f021 417f 	bic.w	r1, r1, #4278190080	@ 0xff000000
 8000c6a:	bf18      	it	ne
 8000c6c:	4249      	negne	r1, r1
 8000c6e:	ea92 0f03 	teq	r2, r3
 8000c72:	d03f      	beq.n	8000cf4 <__addsf3+0xd8>
 8000c74:	f1a2 0201 	sub.w	r2, r2, #1
 8000c78:	fa41 fc03 	asr.w	ip, r1, r3
 8000c7c:	eb10 000c 	adds.w	r0, r0, ip
 8000c80:	f1c3 0320 	rsb	r3, r3, #32
 8000c84:	fa01 f103 	lsl.w	r1, r1, r3
 8000c88:	f000 4300 	and.w	r3, r0, #2147483648	@ 0x80000000
 8000c8c:	d502      	bpl.n	8000c94 <__addsf3+0x78>
 8000c8e:	4249      	negs	r1, r1
 8000c90:	eb60 0040 	sbc.w	r0, r0, r0, lsl #1
 8000c94:	f5b0 0f00 	cmp.w	r0, #8388608	@ 0x800000
 8000c98:	d313      	bcc.n	8000cc2 <__addsf3+0xa6>
 8000c9a:	f1b0 7f80 	cmp.w	r0, #16777216	@ 0x1000000
 8000c9e:	d306      	bcc.n	8000cae <__addsf3+0x92>
 8000ca0:	0840      	lsrs	r0, r0, #1
 8000ca2:	ea4f 0131 	mov.w	r1, r1, rrx
 8000ca6:	f102 0201 	add.w	r2, r2, #1
 8000caa:	2afe      	cmp	r2, #254	@ 0xfe
 8000cac:	d251      	bcs.n	8000d52 <__addsf3+0x136>
 8000cae:	f1b1 4f00 	cmp.w	r1, #2147483648	@ 0x80000000
 8000cb2:	eb40 50c2 	adc.w	r0, r0, r2, lsl #23
 8000cb6:	bf08      	it	eq
 8000cb8:	f020 0001 	biceq.w	r0, r0, #1
 8000cbc:	ea40 0003 	orr.w	r0, r0, r3
 8000cc0:	4770      	bx	lr
 8000cc2:	0049      	lsls	r1, r1, #1
 8000cc4:	eb40 0000 	adc.w	r0, r0, r0
 8000cc8:	3a01      	subs	r2, #1
 8000cca:	bf28      	it	cs
 8000ccc:	f5b0 0f00 	cmpcs.w	r0, #8388608	@ 0x800000
 8000cd0:	d2ed      	bcs.n	8000cae <__addsf3+0x92>
 8000cd2:	fab0 fc80 	clz	ip, r0
 8000cd6:	f1ac 0c08 	sub.w	ip, ip, #8
 8000cda:	ebb2 020c 	subs.w	r2, r2, ip
 8000cde:	fa00 f00c 	lsl.w	r0, r0, ip
 8000ce2:	bfaa      	itet	ge
 8000ce4:	eb00 50c2 	addge.w	r0, r0, r2, lsl #23
 8000ce8:	4252      	neglt	r2, r2
 8000cea:	4318      	orrge	r0, r3
 8000cec:	bfbc      	itt	lt
 8000cee:	40d0      	lsrlt	r0, r2
 8000cf0:	4318      	orrlt	r0, r3
 8000cf2:	4770      	bx	lr
 8000cf4:	f092 0f00 	teq	r2, #0
 8000cf8:	f481 0100 	eor.w	r1, r1, #8388608	@ 0x800000
 8000cfc:	bf06      	itte	eq
 8000cfe:	f480 0000 	eoreq.w	r0, r0, #8388608	@ 0x800000
 8000d02:	3201      	addeq	r2, #1
 8000d04:	3b01      	subne	r3, #1
 8000d06:	e7b5      	b.n	8000c74 <__addsf3+0x58>
 8000d08:	ea4f 0341 	mov.w	r3, r1, lsl #1
 8000d0c:	ea7f 6c22 	mvns.w	ip, r2, asr #24
 8000d10:	bf18      	it	ne
 8000d12:	ea7f 6c23 	mvnsne.w	ip, r3, asr #24
 8000d16:	d021      	beq.n	8000d5c <__addsf3+0x140>
 8000d18:	ea92 0f03 	teq	r2, r3
 8000d1c:	d004      	beq.n	8000d28 <__addsf3+0x10c>
 8000d1e:	f092 0f00 	teq	r2, #0
 8000d22:	bf08      	it	eq
 8000d24:	4608      	moveq	r0, r1
 8000d26:	4770      	bx	lr
 8000d28:	ea90 0f01 	teq	r0, r1
 8000d2c:	bf1c      	itt	ne
 8000d2e:	2000      	movne	r0, #0
 8000d30:	4770      	bxne	lr
 8000d32:	f012 4f7f 	tst.w	r2, #4278190080	@ 0xff000000
 8000d36:	d104      	bne.n	8000d42 <__addsf3+0x126>
 8000d38:	0040      	lsls	r0, r0, #1
 8000d3a:	bf28      	it	cs
 8000d3c:	f040 4000 	orrcs.w	r0, r0, #2147483648	@ 0x80000000
 8000d40:	4770      	bx	lr
 8000d42:	f112 7200 	adds.w	r2, r2, #33554432	@ 0x2000000
 8000d46:	bf3c      	itt	cc
 8000d48:	f500 0000 	addcc.w	r0, r0, #8388608	@ 0x800000
 8000d4c:	4770      	bxcc	lr
 8000d4e:	f000 4300 	and.w	r3, r0, #2147483648	@ 0x80000000
 8000d52:	f043 40fe 	orr.w	r0, r3, #2130706432	@ 0x7f000000
 8000d56:	f440 0000 	orr.w	r0, r0, #8388608	@ 0x800000
 8000d5a:	4770      	bx	lr
 8000d5c:	ea7f 6222 	mvns.w	r2, r2, asr #24
 8000d60:	bf16      	itet	ne
 8000d62:	4608      	movne	r0, r1
 8000d64:	ea7f 6323 	mvnseq.w	r3, r3, asr #24
 8000d68:	4601      	movne	r1, r0
 8000d6a:	0242      	lsls	r2, r0, #9
 8000d6c:	bf06      	itte	eq
 8000d6e:	ea5f 2341 	movseq.w	r3, r1, lsl #9
 8000d72:	ea90 0f01 	teqeq	r0, r1
 8000d76:	f440 0080 	orrne.w	r0, r0, #4194304	@ 0x400000
 8000d7a:	4770      	bx	lr

08000d7c <__aeabi_ui2f>:
 8000d7c:	f04f 0300 	mov.w	r3, #0
 8000d80:	e004      	b.n	8000d8c <__aeabi_i2f+0x8>
 8000d82:	bf00      	nop

08000d84 <__aeabi_i2f>:
 8000d84:	f010 4300 	ands.w	r3, r0, #2147483648	@ 0x80000000
 8000d88:	bf48      	it	mi
 8000d8a:	4240      	negmi	r0, r0
 8000d8c:	ea5f 0c00 	movs.w	ip, r0
 8000d90:	bf08      	it	eq
 8000d92:	4770      	bxeq	lr
 8000d94:	f043 4396 	orr.w	r3, r3, #1258291200	@ 0x4b000000
 8000d98:	4601      	mov	r1, r0
 8000d9a:	f04f 0000 	mov.w	r0, #0
 8000d9e:	e01c      	b.n	8000dda <__aeabi_l2f+0x2a>

08000da0 <__aeabi_ul2f>:
 8000da0:	ea50 0201 	orrs.w	r2, r0, r1
 8000da4:	bf08      	it	eq
 8000da6:	4770      	bxeq	lr
 8000da8:	f04f 0300 	mov.w	r3, #0
 8000dac:	e00a      	b.n	8000dc4 <__aeabi_l2f+0x14>
 8000dae:	bf00      	nop

08000db0 <__aeabi_l2f>:
 8000db0:	ea50 0201 	orrs.w	r2, r0, r1
 8000db4:	bf08      	it	eq
 8000db6:	4770      	bxeq	lr
 8000db8:	f011 4300 	ands.w	r3, r1, #2147483648	@ 0x80000000
 8000dbc:	d502      	bpl.n	8000dc4 <__aeabi_l2f+0x14>
 8000dbe:	4240      	negs	r0, r0
 8000dc0:	eb61 0141 	sbc.w	r1, r1, r1, lsl #1
 8000dc4:	ea5f 0c01 	movs.w	ip, r1
 8000dc8:	bf02      	ittt	eq
 8000dca:	4684      	moveq	ip, r0
 8000dcc:	4601      	moveq	r1, r0
 8000dce:	2000      	moveq	r0, #0
 8000dd0:	f043 43b6 	orr.w	r3, r3, #1526726656	@ 0x5b000000
 8000dd4:	bf08      	it	eq
 8000dd6:	f1a3 5380 	subeq.w	r3, r3, #268435456	@ 0x10000000
 8000dda:	f5a3 0300 	sub.w	r3, r3, #8388608	@ 0x800000
 8000dde:	fabc f28c 	clz	r2, ip
 8000de2:	3a08      	subs	r2, #8
 8000de4:	eba3 53c2 	sub.w	r3, r3, r2, lsl #23
 8000de8:	db10      	blt.n	8000e0c <__aeabi_l2f+0x5c>
 8000dea:	fa01 fc02 	lsl.w	ip, r1, r2
 8000dee:	4463      	add	r3, ip
 8000df0:	fa00 fc02 	lsl.w	ip, r0, r2
 8000df4:	f1c2 0220 	rsb	r2, r2, #32
 8000df8:	f1bc 4f00 	cmp.w	ip, #2147483648	@ 0x80000000
 8000dfc:	fa20 f202 	lsr.w	r2, r0, r2
 8000e00:	eb43 0002 	adc.w	r0, r3, r2
 8000e04:	bf08      	it	eq
 8000e06:	f020 0001 	biceq.w	r0, r0, #1
 8000e0a:	4770      	bx	lr
 8000e0c:	f102 0220 	add.w	r2, r2, #32
 8000e10:	fa01 fc02 	lsl.w	ip, r1, r2
 8000e14:	f1c2 0220 	rsb	r2, r2, #32
 8000e18:	ea50 004c 	orrs.w	r0, r0, ip, lsl #1
 8000e1c:	fa21 f202 	lsr.w	r2, r1, r2
 8000e20:	eb43 0002 	adc.w	r0, r3, r2
 8000e24:	bf08      	it	eq
 8000e26:	ea20 70dc 	biceq.w	r0, r0, ip, lsr #31
 8000e2a:	4770      	bx	lr

08000e2c <SystemInit>:
  * @note   This function should be used only after reset.
  * @param  None
  * @retval None
  */
void SystemInit (void)
{
 8000e2c:	b480      	push	{r7}
 8000e2e:	af00      	add	r7, sp, #0

  /* Configure the Vector Table location -------------------------------------*/
#if defined(USER_VECT_TAB_ADDRESS)
  SCB->VTOR = VECT_TAB_BASE_ADDRESS | VECT_TAB_OFFSET; /* Vector Table Relocation in Internal SRAM. */
#endif /* USER_VECT_TAB_ADDRESS */
}
 8000e30:	bf00      	nop
 8000e32:	46bd      	mov	sp, r7
 8000e34:	bc80      	pop	{r7}
 8000e36:	4770      	bx	lr

08000e38 <init_GPIO_for_I2C>:
#include "TH02.h"
uint8_t start_state = 0;

void init_GPIO_for_I2C() {
 8000e38:	b480      	push	{r7}
 8000e3a:	af00      	add	r7, sp, #0
	RCC->APB2ENR |= RCC_APB2ENR_IOPBEN;
 8000e3c:	4b0d      	ldr	r3, [pc, #52]	@ (8000e74 <init_GPIO_for_I2C+0x3c>)
 8000e3e:	699b      	ldr	r3, [r3, #24]
 8000e40:	4a0c      	ldr	r2, [pc, #48]	@ (8000e74 <init_GPIO_for_I2C+0x3c>)
 8000e42:	f043 0308 	orr.w	r3, r3, #8
 8000e46:	6193      	str	r3, [r2, #24]
	GPIOB->CRL &= ~GPIO_CRL_CNF6;
 8000e48:	4b0b      	ldr	r3, [pc, #44]	@ (8000e78 <init_GPIO_for_I2C+0x40>)
 8000e4a:	681b      	ldr	r3, [r3, #0]
 8000e4c:	4a0a      	ldr	r2, [pc, #40]	@ (8000e78 <init_GPIO_for_I2C+0x40>)
 8000e4e:	f023 6340 	bic.w	r3, r3, #201326592	@ 0xc000000
 8000e52:	6013      	str	r3, [r2, #0]
	GPIOB->CRL &= ~GPIO_CRL_CNF7;
 8000e54:	4b08      	ldr	r3, [pc, #32]	@ (8000e78 <init_GPIO_for_I2C+0x40>)
 8000e56:	681b      	ldr	r3, [r3, #0]
 8000e58:	4a07      	ldr	r2, [pc, #28]	@ (8000e78 <init_GPIO_for_I2C+0x40>)
 8000e5a:	f023 4340 	bic.w	r3, r3, #3221225472	@ 0xc0000000
 8000e5e:	6013      	str	r3, [r2, #0]
	GPIOB->CRL |= GPIO_CRL_MODE6 | GPIO_CRL_MODE7 | GPIO_CRL_CNF6 | GPIO_CRL_CNF7;
 8000e60:	4b05      	ldr	r3, [pc, #20]	@ (8000e78 <init_GPIO_for_I2C+0x40>)
 8000e62:	681b      	ldr	r3, [r3, #0]
 8000e64:	4a04      	ldr	r2, [pc, #16]	@ (8000e78 <init_GPIO_for_I2C+0x40>)
 8000e66:	f043 437f 	orr.w	r3, r3, #4278190080	@ 0xff000000
 8000e6a:	6013      	str	r3, [r2, #0]
}
 8000e6c:	bf00      	nop
 8000e6e:	46bd      	mov	sp, r7
 8000e70:	bc80      	pop	{r7}
 8000e72:	4770      	bx	lr
 8000e74:	40021000 	.word	0x40021000
 8000e78:	40010c00 	.word	0x40010c00

08000e7c <I2C_for_TH_init>:

void I2C_for_TH_init() {
 8000e7c:	b580      	push	{r7, lr}
 8000e7e:	af00      	add	r7, sp, #0
	init_GPIO_for_I2C();
 8000e80:	f7ff ffda 	bl	8000e38 <init_GPIO_for_I2C>

	RCC->APB1ENR |= RCC_APB1ENR_I2C1EN;
 8000e84:	4b1c      	ldr	r3, [pc, #112]	@ (8000ef8 <I2C_for_TH_init+0x7c>)
 8000e86:	69db      	ldr	r3, [r3, #28]
 8000e88:	4a1b      	ldr	r2, [pc, #108]	@ (8000ef8 <I2C_for_TH_init+0x7c>)
 8000e8a:	f443 1300 	orr.w	r3, r3, #2097152	@ 0x200000
 8000e8e:	61d3      	str	r3, [r2, #28]
	I2C1->OAR2 &= ~I2C_OAR2_ENDUAL;
 8000e90:	4b1a      	ldr	r3, [pc, #104]	@ (8000efc <I2C_for_TH_init+0x80>)
 8000e92:	68db      	ldr	r3, [r3, #12]
 8000e94:	4a19      	ldr	r2, [pc, #100]	@ (8000efc <I2C_for_TH_init+0x80>)
 8000e96:	f023 0301 	bic.w	r3, r3, #1
 8000e9a:	60d3      	str	r3, [r2, #12]
	I2C1->CR1 &= ~I2C_CR1_ENGC;
 8000e9c:	4b17      	ldr	r3, [pc, #92]	@ (8000efc <I2C_for_TH_init+0x80>)
 8000e9e:	681b      	ldr	r3, [r3, #0]
 8000ea0:	4a16      	ldr	r2, [pc, #88]	@ (8000efc <I2C_for_TH_init+0x80>)
 8000ea2:	f023 0340 	bic.w	r3, r3, #64	@ 0x40
 8000ea6:	6013      	str	r3, [r2, #0]
	I2C1->CR1 &= ~I2C_CR1_NOSTRETCH;
 8000ea8:	4b14      	ldr	r3, [pc, #80]	@ (8000efc <I2C_for_TH_init+0x80>)
 8000eaa:	681b      	ldr	r3, [r3, #0]
 8000eac:	4a13      	ldr	r2, [pc, #76]	@ (8000efc <I2C_for_TH_init+0x80>)
 8000eae:	f023 0380 	bic.w	r3, r3, #128	@ 0x80
 8000eb2:	6013      	str	r3, [r2, #0]
	I2C1->CR1 &= ~I2C_CR1_PE;
 8000eb4:	4b11      	ldr	r3, [pc, #68]	@ (8000efc <I2C_for_TH_init+0x80>)
 8000eb6:	681b      	ldr	r3, [r3, #0]
 8000eb8:	4a10      	ldr	r2, [pc, #64]	@ (8000efc <I2C_for_TH_init+0x80>)
 8000eba:	f023 0301 	bic.w	r3, r3, #1
 8000ebe:	6013      	str	r3, [r2, #0]

	I2C1->CR2 = I2C_CR2_FREQ_3; //8
 8000ec0:	4b0e      	ldr	r3, [pc, #56]	@ (8000efc <I2C_for_TH_init+0x80>)
 8000ec2:	2208      	movs	r2, #8
 8000ec4:	605a      	str	r2, [r3, #4]
	I2C1->CCR |= 0x28;
 8000ec6:	4b0d      	ldr	r3, [pc, #52]	@ (8000efc <I2C_for_TH_init+0x80>)
 8000ec8:	69db      	ldr	r3, [r3, #28]
 8000eca:	4a0c      	ldr	r2, [pc, #48]	@ (8000efc <I2C_for_TH_init+0x80>)
 8000ecc:	f043 0328 	orr.w	r3, r3, #40	@ 0x28
 8000ed0:	61d3      	str	r3, [r2, #28]
	I2C1->TRISE |= 0x0009;
 8000ed2:	4b0a      	ldr	r3, [pc, #40]	@ (8000efc <I2C_for_TH_init+0x80>)
 8000ed4:	6a1b      	ldr	r3, [r3, #32]
 8000ed6:	4a09      	ldr	r2, [pc, #36]	@ (8000efc <I2C_for_TH_init+0x80>)
 8000ed8:	f043 0309 	orr.w	r3, r3, #9
 8000edc:	6213      	str	r3, [r2, #32]
	I2C1->CR1 |= 0x00000000;
 8000ede:	4b07      	ldr	r3, [pc, #28]	@ (8000efc <I2C_for_TH_init+0x80>)
 8000ee0:	4a06      	ldr	r2, [pc, #24]	@ (8000efc <I2C_for_TH_init+0x80>)
 8000ee2:	681b      	ldr	r3, [r3, #0]
 8000ee4:	6013      	str	r3, [r2, #0]
	I2C1->CR1 |= I2C_CR1_PE;
 8000ee6:	4b05      	ldr	r3, [pc, #20]	@ (8000efc <I2C_for_TH_init+0x80>)
 8000ee8:	681b      	ldr	r3, [r3, #0]
 8000eea:	4a04      	ldr	r2, [pc, #16]	@ (8000efc <I2C_for_TH_init+0x80>)
 8000eec:	f043 0301 	orr.w	r3, r3, #1
 8000ef0:	6013      	str	r3, [r2, #0]
}
 8000ef2:	bf00      	nop
 8000ef4:	bd80      	pop	{r7, pc}
 8000ef6:	bf00      	nop
 8000ef8:	40021000 	.word	0x40021000
 8000efc:	40005400 	.word	0x40005400

08000f00 <I2C_TH_Send_NBytes>:
	I2C1->DR= byte;
	while((I2C1->SR1 & I2C_SR1_TXE) != I2C_SR1_TXE);
	I2C1->CR1 |= I2C_CR1_STOP;
}

void I2C_TH_Send_NBytes(uint8_t addr, uint8_t *data, uint8_t size) {
 8000f00:	b480      	push	{r7}
 8000f02:	b085      	sub	sp, #20
 8000f04:	af00      	add	r7, sp, #0
 8000f06:	4603      	mov	r3, r0
 8000f08:	6039      	str	r1, [r7, #0]
 8000f0a:	71fb      	strb	r3, [r7, #7]
 8000f0c:	4613      	mov	r3, r2
 8000f0e:	71bb      	strb	r3, [r7, #6]
	I2C1->CR1 |= I2C_CR1_ACK;
 8000f10:	4b22      	ldr	r3, [pc, #136]	@ (8000f9c <I2C_TH_Send_NBytes+0x9c>)
 8000f12:	681b      	ldr	r3, [r3, #0]
 8000f14:	4a21      	ldr	r2, [pc, #132]	@ (8000f9c <I2C_TH_Send_NBytes+0x9c>)
 8000f16:	f443 6380 	orr.w	r3, r3, #1024	@ 0x400
 8000f1a:	6013      	str	r3, [r2, #0]
	I2C1->CR1 |= I2C_CR1_START;
 8000f1c:	4b1f      	ldr	r3, [pc, #124]	@ (8000f9c <I2C_TH_Send_NBytes+0x9c>)
 8000f1e:	681b      	ldr	r3, [r3, #0]
 8000f20:	4a1e      	ldr	r2, [pc, #120]	@ (8000f9c <I2C_TH_Send_NBytes+0x9c>)
 8000f22:	f443 7380 	orr.w	r3, r3, #256	@ 0x100
 8000f26:	6013      	str	r3, [r2, #0]
	while((I2C1->SR1 & I2C_SR1_SB) != I2C_SR1_SB);
 8000f28:	bf00      	nop
 8000f2a:	4b1c      	ldr	r3, [pc, #112]	@ (8000f9c <I2C_TH_Send_NBytes+0x9c>)
 8000f2c:	695b      	ldr	r3, [r3, #20]
 8000f2e:	f003 0301 	and.w	r3, r3, #1
 8000f32:	2b01      	cmp	r3, #1
 8000f34:	d1f9      	bne.n	8000f2a <I2C_TH_Send_NBytes+0x2a>
	(void) I2C1->SR1;
 8000f36:	4b19      	ldr	r3, [pc, #100]	@ (8000f9c <I2C_TH_Send_NBytes+0x9c>)
 8000f38:	695b      	ldr	r3, [r3, #20]
	I2C1->DR = (addr) | 0x00;
 8000f3a:	4a18      	ldr	r2, [pc, #96]	@ (8000f9c <I2C_TH_Send_NBytes+0x9c>)
 8000f3c:	79fb      	ldrb	r3, [r7, #7]
 8000f3e:	6113      	str	r3, [r2, #16]
	while((I2C1->SR1 & I2C_SR1_ADDR) != I2C_SR1_ADDR);
 8000f40:	bf00      	nop
 8000f42:	4b16      	ldr	r3, [pc, #88]	@ (8000f9c <I2C_TH_Send_NBytes+0x9c>)
 8000f44:	695b      	ldr	r3, [r3, #20]
 8000f46:	f003 0302 	and.w	r3, r3, #2
 8000f4a:	2b02      	cmp	r3, #2
 8000f4c:	d1f9      	bne.n	8000f42 <I2C_TH_Send_NBytes+0x42>
	(void) I2C1->SR1;  // clear ADDR
 8000f4e:	4b13      	ldr	r3, [pc, #76]	@ (8000f9c <I2C_TH_Send_NBytes+0x9c>)
 8000f50:	695b      	ldr	r3, [r3, #20]
	(void) I2C1->SR2;  // clear ADDR
 8000f52:	4b12      	ldr	r3, [pc, #72]	@ (8000f9c <I2C_TH_Send_NBytes+0x9c>)
 8000f54:	699b      	ldr	r3, [r3, #24]
	for (uint8_t i = 0; i < size; i++)
 8000f56:	2300      	movs	r3, #0
 8000f58:	73fb      	strb	r3, [r7, #15]
 8000f5a:	e00f      	b.n	8000f7c <I2C_TH_Send_NBytes+0x7c>
	{
		I2C1->DR = data[i];
 8000f5c:	7bfb      	ldrb	r3, [r7, #15]
 8000f5e:	683a      	ldr	r2, [r7, #0]
 8000f60:	4413      	add	r3, r2
 8000f62:	781a      	ldrb	r2, [r3, #0]
 8000f64:	4b0d      	ldr	r3, [pc, #52]	@ (8000f9c <I2C_TH_Send_NBytes+0x9c>)
 8000f66:	611a      	str	r2, [r3, #16]
		while((I2C1->SR1 & I2C_SR1_TXE) != I2C_SR1_TXE);
 8000f68:	bf00      	nop
 8000f6a:	4b0c      	ldr	r3, [pc, #48]	@ (8000f9c <I2C_TH_Send_NBytes+0x9c>)
 8000f6c:	695b      	ldr	r3, [r3, #20]
 8000f6e:	f003 0380 	and.w	r3, r3, #128	@ 0x80
 8000f72:	2b80      	cmp	r3, #128	@ 0x80
 8000f74:	d1f9      	bne.n	8000f6a <I2C_TH_Send_NBytes+0x6a>
	for (uint8_t i = 0; i < size; i++)
 8000f76:	7bfb      	ldrb	r3, [r7, #15]
 8000f78:	3301      	adds	r3, #1
 8000f7a:	73fb      	strb	r3, [r7, #15]
 8000f7c:	7bfa      	ldrb	r2, [r7, #15]
 8000f7e:	79bb      	ldrb	r3, [r7, #6]
 8000f80:	429a      	cmp	r2, r3
 8000f82:	d3eb      	bcc.n	8000f5c <I2C_TH_Send_NBytes+0x5c>
	}

	I2C1->CR1 |= I2C_CR1_STOP;
 8000f84:	4b05      	ldr	r3, [pc, #20]	@ (8000f9c <I2C_TH_Send_NBytes+0x9c>)
 8000f86:	681b      	ldr	r3, [r3, #0]
 8000f88:	4a04      	ldr	r2, [pc, #16]	@ (8000f9c <I2C_TH_Send_NBytes+0x9c>)
 8000f8a:	f443 7300 	orr.w	r3, r3, #512	@ 0x200
 8000f8e:	6013      	str	r3, [r2, #0]
}
 8000f90:	bf00      	nop
 8000f92:	3714      	adds	r7, #20
 8000f94:	46bd      	mov	sp, r7
 8000f96:	bc80      	pop	{r7}
 8000f98:	4770      	bx	lr
 8000f9a:	bf00      	nop
 8000f9c:	40005400 	.word	0x40005400

08000fa0 <I2C_Get_Data>:


void I2C_Get_Data(uint8_t addr, uint8_t *data, uint8_t size) {
 8000fa0:	b480      	push	{r7}
 8000fa2:	b085      	sub	sp, #20
 8000fa4:	af00      	add	r7, sp, #0
 8000fa6:	4603      	mov	r3, r0
 8000fa8:	6039      	str	r1, [r7, #0]
 8000faa:	71fb      	strb	r3, [r7, #7]
 8000fac:	4613      	mov	r3, r2
 8000fae:	71bb      	strb	r3, [r7, #6]
	while((I2C1->SR2 & I2C_SR2_BUSY) == I2C_SR2_BUSY);
 8000fb0:	bf00      	nop
 8000fb2:	4b33      	ldr	r3, [pc, #204]	@ (8001080 <I2C_Get_Data+0xe0>)
 8000fb4:	699b      	ldr	r3, [r3, #24]
 8000fb6:	f003 0302 	and.w	r3, r3, #2
 8000fba:	2b02      	cmp	r3, #2
 8000fbc:	d0f9      	beq.n	8000fb2 <I2C_Get_Data+0x12>
	I2C1->CR1 |= I2C_CR1_ACK;
 8000fbe:	4b30      	ldr	r3, [pc, #192]	@ (8001080 <I2C_Get_Data+0xe0>)
 8000fc0:	681b      	ldr	r3, [r3, #0]
 8000fc2:	4a2f      	ldr	r2, [pc, #188]	@ (8001080 <I2C_Get_Data+0xe0>)
 8000fc4:	f443 6380 	orr.w	r3, r3, #1024	@ 0x400
 8000fc8:	6013      	str	r3, [r2, #0]
	I2C1->CR1 |= I2C_CR1_START;
 8000fca:	4b2d      	ldr	r3, [pc, #180]	@ (8001080 <I2C_Get_Data+0xe0>)
 8000fcc:	681b      	ldr	r3, [r3, #0]
 8000fce:	4a2c      	ldr	r2, [pc, #176]	@ (8001080 <I2C_Get_Data+0xe0>)
 8000fd0:	f443 7380 	orr.w	r3, r3, #256	@ 0x100
 8000fd4:	6013      	str	r3, [r2, #0]
	while((I2C1->SR1 & I2C_SR1_SB) != I2C_SR1_SB);
 8000fd6:	bf00      	nop
 8000fd8:	4b29      	ldr	r3, [pc, #164]	@ (8001080 <I2C_Get_Data+0xe0>)
 8000fda:	695b      	ldr	r3, [r3, #20]
 8000fdc:	f003 0301 	and.w	r3, r3, #1
 8000fe0:	2b01      	cmp	r3, #1
 8000fe2:	d1f9      	bne.n	8000fd8 <I2C_Get_Data+0x38>
	(void) I2C1->SR1;
 8000fe4:	4b26      	ldr	r3, [pc, #152]	@ (8001080 <I2C_Get_Data+0xe0>)
 8000fe6:	695b      	ldr	r3, [r3, #20]
	I2C1->DR = (addr) | 0x01;
 8000fe8:	79fb      	ldrb	r3, [r7, #7]
 8000fea:	f043 0301 	orr.w	r3, r3, #1
 8000fee:	b2da      	uxtb	r2, r3
 8000ff0:	4b23      	ldr	r3, [pc, #140]	@ (8001080 <I2C_Get_Data+0xe0>)
 8000ff2:	611a      	str	r2, [r3, #16]
	while((I2C1->SR1 & I2C_SR1_ADDR) != I2C_SR1_ADDR);
 8000ff4:	bf00      	nop
 8000ff6:	4b22      	ldr	r3, [pc, #136]	@ (8001080 <I2C_Get_Data+0xe0>)
 8000ff8:	695b      	ldr	r3, [r3, #20]
 8000ffa:	f003 0302 	and.w	r3, r3, #2
 8000ffe:	2b02      	cmp	r3, #2
 8001000:	d1f9      	bne.n	8000ff6 <I2C_Get_Data+0x56>
	(void) I2C1->SR1;  // clear ADDR
 8001002:	4b1f      	ldr	r3, [pc, #124]	@ (8001080 <I2C_Get_Data+0xe0>)
 8001004:	695b      	ldr	r3, [r3, #20]
	(void) I2C1->SR2;  // clear ADDR
 8001006:	4b1e      	ldr	r3, [pc, #120]	@ (8001080 <I2C_Get_Data+0xe0>)
 8001008:	699b      	ldr	r3, [r3, #24]
	for(int i = 0;i < 6; i++)
 800100a:	2300      	movs	r3, #0
 800100c:	60fb      	str	r3, [r7, #12]
 800100e:	e02e      	b.n	800106e <I2C_Get_Data+0xce>
  {
    if(i < 5)
 8001010:	68fb      	ldr	r3, [r7, #12]
 8001012:	2b04      	cmp	r3, #4
 8001014:	dc0e      	bgt.n	8001034 <I2C_Get_Data+0x94>
    {
      while (!READ_BIT(I2C1->SR1, I2C_SR1_RXNE)){}
 8001016:	bf00      	nop
 8001018:	4b19      	ldr	r3, [pc, #100]	@ (8001080 <I2C_Get_Data+0xe0>)
 800101a:	695b      	ldr	r3, [r3, #20]
 800101c:	f003 0340 	and.w	r3, r3, #64	@ 0x40
 8001020:	2b00      	cmp	r3, #0
 8001022:	d0f9      	beq.n	8001018 <I2C_Get_Data+0x78>
      data[i] = I2C1->DR & 0xFF;
 8001024:	4b16      	ldr	r3, [pc, #88]	@ (8001080 <I2C_Get_Data+0xe0>)
 8001026:	6919      	ldr	r1, [r3, #16]
 8001028:	68fb      	ldr	r3, [r7, #12]
 800102a:	683a      	ldr	r2, [r7, #0]
 800102c:	4413      	add	r3, r2
 800102e:	b2ca      	uxtb	r2, r1
 8001030:	701a      	strb	r2, [r3, #0]
 8001032:	e019      	b.n	8001068 <I2C_Get_Data+0xc8>
    }
    else
    {
			I2C1->CR1 &= ~I2C_CR1_ACK;
 8001034:	4b12      	ldr	r3, [pc, #72]	@ (8001080 <I2C_Get_Data+0xe0>)
 8001036:	681b      	ldr	r3, [r3, #0]
 8001038:	4a11      	ldr	r2, [pc, #68]	@ (8001080 <I2C_Get_Data+0xe0>)
 800103a:	f423 6380 	bic.w	r3, r3, #1024	@ 0x400
 800103e:	6013      	str	r3, [r2, #0]
			I2C1->CR1 |= I2C_CR1_STOP;
 8001040:	4b0f      	ldr	r3, [pc, #60]	@ (8001080 <I2C_Get_Data+0xe0>)
 8001042:	681b      	ldr	r3, [r3, #0]
 8001044:	4a0e      	ldr	r2, [pc, #56]	@ (8001080 <I2C_Get_Data+0xe0>)
 8001046:	f443 7300 	orr.w	r3, r3, #512	@ 0x200
 800104a:	6013      	str	r3, [r2, #0]
      while (!READ_BIT(I2C1->SR1, I2C_SR1_RXNE)){}
 800104c:	bf00      	nop
 800104e:	4b0c      	ldr	r3, [pc, #48]	@ (8001080 <I2C_Get_Data+0xe0>)
 8001050:	695b      	ldr	r3, [r3, #20]
 8001052:	f003 0340 	and.w	r3, r3, #64	@ 0x40
 8001056:	2b00      	cmp	r3, #0
 8001058:	d0f9      	beq.n	800104e <I2C_Get_Data+0xae>
			data[i] = I2C1->DR & 0xFF;
 800105a:	4b09      	ldr	r3, [pc, #36]	@ (8001080 <I2C_Get_Data+0xe0>)
 800105c:	6919      	ldr	r1, [r3, #16]
 800105e:	68fb      	ldr	r3, [r7, #12]
 8001060:	683a      	ldr	r2, [r7, #0]
 8001062:	4413      	add	r3, r2
 8001064:	b2ca      	uxtb	r2, r1
 8001066:	701a      	strb	r2, [r3, #0]
	for(int i = 0;i < 6; i++)
 8001068:	68fb      	ldr	r3, [r7, #12]
 800106a:	3301      	adds	r3, #1
 800106c:	60fb      	str	r3, [r7, #12]
 800106e:	68fb      	ldr	r3, [r7, #12]
 8001070:	2b05      	cmp	r3, #5
 8001072:	ddcd      	ble.n	8001010 <I2C_Get_Data+0x70>
    }
	}
}
 8001074:	bf00      	nop
 8001076:	bf00      	nop
 8001078:	3714      	adds	r7, #20
 800107a:	46bd      	mov	sp, r7
 800107c:	bc80      	pop	{r7}
 800107e:	4770      	bx	lr
 8001080:	40005400 	.word	0x40005400

08001084 <TH_measure_temperature>:

void TH_measure_temperature() {
 8001084:	b580      	push	{r7, lr}
 8001086:	b084      	sub	sp, #16
 8001088:	af00      	add	r7, sp, #0
	if(start_state == 0) {
 800108a:	4b15      	ldr	r3, [pc, #84]	@ (80010e0 <TH_measure_temperature+0x5c>)
 800108c:	781b      	ldrb	r3, [r3, #0]
 800108e:	2b00      	cmp	r3, #0
 8001090:	d10d      	bne.n	80010ae <TH_measure_temperature+0x2a>
		uint8_t data[2] = {0x03, 0x11};
 8001092:	f241 1303 	movw	r3, #4355	@ 0x1103
 8001096:	81bb      	strh	r3, [r7, #12]
		I2C_TH_Send_NBytes(TH_ADDRESS, &data[0], 2);
 8001098:	f107 030c 	add.w	r3, r7, #12
 800109c:	2202      	movs	r2, #2
 800109e:	4619      	mov	r1, r3
 80010a0:	2040      	movs	r0, #64	@ 0x40
 80010a2:	f7ff ff2d 	bl	8000f00 <I2C_TH_Send_NBytes>
		start_state = 1;
 80010a6:	4b0e      	ldr	r3, [pc, #56]	@ (80010e0 <TH_measure_temperature+0x5c>)
 80010a8:	2201      	movs	r2, #1
 80010aa:	701a      	strb	r2, [r3, #0]
 80010ac:	e015      	b.n	80010da <TH_measure_temperature+0x56>
		return;
	}

	if(start_state == 1) {
 80010ae:	4b0c      	ldr	r3, [pc, #48]	@ (80010e0 <TH_measure_temperature+0x5c>)
 80010b0:	781b      	ldrb	r3, [r3, #0]
 80010b2:	2b01      	cmp	r3, #1
 80010b4:	d111      	bne.n	80010da <TH_measure_temperature+0x56>
		uint8_t data[1] = {0x01};
 80010b6:	2301      	movs	r3, #1
 80010b8:	723b      	strb	r3, [r7, #8]
		I2C_TH_Send_NBytes(TH_ADDRESS, &data[0], 1);
 80010ba:	f107 0308 	add.w	r3, r7, #8
 80010be:	2201      	movs	r2, #1
 80010c0:	4619      	mov	r1, r3
 80010c2:	2040      	movs	r0, #64	@ 0x40
 80010c4:	f7ff ff1c 	bl	8000f00 <I2C_TH_Send_NBytes>
		uint8_t result[2];
		I2C_Get_Data(TH_ADDRESS, &(result[0]), 2);
 80010c8:	1d3b      	adds	r3, r7, #4
 80010ca:	2202      	movs	r2, #2
 80010cc:	4619      	mov	r1, r3
 80010ce:	2040      	movs	r0, #64	@ 0x40
 80010d0:	f7ff ff66 	bl	8000fa0 <I2C_Get_Data>
		//float buffer = (((uint32_t)result[3] & 15) << 16) | ((uint32_t)result[4] << 8) | result[5];
		//float temperature = (float)(buffer * 200.00 / 1048576.00) - 50.00;
		start_state = 0;
 80010d4:	4b02      	ldr	r3, [pc, #8]	@ (80010e0 <TH_measure_temperature+0x5c>)
 80010d6:	2200      	movs	r2, #0
 80010d8:	701a      	strb	r2, [r3, #0]
	}
}
 80010da:	3710      	adds	r7, #16
 80010dc:	46bd      	mov	sp, r7
 80010de:	bd80      	pop	{r7, pc}
 80010e0:	200001f4 	.word	0x200001f4

080010e4 <__NVIC_EnableIRQ>:
  \details Enables a device specific interrupt in the NVIC interrupt controller.
  \param [in]      IRQn  Device specific interrupt number.
  \note    IRQn must not be negative.
 */
__STATIC_INLINE void __NVIC_EnableIRQ(IRQn_Type IRQn)
{
 80010e4:	b480      	push	{r7}
 80010e6:	b083      	sub	sp, #12
 80010e8:	af00      	add	r7, sp, #0
 80010ea:	4603      	mov	r3, r0
 80010ec:	71fb      	strb	r3, [r7, #7]
  if ((int32_t)(IRQn) >= 0)
 80010ee:	f997 3007 	ldrsb.w	r3, [r7, #7]
 80010f2:	2b00      	cmp	r3, #0
 80010f4:	db0b      	blt.n	800110e <__NVIC_EnableIRQ+0x2a>
  {
    NVIC->ISER[(((uint32_t)IRQn) >> 5UL)] = (uint32_t)(1UL << (((uint32_t)IRQn) & 0x1FUL));
 80010f6:	79fb      	ldrb	r3, [r7, #7]
 80010f8:	f003 021f 	and.w	r2, r3, #31
 80010fc:	4906      	ldr	r1, [pc, #24]	@ (8001118 <__NVIC_EnableIRQ+0x34>)
 80010fe:	f997 3007 	ldrsb.w	r3, [r7, #7]
 8001102:	095b      	lsrs	r3, r3, #5
 8001104:	2001      	movs	r0, #1
 8001106:	fa00 f202 	lsl.w	r2, r0, r2
 800110a:	f841 2023 	str.w	r2, [r1, r3, lsl #2]
  }
}
 800110e:	bf00      	nop
 8001110:	370c      	adds	r7, #12
 8001112:	46bd      	mov	sp, r7
 8001114:	bc80      	pop	{r7}
 8001116:	4770      	bx	lr
 8001118:	e000e100 	.word	0xe000e100

0800111c <__NVIC_SetPriority>:
  \param [in]      IRQn  Interrupt number.
  \param [in]  priority  Priority to set.
  \note    The priority cannot be set for every processor exception.
 */
__STATIC_INLINE void __NVIC_SetPriority(IRQn_Type IRQn, uint32_t priority)
{
 800111c:	b480      	push	{r7}
 800111e:	b083      	sub	sp, #12
 8001120:	af00      	add	r7, sp, #0
 8001122:	4603      	mov	r3, r0
 8001124:	6039      	str	r1, [r7, #0]
 8001126:	71fb      	strb	r3, [r7, #7]
  if ((int32_t)(IRQn) >= 0)
 8001128:	f997 3007 	ldrsb.w	r3, [r7, #7]
 800112c:	2b00      	cmp	r3, #0
 800112e:	db0a      	blt.n	8001146 <__NVIC_SetPriority+0x2a>
  {
    NVIC->IP[((uint32_t)IRQn)]               = (uint8_t)((priority << (8U - __NVIC_PRIO_BITS)) & (uint32_t)0xFFUL);
 8001130:	683b      	ldr	r3, [r7, #0]
 8001132:	b2da      	uxtb	r2, r3
 8001134:	490c      	ldr	r1, [pc, #48]	@ (8001168 <__NVIC_SetPriority+0x4c>)
 8001136:	f997 3007 	ldrsb.w	r3, [r7, #7]
 800113a:	0112      	lsls	r2, r2, #4
 800113c:	b2d2      	uxtb	r2, r2
 800113e:	440b      	add	r3, r1
 8001140:	f883 2300 	strb.w	r2, [r3, #768]	@ 0x300
  }
  else
  {
    SCB->SHP[(((uint32_t)IRQn) & 0xFUL)-4UL] = (uint8_t)((priority << (8U - __NVIC_PRIO_BITS)) & (uint32_t)0xFFUL);
  }
}
 8001144:	e00a      	b.n	800115c <__NVIC_SetPriority+0x40>
    SCB->SHP[(((uint32_t)IRQn) & 0xFUL)-4UL] = (uint8_t)((priority << (8U - __NVIC_PRIO_BITS)) & (uint32_t)0xFFUL);
 8001146:	683b      	ldr	r3, [r7, #0]
 8001148:	b2da      	uxtb	r2, r3
 800114a:	4908      	ldr	r1, [pc, #32]	@ (800116c <__NVIC_SetPriority+0x50>)
 800114c:	79fb      	ldrb	r3, [r7, #7]
 800114e:	f003 030f 	and.w	r3, r3, #15
 8001152:	3b04      	subs	r3, #4
 8001154:	0112      	lsls	r2, r2, #4
 8001156:	b2d2      	uxtb	r2, r2
 8001158:	440b      	add	r3, r1
 800115a:	761a      	strb	r2, [r3, #24]
}
 800115c:	bf00      	nop
 800115e:	370c      	adds	r7, #12
 8001160:	46bd      	mov	sp, r7
 8001162:	bc80      	pop	{r7}
 8001164:	4770      	bx	lr
 8001166:	bf00      	nop
 8001168:	e000e100 	.word	0xe000e100
 800116c:	e000ed00 	.word	0xe000ed00

08001170 <DMA1_Channel4_IRQHandler>:
#include "UART_for_PC.h"

uint8_t UART_tx_buf[] = "Comitas\r\n";


void DMA1_Channel4_IRQHandler(void) {
 8001170:	b480      	push	{r7}
 8001172:	af00      	add	r7, sp, #0
	DMA1->IFCR |= DMA_IFCR_CTCIF4;
 8001174:	4b07      	ldr	r3, [pc, #28]	@ (8001194 <DMA1_Channel4_IRQHandler+0x24>)
 8001176:	685b      	ldr	r3, [r3, #4]
 8001178:	4a06      	ldr	r2, [pc, #24]	@ (8001194 <DMA1_Channel4_IRQHandler+0x24>)
 800117a:	f443 5300 	orr.w	r3, r3, #8192	@ 0x2000
 800117e:	6053      	str	r3, [r2, #4]
	DMA1_Channel4->CCR &= ~DMA_CCR_EN;
 8001180:	4b05      	ldr	r3, [pc, #20]	@ (8001198 <DMA1_Channel4_IRQHandler+0x28>)
 8001182:	681b      	ldr	r3, [r3, #0]
 8001184:	4a04      	ldr	r2, [pc, #16]	@ (8001198 <DMA1_Channel4_IRQHandler+0x28>)
 8001186:	f023 0301 	bic.w	r3, r3, #1
 800118a:	6013      	str	r3, [r2, #0]
}
 800118c:	bf00      	nop
 800118e:	46bd      	mov	sp, r7
 8001190:	bc80      	pop	{r7}
 8001192:	4770      	bx	lr
 8001194:	40020000 	.word	0x40020000
 8001198:	40020044 	.word	0x40020044

0800119c <init_GPIO_for_USART>:

void init_GPIO_for_USART() {
 800119c:	b480      	push	{r7}
 800119e:	af00      	add	r7, sp, #0
	RCC->APB2ENR |= RCC_APB2ENR_IOPAEN;
 80011a0:	4b07      	ldr	r3, [pc, #28]	@ (80011c0 <init_GPIO_for_USART+0x24>)
 80011a2:	699b      	ldr	r3, [r3, #24]
 80011a4:	4a06      	ldr	r2, [pc, #24]	@ (80011c0 <init_GPIO_for_USART+0x24>)
 80011a6:	f043 0304 	orr.w	r3, r3, #4
 80011aa:	6193      	str	r3, [r2, #24]
	GPIOA->CRH |= GPIO_CRH_MODE9 | GPIO_CRH_CNF9_1;
 80011ac:	4b05      	ldr	r3, [pc, #20]	@ (80011c4 <init_GPIO_for_USART+0x28>)
 80011ae:	685b      	ldr	r3, [r3, #4]
 80011b0:	4a04      	ldr	r2, [pc, #16]	@ (80011c4 <init_GPIO_for_USART+0x28>)
 80011b2:	f043 03b0 	orr.w	r3, r3, #176	@ 0xb0
 80011b6:	6053      	str	r3, [r2, #4]
}
 80011b8:	bf00      	nop
 80011ba:	46bd      	mov	sp, r7
 80011bc:	bc80      	pop	{r7}
 80011be:	4770      	bx	lr
 80011c0:	40021000 	.word	0x40021000
 80011c4:	40010800 	.word	0x40010800

080011c8 <init_USART>:

void init_USART() {
 80011c8:	b580      	push	{r7, lr}
 80011ca:	af00      	add	r7, sp, #0
	init_GPIO_for_USART();
 80011cc:	f7ff ffe6 	bl	800119c <init_GPIO_for_USART>
	init_DMA_for_USART();
 80011d0:	f000 f82a 	bl	8001228 <init_DMA_for_USART>

	RCC->APB2ENR |= RCC_APB2ENR_USART1EN;
 80011d4:	4b10      	ldr	r3, [pc, #64]	@ (8001218 <init_USART+0x50>)
 80011d6:	699b      	ldr	r3, [r3, #24]
 80011d8:	4a0f      	ldr	r2, [pc, #60]	@ (8001218 <init_USART+0x50>)
 80011da:	f443 4380 	orr.w	r3, r3, #16384	@ 0x4000
 80011de:	6193      	str	r3, [r2, #24]
	USART1->CR1 |= USART_CR1_TE;
 80011e0:	4b0e      	ldr	r3, [pc, #56]	@ (800121c <init_USART+0x54>)
 80011e2:	68db      	ldr	r3, [r3, #12]
 80011e4:	4a0d      	ldr	r2, [pc, #52]	@ (800121c <init_USART+0x54>)
 80011e6:	f043 0308 	orr.w	r3, r3, #8
 80011ea:	60d3      	str	r3, [r2, #12]
	USART1->BRR = SystemCoreClock / 115200;
 80011ec:	4b0c      	ldr	r3, [pc, #48]	@ (8001220 <init_USART+0x58>)
 80011ee:	681b      	ldr	r3, [r3, #0]
 80011f0:	4a0a      	ldr	r2, [pc, #40]	@ (800121c <init_USART+0x54>)
 80011f2:	490c      	ldr	r1, [pc, #48]	@ (8001224 <init_USART+0x5c>)
 80011f4:	fba1 1303 	umull	r1, r3, r1, r3
 80011f8:	0c1b      	lsrs	r3, r3, #16
 80011fa:	6093      	str	r3, [r2, #8]
	USART1->CR3 |= USART_CR3_DMAT;
 80011fc:	4b07      	ldr	r3, [pc, #28]	@ (800121c <init_USART+0x54>)
 80011fe:	695b      	ldr	r3, [r3, #20]
 8001200:	4a06      	ldr	r2, [pc, #24]	@ (800121c <init_USART+0x54>)
 8001202:	f043 0380 	orr.w	r3, r3, #128	@ 0x80
 8001206:	6153      	str	r3, [r2, #20]
	USART1->CR1 |= USART_CR1_UE;
 8001208:	4b04      	ldr	r3, [pc, #16]	@ (800121c <init_USART+0x54>)
 800120a:	68db      	ldr	r3, [r3, #12]
 800120c:	4a03      	ldr	r2, [pc, #12]	@ (800121c <init_USART+0x54>)
 800120e:	f443 5300 	orr.w	r3, r3, #8192	@ 0x2000
 8001212:	60d3      	str	r3, [r2, #12]
}
 8001214:	bf00      	nop
 8001216:	bd80      	pop	{r7, pc}
 8001218:	40021000 	.word	0x40021000
 800121c:	40013800 	.word	0x40013800
 8001220:	20000000 	.word	0x20000000
 8001224:	91a2b3c5 	.word	0x91a2b3c5

08001228 <init_DMA_for_USART>:


void init_DMA_for_USART() {
 8001228:	b580      	push	{r7, lr}
 800122a:	af00      	add	r7, sp, #0
	RCC->AHBENR |= RCC_AHBENR_DMA1EN;
 800122c:	4b11      	ldr	r3, [pc, #68]	@ (8001274 <init_DMA_for_USART+0x4c>)
 800122e:	695b      	ldr	r3, [r3, #20]
 8001230:	4a10      	ldr	r2, [pc, #64]	@ (8001274 <init_DMA_for_USART+0x4c>)
 8001232:	f043 0301 	orr.w	r3, r3, #1
 8001236:	6153      	str	r3, [r2, #20]
	//USART TX channel - 4
	DMA1_Channel4->CCR |= DMA_CCR_DIR | DMA_CCR_MINC;
 8001238:	4b0f      	ldr	r3, [pc, #60]	@ (8001278 <init_DMA_for_USART+0x50>)
 800123a:	681b      	ldr	r3, [r3, #0]
 800123c:	4a0e      	ldr	r2, [pc, #56]	@ (8001278 <init_DMA_for_USART+0x50>)
 800123e:	f043 0390 	orr.w	r3, r3, #144	@ 0x90
 8001242:	6013      	str	r3, [r2, #0]
	DMA1_Channel4->CMAR = (uint32_t)(&UART_tx_buf[0]);
 8001244:	4b0c      	ldr	r3, [pc, #48]	@ (8001278 <init_DMA_for_USART+0x50>)
 8001246:	4a0d      	ldr	r2, [pc, #52]	@ (800127c <init_DMA_for_USART+0x54>)
 8001248:	60da      	str	r2, [r3, #12]
	DMA1_Channel4->CPAR = (uint32_t)(&(USART1->DR));
 800124a:	4b0b      	ldr	r3, [pc, #44]	@ (8001278 <init_DMA_for_USART+0x50>)
 800124c:	4a0c      	ldr	r2, [pc, #48]	@ (8001280 <init_DMA_for_USART+0x58>)
 800124e:	609a      	str	r2, [r3, #8]
	DMA1_Channel4->CCR |= DMA_CCR_TCIE;
 8001250:	4b09      	ldr	r3, [pc, #36]	@ (8001278 <init_DMA_for_USART+0x50>)
 8001252:	681b      	ldr	r3, [r3, #0]
 8001254:	4a08      	ldr	r2, [pc, #32]	@ (8001278 <init_DMA_for_USART+0x50>)
 8001256:	f043 0302 	orr.w	r3, r3, #2
 800125a:	6013      	str	r3, [r2, #0]
	DMA1_Channel4->CNDTR = 0;
 800125c:	4b06      	ldr	r3, [pc, #24]	@ (8001278 <init_DMA_for_USART+0x50>)
 800125e:	2200      	movs	r2, #0
 8001260:	605a      	str	r2, [r3, #4]

	NVIC_EnableIRQ(DMA1_Channel4_IRQn);
 8001262:	200e      	movs	r0, #14
 8001264:	f7ff ff3e 	bl	80010e4 <__NVIC_EnableIRQ>
	NVIC_SetPriority(DMA1_Channel4_IRQn, 3);
 8001268:	2103      	movs	r1, #3
 800126a:	200e      	movs	r0, #14
 800126c:	f7ff ff56 	bl	800111c <__NVIC_SetPriority>
}
 8001270:	bf00      	nop
 8001272:	bd80      	pop	{r7, pc}
 8001274:	40021000 	.word	0x40021000
 8001278:	40020044 	.word	0x40020044
 800127c:	20000004 	.word	0x20000004
 8001280:	40013804 	.word	0x40013804

08001284 <UART_send_data>:

void UART_send_data(uint8_t ch8) {
 8001284:	b480      	push	{r7}
 8001286:	b085      	sub	sp, #20
 8001288:	af00      	add	r7, sp, #0
 800128a:	4603      	mov	r3, r0
 800128c:	71fb      	strb	r3, [r7, #7]
	UART_tx_buf[0] = ch8;
 800128e:	4a13      	ldr	r2, [pc, #76]	@ (80012dc <UART_send_data+0x58>)
 8001290:	79fb      	ldrb	r3, [r7, #7]
 8001292:	7013      	strb	r3, [r2, #0]
	DMA1_Channel4->CMAR = (uint32_t)(&UART_tx_buf[0]);
 8001294:	4b12      	ldr	r3, [pc, #72]	@ (80012e0 <UART_send_data+0x5c>)
 8001296:	4a11      	ldr	r2, [pc, #68]	@ (80012dc <UART_send_data+0x58>)
 8001298:	60da      	str	r2, [r3, #12]
	DMA1_Channel4->CNDTR = 1;
 800129a:	4b11      	ldr	r3, [pc, #68]	@ (80012e0 <UART_send_data+0x5c>)
 800129c:	2201      	movs	r2, #1
 800129e:	605a      	str	r2, [r3, #4]
	DMA1_Channel4->CCR |= DMA_CCR_EN;
 80012a0:	4b0f      	ldr	r3, [pc, #60]	@ (80012e0 <UART_send_data+0x5c>)
 80012a2:	681b      	ldr	r3, [r3, #0]
 80012a4:	4a0e      	ldr	r2, [pc, #56]	@ (80012e0 <UART_send_data+0x5c>)
 80012a6:	f043 0301 	orr.w	r3, r3, #1
 80012aa:	6013      	str	r3, [r2, #0]
	while(DMA1_Channel4->CCR & DMA_CCR_EN) {};
 80012ac:	bf00      	nop
 80012ae:	4b0c      	ldr	r3, [pc, #48]	@ (80012e0 <UART_send_data+0x5c>)
 80012b0:	681b      	ldr	r3, [r3, #0]
 80012b2:	f003 0301 	and.w	r3, r3, #1
 80012b6:	2b00      	cmp	r3, #0
 80012b8:	d1f9      	bne.n	80012ae <UART_send_data+0x2a>
	for(int i = 0; i < 100; i++);
 80012ba:	2300      	movs	r3, #0
 80012bc:	60fb      	str	r3, [r7, #12]
 80012be:	e002      	b.n	80012c6 <UART_send_data+0x42>
 80012c0:	68fb      	ldr	r3, [r7, #12]
 80012c2:	3301      	adds	r3, #1
 80012c4:	60fb      	str	r3, [r7, #12]
 80012c6:	68fb      	ldr	r3, [r7, #12]
 80012c8:	2b63      	cmp	r3, #99	@ 0x63
 80012ca:	ddf9      	ble.n	80012c0 <UART_send_data+0x3c>
	flag = 0;
 80012cc:	4b05      	ldr	r3, [pc, #20]	@ (80012e4 <UART_send_data+0x60>)
 80012ce:	2200      	movs	r2, #0
 80012d0:	701a      	strb	r2, [r3, #0]
}
 80012d2:	bf00      	nop
 80012d4:	3714      	adds	r7, #20
 80012d6:	46bd      	mov	sp, r7
 80012d8:	bc80      	pop	{r7}
 80012da:	4770      	bx	lr
 80012dc:	20000004 	.word	0x20000004
 80012e0:	40020044 	.word	0x40020044
 80012e4:	200001f8 	.word	0x200001f8

080012e8 <__NVIC_EnableIRQ>:
{
 80012e8:	b480      	push	{r7}
 80012ea:	b083      	sub	sp, #12
 80012ec:	af00      	add	r7, sp, #0
 80012ee:	4603      	mov	r3, r0
 80012f0:	71fb      	strb	r3, [r7, #7]
  if ((int32_t)(IRQn) >= 0)
 80012f2:	f997 3007 	ldrsb.w	r3, [r7, #7]
 80012f6:	2b00      	cmp	r3, #0
 80012f8:	db0b      	blt.n	8001312 <__NVIC_EnableIRQ+0x2a>
    NVIC->ISER[(((uint32_t)IRQn) >> 5UL)] = (uint32_t)(1UL << (((uint32_t)IRQn) & 0x1FUL));
 80012fa:	79fb      	ldrb	r3, [r7, #7]
 80012fc:	f003 021f 	and.w	r2, r3, #31
 8001300:	4906      	ldr	r1, [pc, #24]	@ (800131c <__NVIC_EnableIRQ+0x34>)
 8001302:	f997 3007 	ldrsb.w	r3, [r7, #7]
 8001306:	095b      	lsrs	r3, r3, #5
 8001308:	2001      	movs	r0, #1
 800130a:	fa00 f202 	lsl.w	r2, r0, r2
 800130e:	f841 2023 	str.w	r2, [r1, r3, lsl #2]
}
 8001312:	bf00      	nop
 8001314:	370c      	adds	r7, #12
 8001316:	46bd      	mov	sp, r7
 8001318:	bc80      	pop	{r7}
 800131a:	4770      	bx	lr
 800131c:	e000e100 	.word	0xe000e100

08001320 <__NVIC_SetPriority>:
{
 8001320:	b480      	push	{r7}
 8001322:	b083      	sub	sp, #12
 8001324:	af00      	add	r7, sp, #0
 8001326:	4603      	mov	r3, r0
 8001328:	6039      	str	r1, [r7, #0]
 800132a:	71fb      	strb	r3, [r7, #7]
  if ((int32_t)(IRQn) >= 0)
 800132c:	f997 3007 	ldrsb.w	r3, [r7, #7]
 8001330:	2b00      	cmp	r3, #0
 8001332:	db0a      	blt.n	800134a <__NVIC_SetPriority+0x2a>
    NVIC->IP[((uint32_t)IRQn)]               = (uint8_t)((priority << (8U - __NVIC_PRIO_BITS)) & (uint32_t)0xFFUL);
 8001334:	683b      	ldr	r3, [r7, #0]
 8001336:	b2da      	uxtb	r2, r3
 8001338:	490c      	ldr	r1, [pc, #48]	@ (800136c <__NVIC_SetPriority+0x4c>)
 800133a:	f997 3007 	ldrsb.w	r3, [r7, #7]
 800133e:	0112      	lsls	r2, r2, #4
 8001340:	b2d2      	uxtb	r2, r2
 8001342:	440b      	add	r3, r1
 8001344:	f883 2300 	strb.w	r2, [r3, #768]	@ 0x300
}
 8001348:	e00a      	b.n	8001360 <__NVIC_SetPriority+0x40>
    SCB->SHP[(((uint32_t)IRQn) & 0xFUL)-4UL] = (uint8_t)((priority << (8U - __NVIC_PRIO_BITS)) & (uint32_t)0xFFUL);
 800134a:	683b      	ldr	r3, [r7, #0]
 800134c:	b2da      	uxtb	r2, r3
 800134e:	4908      	ldr	r1, [pc, #32]	@ (8001370 <__NVIC_SetPriority+0x50>)
 8001350:	79fb      	ldrb	r3, [r7, #7]
 8001352:	f003 030f 	and.w	r3, r3, #15
 8001356:	3b04      	subs	r3, #4
 8001358:	0112      	lsls	r2, r2, #4
 800135a:	b2d2      	uxtb	r2, r2
 800135c:	440b      	add	r3, r1
 800135e:	761a      	strb	r2, [r3, #24]
}
 8001360:	bf00      	nop
 8001362:	370c      	adds	r7, #12
 8001364:	46bd      	mov	sp, r7
 8001366:	bc80      	pop	{r7}
 8001368:	4770      	bx	lr
 800136a:	bf00      	nop
 800136c:	e000e100 	.word	0xe000e100
 8001370:	e000ed00 	.word	0xe000ed00

08001374 <TIM2_IRQHandler>:
DS18B20_CMD ds18b20_cmd = TEMPERATURE_CONVERTING;
uint8_t ds_buff[9];
uint16_t temp;
float temperature = 0;

void TIM2_IRQHandler() {
 8001374:	b480      	push	{r7}
 8001376:	af00      	add	r7, sp, #0
	TIM2->SR &= ~TIM_SR_UIF;
 8001378:	f04f 4380 	mov.w	r3, #1073741824	@ 0x40000000
 800137c:	691b      	ldr	r3, [r3, #16]
 800137e:	f04f 4280 	mov.w	r2, #1073741824	@ 0x40000000
 8001382:	f023 0301 	bic.w	r3, r3, #1
 8001386:	6113      	str	r3, [r2, #16]
	TIM2->CR1 &= ~TIM_CR1_CEN;
 8001388:	f04f 4380 	mov.w	r3, #1073741824	@ 0x40000000
 800138c:	681b      	ldr	r3, [r3, #0]
 800138e:	f04f 4280 	mov.w	r2, #1073741824	@ 0x40000000
 8001392:	f023 0301 	bic.w	r3, r3, #1
 8001396:	6013      	str	r3, [r2, #0]
	GPIOA->ODR ^= (1 << PIN_LED);
 8001398:	4b07      	ldr	r3, [pc, #28]	@ (80013b8 <TIM2_IRQHandler+0x44>)
 800139a:	68db      	ldr	r3, [r3, #12]
 800139c:	4a06      	ldr	r2, [pc, #24]	@ (80013b8 <TIM2_IRQHandler+0x44>)
 800139e:	f483 6300 	eor.w	r3, r3, #2048	@ 0x800
 80013a2:	60d3      	str	r3, [r2, #12]
	flag = 1;
 80013a4:	4b05      	ldr	r3, [pc, #20]	@ (80013bc <TIM2_IRQHandler+0x48>)
 80013a6:	2201      	movs	r2, #1
 80013a8:	701a      	strb	r2, [r3, #0]
	ds18b20_cmd = TEMPERATURE_READING;
 80013aa:	4b05      	ldr	r3, [pc, #20]	@ (80013c0 <TIM2_IRQHandler+0x4c>)
 80013ac:	2202      	movs	r2, #2
 80013ae:	701a      	strb	r2, [r3, #0]
}
 80013b0:	bf00      	nop
 80013b2:	46bd      	mov	sp, r7
 80013b4:	bc80      	pop	{r7}
 80013b6:	4770      	bx	lr
 80013b8:	40010800 	.word	0x40010800
 80013bc:	200001f8 	.word	0x200001f8
 80013c0:	200001fc 	.word	0x200001fc

080013c4 <init_Gpio_for_ds>:

void init_Gpio_for_ds() {
 80013c4:	b480      	push	{r7}
 80013c6:	af00      	add	r7, sp, #0
	//PIN for Data line (DQ) of One-wire interface
	RCC->APB2ENR |= RCC_PORT_DS18B20;
 80013c8:	4b19      	ldr	r3, [pc, #100]	@ (8001430 <init_Gpio_for_ds+0x6c>)
 80013ca:	699b      	ldr	r3, [r3, #24]
 80013cc:	4a18      	ldr	r2, [pc, #96]	@ (8001430 <init_Gpio_for_ds+0x6c>)
 80013ce:	f043 0304 	orr.w	r3, r3, #4
 80013d2:	6193      	str	r3, [r2, #24]
	PORT_DS18B20->CRH |= GPIO_MODE_DS18B20;
 80013d4:	4b17      	ldr	r3, [pc, #92]	@ (8001434 <init_Gpio_for_ds+0x70>)
 80013d6:	685b      	ldr	r3, [r3, #4]
 80013d8:	4a16      	ldr	r2, [pc, #88]	@ (8001434 <init_Gpio_for_ds+0x70>)
 80013da:	f443 3340 	orr.w	r3, r3, #196608	@ 0x30000
 80013de:	6053      	str	r3, [r2, #4]
	GPIOA->CRH &= ~GPIO_CRH_CNF12;
 80013e0:	4b14      	ldr	r3, [pc, #80]	@ (8001434 <init_Gpio_for_ds+0x70>)
 80013e2:	685b      	ldr	r3, [r3, #4]
 80013e4:	4a13      	ldr	r2, [pc, #76]	@ (8001434 <init_Gpio_for_ds+0x70>)
 80013e6:	f423 2340 	bic.w	r3, r3, #786432	@ 0xc0000
 80013ea:	6053      	str	r3, [r2, #4]
	PORT_DS18B20->CRH |= GPIO_OPEN_DRAIN_DS18B20;
 80013ec:	4b11      	ldr	r3, [pc, #68]	@ (8001434 <init_Gpio_for_ds+0x70>)
 80013ee:	685b      	ldr	r3, [r3, #4]
 80013f0:	4a10      	ldr	r2, [pc, #64]	@ (8001434 <init_Gpio_for_ds+0x70>)
 80013f2:	f443 2380 	orr.w	r3, r3, #262144	@ 0x40000
 80013f6:	6053      	str	r3, [r2, #4]
	PORT_DS18B20->ODR |= (1 << PIN_DS18B20);
 80013f8:	4b0e      	ldr	r3, [pc, #56]	@ (8001434 <init_Gpio_for_ds+0x70>)
 80013fa:	68db      	ldr	r3, [r3, #12]
 80013fc:	4a0d      	ldr	r2, [pc, #52]	@ (8001434 <init_Gpio_for_ds+0x70>)
 80013fe:	f443 5380 	orr.w	r3, r3, #4096	@ 0x1000
 8001402:	60d3      	str	r3, [r2, #12]
	
	//PIN for LED, which will signalize about error
	RCC->APB2ENR |= RCC_APB2ENR_IOPAEN;
 8001404:	4b0a      	ldr	r3, [pc, #40]	@ (8001430 <init_Gpio_for_ds+0x6c>)
 8001406:	699b      	ldr	r3, [r3, #24]
 8001408:	4a09      	ldr	r2, [pc, #36]	@ (8001430 <init_Gpio_for_ds+0x6c>)
 800140a:	f043 0304 	orr.w	r3, r3, #4
 800140e:	6193      	str	r3, [r2, #24]
	GPIOA->CRH |= GPIO_CRH_MODE11;
 8001410:	4b08      	ldr	r3, [pc, #32]	@ (8001434 <init_Gpio_for_ds+0x70>)
 8001412:	685b      	ldr	r3, [r3, #4]
 8001414:	4a07      	ldr	r2, [pc, #28]	@ (8001434 <init_Gpio_for_ds+0x70>)
 8001416:	f443 5340 	orr.w	r3, r3, #12288	@ 0x3000
 800141a:	6053      	str	r3, [r2, #4]
	GPIOA->CRH &= ~GPIO_CRH_CNF11;
 800141c:	4b05      	ldr	r3, [pc, #20]	@ (8001434 <init_Gpio_for_ds+0x70>)
 800141e:	685b      	ldr	r3, [r3, #4]
 8001420:	4a04      	ldr	r2, [pc, #16]	@ (8001434 <init_Gpio_for_ds+0x70>)
 8001422:	f423 4340 	bic.w	r3, r3, #49152	@ 0xc000
 8001426:	6053      	str	r3, [r2, #4]
}
 8001428:	bf00      	nop
 800142a:	46bd      	mov	sp, r7
 800142c:	bc80      	pop	{r7}
 800142e:	4770      	bx	lr
 8001430:	40021000 	.word	0x40021000
 8001434:	40010800 	.word	0x40010800

08001438 <init_tim1_for_us>:

void init_tim1_for_us() {
 8001438:	b480      	push	{r7}
 800143a:	af00      	add	r7, sp, #0
	RCC->APB1ENR |= RCC_APB1ENR_TIM3EN;
 800143c:	4b0b      	ldr	r3, [pc, #44]	@ (800146c <init_tim1_for_us+0x34>)
 800143e:	69db      	ldr	r3, [r3, #28]
 8001440:	4a0a      	ldr	r2, [pc, #40]	@ (800146c <init_tim1_for_us+0x34>)
 8001442:	f043 0302 	orr.w	r3, r3, #2
 8001446:	61d3      	str	r3, [r2, #28]
	TIM3->ARR = 1000;
 8001448:	4b09      	ldr	r3, [pc, #36]	@ (8001470 <init_tim1_for_us+0x38>)
 800144a:	f44f 727a 	mov.w	r2, #1000	@ 0x3e8
 800144e:	62da      	str	r2, [r3, #44]	@ 0x2c
	TIM3->PSC = 7;
 8001450:	4b07      	ldr	r3, [pc, #28]	@ (8001470 <init_tim1_for_us+0x38>)
 8001452:	2207      	movs	r2, #7
 8001454:	629a      	str	r2, [r3, #40]	@ 0x28
	TIM3->CR1 |= TIM_CR1_CEN;
 8001456:	4b06      	ldr	r3, [pc, #24]	@ (8001470 <init_tim1_for_us+0x38>)
 8001458:	681b      	ldr	r3, [r3, #0]
 800145a:	4a05      	ldr	r2, [pc, #20]	@ (8001470 <init_tim1_for_us+0x38>)
 800145c:	f043 0301 	orr.w	r3, r3, #1
 8001460:	6013      	str	r3, [r2, #0]
} 
 8001462:	bf00      	nop
 8001464:	46bd      	mov	sp, r7
 8001466:	bc80      	pop	{r7}
 8001468:	4770      	bx	lr
 800146a:	bf00      	nop
 800146c:	40021000 	.word	0x40021000
 8001470:	40000400 	.word	0x40000400

08001474 <init_tim2_for_delay>:

void init_tim2_for_delay() {
 8001474:	b580      	push	{r7, lr}
 8001476:	af00      	add	r7, sp, #0
	RCC->APB1ENR |= RCC_APB1ENR_TIM2EN;
 8001478:	4b14      	ldr	r3, [pc, #80]	@ (80014cc <init_tim2_for_delay+0x58>)
 800147a:	69db      	ldr	r3, [r3, #28]
 800147c:	4a13      	ldr	r2, [pc, #76]	@ (80014cc <init_tim2_for_delay+0x58>)
 800147e:	f043 0301 	orr.w	r3, r3, #1
 8001482:	61d3      	str	r3, [r2, #28]
	TIM2->ARR = 8000;
 8001484:	f04f 4380 	mov.w	r3, #1073741824	@ 0x40000000
 8001488:	f44f 52fa 	mov.w	r2, #8000	@ 0x1f40
 800148c:	62da      	str	r2, [r3, #44]	@ 0x2c
	TIM2->PSC = 999;
 800148e:	f04f 4380 	mov.w	r3, #1073741824	@ 0x40000000
 8001492:	f240 32e7 	movw	r2, #999	@ 0x3e7
 8001496:	629a      	str	r2, [r3, #40]	@ 0x28
	TIM2->DIER |= TIM_DIER_UIE;
 8001498:	f04f 4380 	mov.w	r3, #1073741824	@ 0x40000000
 800149c:	68db      	ldr	r3, [r3, #12]
 800149e:	f04f 4280 	mov.w	r2, #1073741824	@ 0x40000000
 80014a2:	f043 0301 	orr.w	r3, r3, #1
 80014a6:	60d3      	str	r3, [r2, #12]
	NVIC_EnableIRQ(TIM2_IRQn);
 80014a8:	201c      	movs	r0, #28
 80014aa:	f7ff ff1d 	bl	80012e8 <__NVIC_EnableIRQ>
	NVIC_SetPriority(TIM2_IRQn, 1);
 80014ae:	2101      	movs	r1, #1
 80014b0:	201c      	movs	r0, #28
 80014b2:	f7ff ff35 	bl	8001320 <__NVIC_SetPriority>
	TIM2->CR1 |= TIM_CR1_CEN;
 80014b6:	f04f 4380 	mov.w	r3, #1073741824	@ 0x40000000
 80014ba:	681b      	ldr	r3, [r3, #0]
 80014bc:	f04f 4280 	mov.w	r2, #1073741824	@ 0x40000000
 80014c0:	f043 0301 	orr.w	r3, r3, #1
 80014c4:	6013      	str	r3, [r2, #0]
}
 80014c6:	bf00      	nop
 80014c8:	bd80      	pop	{r7, pc}
 80014ca:	bf00      	nop
 80014cc:	40021000 	.word	0x40021000

080014d0 <ds_reset_pulse>:

void ds_reset_pulse()
{
 80014d0:	b480      	push	{r7}
 80014d2:	b083      	sub	sp, #12
 80014d4:	af00      	add	r7, sp, #0
	uint8_t result;
	//line should be in high state
	if((PORT_DS18B20->IDR & (1 << PIN_DS18B20)) == 0) {
 80014d6:	4b1c      	ldr	r3, [pc, #112]	@ (8001548 <ds_reset_pulse+0x78>)
 80014d8:	689b      	ldr	r3, [r3, #8]
 80014da:	f403 5380 	and.w	r3, r3, #4096	@ 0x1000
 80014de:	2b00      	cmp	r3, #0
 80014e0:	d103      	bne.n	80014ea <ds_reset_pulse+0x1a>
		ds18b20_cmd = ERROR_WITH_SENSOR;
 80014e2:	4b1a      	ldr	r3, [pc, #104]	@ (800154c <ds_reset_pulse+0x7c>)
 80014e4:	2203      	movs	r2, #3
 80014e6:	701a      	strb	r2, [r3, #0]
		return;
 80014e8:	e02a      	b.n	8001540 <ds_reset_pulse+0x70>
	}
	TIM3->CNT = 0;
 80014ea:	4b19      	ldr	r3, [pc, #100]	@ (8001550 <ds_reset_pulse+0x80>)
 80014ec:	2200      	movs	r2, #0
 80014ee:	625a      	str	r2, [r3, #36]	@ 0x24
	//make the line go to low and wait in this state 480-960 us
	PORT_DS18B20->ODR &= ~(1 << PIN_DS18B20);
 80014f0:	4b15      	ldr	r3, [pc, #84]	@ (8001548 <ds_reset_pulse+0x78>)
 80014f2:	68db      	ldr	r3, [r3, #12]
 80014f4:	4a14      	ldr	r2, [pc, #80]	@ (8001548 <ds_reset_pulse+0x78>)
 80014f6:	f423 5380 	bic.w	r3, r3, #4096	@ 0x1000
 80014fa:	60d3      	str	r3, [r2, #12]
	while(TIM3->CNT < 480);
 80014fc:	bf00      	nop
 80014fe:	4b14      	ldr	r3, [pc, #80]	@ (8001550 <ds_reset_pulse+0x80>)
 8001500:	6a5b      	ldr	r3, [r3, #36]	@ 0x24
 8001502:	f5b3 7ff0 	cmp.w	r3, #480	@ 0x1e0
 8001506:	d3fa      	bcc.n	80014fe <ds_reset_pulse+0x2e>
	//release the line (let go it to high) and wait to respond of DS18B20 after 15-60 us of wait
	PORT_DS18B20->ODR |= (1 << PIN_DS18B20);
 8001508:	4b0f      	ldr	r3, [pc, #60]	@ (8001548 <ds_reset_pulse+0x78>)
 800150a:	68db      	ldr	r3, [r3, #12]
 800150c:	4a0e      	ldr	r2, [pc, #56]	@ (8001548 <ds_reset_pulse+0x78>)
 800150e:	f443 5380 	orr.w	r3, r3, #4096	@ 0x1000
 8001512:	60d3      	str	r3, [r2, #12]
	while(TIM3->CNT < 520);
 8001514:	bf00      	nop
 8001516:	4b0e      	ldr	r3, [pc, #56]	@ (8001550 <ds_reset_pulse+0x80>)
 8001518:	6a5b      	ldr	r3, [r3, #36]	@ 0x24
 800151a:	f5b3 7f02 	cmp.w	r3, #520	@ 0x208
 800151e:	d3fa      	bcc.n	8001516 <ds_reset_pulse+0x46>
	//read line in order to check answer from DS18B20
	result = PORT_DS18B20->IDR & (1 << PIN_DS18B20);
 8001520:	4b09      	ldr	r3, [pc, #36]	@ (8001548 <ds_reset_pulse+0x78>)
 8001522:	689b      	ldr	r3, [r3, #8]
 8001524:	2300      	movs	r3, #0
 8001526:	71fb      	strb	r3, [r7, #7]
//	//wait minimum 480us from moment, where we release the line
	while(TIM3->CNT < 960);
 8001528:	bf00      	nop
 800152a:	4b09      	ldr	r3, [pc, #36]	@ (8001550 <ds_reset_pulse+0x80>)
 800152c:	6a5b      	ldr	r3, [r3, #36]	@ 0x24
 800152e:	f5b3 7f70 	cmp.w	r3, #960	@ 0x3c0
 8001532:	d3fa      	bcc.n	800152a <ds_reset_pulse+0x5a>
//	//if line was in high state - there are no answer from DS18B20 :(
	if(result)
 8001534:	79fb      	ldrb	r3, [r7, #7]
 8001536:	2b00      	cmp	r3, #0
 8001538:	d002      	beq.n	8001540 <ds_reset_pulse+0x70>
		ds18b20_cmd = ERROR_WITH_SENSOR;
 800153a:	4b04      	ldr	r3, [pc, #16]	@ (800154c <ds_reset_pulse+0x7c>)
 800153c:	2203      	movs	r2, #3
 800153e:	701a      	strb	r2, [r3, #0]
}
 8001540:	370c      	adds	r7, #12
 8001542:	46bd      	mov	sp, r7
 8001544:	bc80      	pop	{r7}
 8001546:	4770      	bx	lr
 8001548:	40010800 	.word	0x40010800
 800154c:	200001fc 	.word	0x200001fc
 8001550:	40000400 	.word	0x40000400

08001554 <ds_write_bit>:

void ds_write_bit(uint8_t bit)
{
 8001554:	b480      	push	{r7}
 8001556:	b083      	sub	sp, #12
 8001558:	af00      	add	r7, sp, #0
 800155a:	4603      	mov	r3, r0
 800155c:	71fb      	strb	r3, [r7, #7]
	TIM3->CNT = 0;
 800155e:	4b13      	ldr	r3, [pc, #76]	@ (80015ac <ds_write_bit+0x58>)
 8001560:	2200      	movs	r2, #0
 8001562:	625a      	str	r2, [r3, #36]	@ 0x24
	//make the line go to low and wait in this state at least 1 us
  PORT_DS18B20->ODR &= ~(1 << PIN_DS18B20);
 8001564:	4b12      	ldr	r3, [pc, #72]	@ (80015b0 <ds_write_bit+0x5c>)
 8001566:	68db      	ldr	r3, [r3, #12]
 8001568:	4a11      	ldr	r2, [pc, #68]	@ (80015b0 <ds_write_bit+0x5c>)
 800156a:	f423 5380 	bic.w	r3, r3, #4096	@ 0x1000
 800156e:	60d3      	str	r3, [r2, #12]
  while(TIM3->CNT < 2) {}
 8001570:	bf00      	nop
 8001572:	4b0e      	ldr	r3, [pc, #56]	@ (80015ac <ds_write_bit+0x58>)
 8001574:	6a5b      	ldr	r3, [r3, #36]	@ 0x24
 8001576:	2b01      	cmp	r3, #1
 8001578:	d9fb      	bls.n	8001572 <ds_write_bit+0x1e>
  //set bit on line
	if(bit)
 800157a:	79fb      	ldrb	r3, [r7, #7]
 800157c:	2b00      	cmp	r3, #0
 800157e:	d005      	beq.n	800158c <ds_write_bit+0x38>
		PORT_DS18B20->ODR |= (1 << PIN_DS18B20);
 8001580:	4b0b      	ldr	r3, [pc, #44]	@ (80015b0 <ds_write_bit+0x5c>)
 8001582:	68db      	ldr	r3, [r3, #12]
 8001584:	4a0a      	ldr	r2, [pc, #40]	@ (80015b0 <ds_write_bit+0x5c>)
 8001586:	f443 5380 	orr.w	r3, r3, #4096	@ 0x1000
 800158a:	60d3      	str	r3, [r2, #12]
  //"write operation" with bit last 60-120us
  while(TIM3->CNT < 60) {}
 800158c:	bf00      	nop
 800158e:	4b07      	ldr	r3, [pc, #28]	@ (80015ac <ds_write_bit+0x58>)
 8001590:	6a5b      	ldr	r3, [r3, #36]	@ 0x24
 8001592:	2b3b      	cmp	r3, #59	@ 0x3b
 8001594:	d9fb      	bls.n	800158e <ds_write_bit+0x3a>
  //release line again
  PORT_DS18B20->ODR |= (1 << PIN_DS18B20);
 8001596:	4b06      	ldr	r3, [pc, #24]	@ (80015b0 <ds_write_bit+0x5c>)
 8001598:	68db      	ldr	r3, [r3, #12]
 800159a:	4a05      	ldr	r2, [pc, #20]	@ (80015b0 <ds_write_bit+0x5c>)
 800159c:	f443 5380 	orr.w	r3, r3, #4096	@ 0x1000
 80015a0:	60d3      	str	r3, [r2, #12]
}
 80015a2:	bf00      	nop
 80015a4:	370c      	adds	r7, #12
 80015a6:	46bd      	mov	sp, r7
 80015a8:	bc80      	pop	{r7}
 80015aa:	4770      	bx	lr
 80015ac:	40000400 	.word	0x40000400
 80015b0:	40010800 	.word	0x40010800

080015b4 <ds_write_byte>:

void ds_write_byte(uint8_t byte)
{
 80015b4:	b580      	push	{r7, lr}
 80015b6:	b084      	sub	sp, #16
 80015b8:	af00      	add	r7, sp, #0
 80015ba:	4603      	mov	r3, r0
 80015bc:	71fb      	strb	r3, [r7, #7]
	for(uint8_t i = 0; i < 8; i++)
 80015be:	2300      	movs	r3, #0
 80015c0:	73fb      	strb	r3, [r7, #15]
 80015c2:	e00f      	b.n	80015e4 <ds_write_byte+0x30>
		ds_write_bit(byte & (1 << i));
 80015c4:	7bfb      	ldrb	r3, [r7, #15]
 80015c6:	2201      	movs	r2, #1
 80015c8:	fa02 f303 	lsl.w	r3, r2, r3
 80015cc:	b25a      	sxtb	r2, r3
 80015ce:	f997 3007 	ldrsb.w	r3, [r7, #7]
 80015d2:	4013      	ands	r3, r2
 80015d4:	b25b      	sxtb	r3, r3
 80015d6:	b2db      	uxtb	r3, r3
 80015d8:	4618      	mov	r0, r3
 80015da:	f7ff ffbb 	bl	8001554 <ds_write_bit>
	for(uint8_t i = 0; i < 8; i++)
 80015de:	7bfb      	ldrb	r3, [r7, #15]
 80015e0:	3301      	adds	r3, #1
 80015e2:	73fb      	strb	r3, [r7, #15]
 80015e4:	7bfb      	ldrb	r3, [r7, #15]
 80015e6:	2b07      	cmp	r3, #7
 80015e8:	d9ec      	bls.n	80015c4 <ds_write_byte+0x10>
}
 80015ea:	bf00      	nop
 80015ec:	bf00      	nop
 80015ee:	3710      	adds	r7, #16
 80015f0:	46bd      	mov	sp, r7
 80015f2:	bd80      	pop	{r7, pc}

080015f4 <ds_read_bit>:

uint8_t ds_read_bit()
{
 80015f4:	b480      	push	{r7}
 80015f6:	b083      	sub	sp, #12
 80015f8:	af00      	add	r7, sp, #0
	uint8_t result;
	TIM3->CNT=0;
 80015fa:	4b15      	ldr	r3, [pc, #84]	@ (8001650 <ds_read_bit+0x5c>)
 80015fc:	2200      	movs	r2, #0
 80015fe:	625a      	str	r2, [r3, #36]	@ 0x24
	//make the line go to low and wait in this state at least 1 us
	PORT_DS18B20->ODR &= ~(1 << PIN_DS18B20);
 8001600:	4b14      	ldr	r3, [pc, #80]	@ (8001654 <ds_read_bit+0x60>)
 8001602:	68db      	ldr	r3, [r3, #12]
 8001604:	4a13      	ldr	r2, [pc, #76]	@ (8001654 <ds_read_bit+0x60>)
 8001606:	f423 5380 	bic.w	r3, r3, #4096	@ 0x1000
 800160a:	60d3      	str	r3, [r2, #12]
	while(TIM3->CNT < 2) {}
 800160c:	bf00      	nop
 800160e:	4b10      	ldr	r3, [pc, #64]	@ (8001650 <ds_read_bit+0x5c>)
 8001610:	6a5b      	ldr	r3, [r3, #36]	@ 0x24
 8001612:	2b01      	cmp	r3, #1
 8001614:	d9fb      	bls.n	800160e <ds_read_bit+0x1a>
	//release line in order to DS18B20 set bit on line
	PORT_DS18B20->ODR |=  (1 << PIN_DS18B20);
 8001616:	4b0f      	ldr	r3, [pc, #60]	@ (8001654 <ds_read_bit+0x60>)
 8001618:	68db      	ldr	r3, [r3, #12]
 800161a:	4a0e      	ldr	r2, [pc, #56]	@ (8001654 <ds_read_bit+0x60>)
 800161c:	f443 5380 	orr.w	r3, r3, #4096	@ 0x1000
 8001620:	60d3      	str	r3, [r2, #12]
	//wait at least 15us before read bit
	while(TIM3->CNT < 20) {}
 8001622:	bf00      	nop
 8001624:	4b0a      	ldr	r3, [pc, #40]	@ (8001650 <ds_read_bit+0x5c>)
 8001626:	6a5b      	ldr	r3, [r3, #36]	@ 0x24
 8001628:	2b13      	cmp	r3, #19
 800162a:	d9fb      	bls.n	8001624 <ds_read_bit+0x30>
	//read bit
	result = (PORT_DS18B20->IDR & (1 << PIN_DS18B20)) >> PIN_DS18B20;
 800162c:	4b09      	ldr	r3, [pc, #36]	@ (8001654 <ds_read_bit+0x60>)
 800162e:	689b      	ldr	r3, [r3, #8]
 8001630:	0b1b      	lsrs	r3, r3, #12
 8001632:	b2db      	uxtb	r3, r3
 8001634:	f003 0301 	and.w	r3, r3, #1
 8001638:	71fb      	strb	r3, [r7, #7]
	while(TIM3->CNT < 60 ) {}
 800163a:	bf00      	nop
 800163c:	4b04      	ldr	r3, [pc, #16]	@ (8001650 <ds_read_bit+0x5c>)
 800163e:	6a5b      	ldr	r3, [r3, #36]	@ 0x24
 8001640:	2b3b      	cmp	r3, #59	@ 0x3b
 8001642:	d9fb      	bls.n	800163c <ds_read_bit+0x48>
	//"read operation" with bit at least 60
	return result;
 8001644:	79fb      	ldrb	r3, [r7, #7]
}
 8001646:	4618      	mov	r0, r3
 8001648:	370c      	adds	r7, #12
 800164a:	46bd      	mov	sp, r7
 800164c:	bc80      	pop	{r7}
 800164e:	4770      	bx	lr
 8001650:	40000400 	.word	0x40000400
 8001654:	40010800 	.word	0x40010800

08001658 <ds_read_byte>:

uint8_t ds_read_byte()
{
 8001658:	b580      	push	{r7, lr}
 800165a:	b082      	sub	sp, #8
 800165c:	af00      	add	r7, sp, #0
	uint8_t result = 0;
 800165e:	2300      	movs	r3, #0
 8001660:	71fb      	strb	r3, [r7, #7]
	for(uint8_t i = 0; i < 8; i++)
 8001662:	2300      	movs	r3, #0
 8001664:	71bb      	strb	r3, [r7, #6]
 8001666:	e00f      	b.n	8001688 <ds_read_byte+0x30>
		result |= (ds_read_bit() << i);
 8001668:	f7ff ffc4 	bl	80015f4 <ds_read_bit>
 800166c:	4603      	mov	r3, r0
 800166e:	461a      	mov	r2, r3
 8001670:	79bb      	ldrb	r3, [r7, #6]
 8001672:	fa02 f303 	lsl.w	r3, r2, r3
 8001676:	b25a      	sxtb	r2, r3
 8001678:	f997 3007 	ldrsb.w	r3, [r7, #7]
 800167c:	4313      	orrs	r3, r2
 800167e:	b25b      	sxtb	r3, r3
 8001680:	71fb      	strb	r3, [r7, #7]
	for(uint8_t i = 0; i < 8; i++)
 8001682:	79bb      	ldrb	r3, [r7, #6]
 8001684:	3301      	adds	r3, #1
 8001686:	71bb      	strb	r3, [r7, #6]
 8001688:	79bb      	ldrb	r3, [r7, #6]
 800168a:	2b07      	cmp	r3, #7
 800168c:	d9ec      	bls.n	8001668 <ds_read_byte+0x10>
	return result;
 800168e:	79fb      	ldrb	r3, [r7, #7]
}
 8001690:	4618      	mov	r0, r3
 8001692:	3708      	adds	r7, #8
 8001694:	46bd      	mov	sp, r7
 8001696:	bd80      	pop	{r7, pc}

08001698 <TIM_1sec_on>:

void TIM_1sec_on() {
 8001698:	b480      	push	{r7}
 800169a:	af00      	add	r7, sp, #0
	TIM2->CNT = 0;
 800169c:	f04f 4380 	mov.w	r3, #1073741824	@ 0x40000000
 80016a0:	2200      	movs	r2, #0
 80016a2:	625a      	str	r2, [r3, #36]	@ 0x24
	TIM2->CR1 |= TIM_CR1_CEN;
 80016a4:	f04f 4380 	mov.w	r3, #1073741824	@ 0x40000000
 80016a8:	681b      	ldr	r3, [r3, #0]
 80016aa:	f04f 4280 	mov.w	r2, #1073741824	@ 0x40000000
 80016ae:	f043 0301 	orr.w	r3, r3, #1
 80016b2:	6013      	str	r3, [r2, #0]
}
 80016b4:	bf00      	nop
 80016b6:	46bd      	mov	sp, r7
 80016b8:	bc80      	pop	{r7}
 80016ba:	4770      	bx	lr

080016bc <temperature_measurment_start>:

void temperature_measurment_start() {
 80016bc:	b580      	push	{r7, lr}
 80016be:	af00      	add	r7, sp, #0
	ds_reset_pulse();
 80016c0:	f7ff ff06 	bl	80014d0 <ds_reset_pulse>
	if(ds18b20_cmd == ERROR_WITH_SENSOR)
 80016c4:	4b07      	ldr	r3, [pc, #28]	@ (80016e4 <temperature_measurment_start+0x28>)
 80016c6:	781b      	ldrb	r3, [r3, #0]
 80016c8:	2b03      	cmp	r3, #3
 80016ca:	d008      	beq.n	80016de <temperature_measurment_start+0x22>
		return;
	ds_write_byte(SKIP_ROM_ADR);
 80016cc:	20cc      	movs	r0, #204	@ 0xcc
 80016ce:	f7ff ff71 	bl	80015b4 <ds_write_byte>
	ds_write_byte(CONVERT_TEMP);
 80016d2:	2044      	movs	r0, #68	@ 0x44
 80016d4:	f7ff ff6e 	bl	80015b4 <ds_write_byte>
	TIM_1sec_on();
 80016d8:	f7ff ffde 	bl	8001698 <TIM_1sec_on>
 80016dc:	e000      	b.n	80016e0 <temperature_measurment_start+0x24>
		return;
 80016de:	bf00      	nop
}
 80016e0:	bd80      	pop	{r7, pc}
 80016e2:	bf00      	nop
 80016e4:	200001fc 	.word	0x200001fc

080016e8 <temprepature_measurment_read>:

void temprepature_measurment_read() {
 80016e8:	b580      	push	{r7, lr}
 80016ea:	b082      	sub	sp, #8
 80016ec:	af00      	add	r7, sp, #0
	ds_reset_pulse();
 80016ee:	f7ff feef 	bl	80014d0 <ds_reset_pulse>
	if(ds18b20_cmd == ERROR_WITH_SENSOR)
 80016f2:	4b22      	ldr	r3, [pc, #136]	@ (800177c <temprepature_measurment_read+0x94>)
 80016f4:	781b      	ldrb	r3, [r3, #0]
 80016f6:	2b03      	cmp	r3, #3
 80016f8:	d03b      	beq.n	8001772 <temprepature_measurment_read+0x8a>
		return;
	ds_write_byte(SKIP_ROM_ADR);
 80016fa:	20cc      	movs	r0, #204	@ 0xcc
 80016fc:	f7ff ff5a 	bl	80015b4 <ds_write_byte>
	ds_write_byte(READ_DATA);
 8001700:	20be      	movs	r0, #190	@ 0xbe
 8001702:	f7ff ff57 	bl	80015b4 <ds_write_byte>

	for(int i = 0; i < 9; i++ )
 8001706:	2300      	movs	r3, #0
 8001708:	607b      	str	r3, [r7, #4]
 800170a:	e00b      	b.n	8001724 <temprepature_measurment_read+0x3c>
		ds_buff[i] = ds_read_byte();
 800170c:	f7ff ffa4 	bl	8001658 <ds_read_byte>
 8001710:	4603      	mov	r3, r0
 8001712:	4619      	mov	r1, r3
 8001714:	4a1a      	ldr	r2, [pc, #104]	@ (8001780 <temprepature_measurment_read+0x98>)
 8001716:	687b      	ldr	r3, [r7, #4]
 8001718:	4413      	add	r3, r2
 800171a:	460a      	mov	r2, r1
 800171c:	701a      	strb	r2, [r3, #0]
	for(int i = 0; i < 9; i++ )
 800171e:	687b      	ldr	r3, [r7, #4]
 8001720:	3301      	adds	r3, #1
 8001722:	607b      	str	r3, [r7, #4]
 8001724:	687b      	ldr	r3, [r7, #4]
 8001726:	2b08      	cmp	r3, #8
 8001728:	ddf0      	ble.n	800170c <temprepature_measurment_read+0x24>

	//convert temperature
	temp = ds_buff[1];
 800172a:	4b15      	ldr	r3, [pc, #84]	@ (8001780 <temprepature_measurment_read+0x98>)
 800172c:	785b      	ldrb	r3, [r3, #1]
 800172e:	461a      	mov	r2, r3
 8001730:	4b14      	ldr	r3, [pc, #80]	@ (8001784 <temprepature_measurment_read+0x9c>)
 8001732:	801a      	strh	r2, [r3, #0]
	temp = temp << 8;
 8001734:	4b13      	ldr	r3, [pc, #76]	@ (8001784 <temprepature_measurment_read+0x9c>)
 8001736:	881b      	ldrh	r3, [r3, #0]
 8001738:	021b      	lsls	r3, r3, #8
 800173a:	b29a      	uxth	r2, r3
 800173c:	4b11      	ldr	r3, [pc, #68]	@ (8001784 <temprepature_measurment_read+0x9c>)
 800173e:	801a      	strh	r2, [r3, #0]
	temp |= ds_buff[0];
 8001740:	4b0f      	ldr	r3, [pc, #60]	@ (8001780 <temprepature_measurment_read+0x98>)
 8001742:	781b      	ldrb	r3, [r3, #0]
 8001744:	461a      	mov	r2, r3
 8001746:	4b0f      	ldr	r3, [pc, #60]	@ (8001784 <temprepature_measurment_read+0x9c>)
 8001748:	881b      	ldrh	r3, [r3, #0]
 800174a:	4313      	orrs	r3, r2
 800174c:	b29a      	uxth	r2, r3
 800174e:	4b0d      	ldr	r3, [pc, #52]	@ (8001784 <temprepature_measurment_read+0x9c>)
 8001750:	801a      	strh	r2, [r3, #0]
	temperature = (float)temp * 0.0625;
 8001752:	4b0c      	ldr	r3, [pc, #48]	@ (8001784 <temprepature_measurment_read+0x9c>)
 8001754:	881b      	ldrh	r3, [r3, #0]
 8001756:	4618      	mov	r0, r3
 8001758:	f7ff fb10 	bl	8000d7c <__aeabi_ui2f>
 800175c:	4603      	mov	r3, r0
 800175e:	f04f 5176 	mov.w	r1, #1031798784	@ 0x3d800000
 8001762:	4618      	mov	r0, r3
 8001764:	f7fe fd0c 	bl	8000180 <__aeabi_fmul>
 8001768:	4603      	mov	r3, r0
 800176a:	461a      	mov	r2, r3
 800176c:	4b06      	ldr	r3, [pc, #24]	@ (8001788 <temprepature_measurment_read+0xa0>)
 800176e:	601a      	str	r2, [r3, #0]
 8001770:	e000      	b.n	8001774 <temprepature_measurment_read+0x8c>
		return;
 8001772:	bf00      	nop
}
 8001774:	3708      	adds	r7, #8
 8001776:	46bd      	mov	sp, r7
 8001778:	bd80      	pop	{r7, pc}
 800177a:	bf00      	nop
 800177c:	200001fc 	.word	0x200001fc
 8001780:	20000200 	.word	0x20000200
 8001784:	2000020a 	.word	0x2000020a
 8001788:	2000020c 	.word	0x2000020c

0800178c <init_DS18B20>:

void init_DS18B20() {
 800178c:	b580      	push	{r7, lr}
 800178e:	af00      	add	r7, sp, #0
	init_Gpio_for_ds();
 8001790:	f7ff fe18 	bl	80013c4 <init_Gpio_for_ds>
	init_tim1_for_us();
 8001794:	f7ff fe50 	bl	8001438 <init_tim1_for_us>
	init_tim2_for_delay();
 8001798:	f7ff fe6c 	bl	8001474 <init_tim2_for_delay>
}
 800179c:	bf00      	nop
 800179e:	bd80      	pop	{r7, pc}

080017a0 <DS18B20_measure_temperature>:

void DS18B20_measure_temperature() {
 80017a0:	b580      	push	{r7, lr}
 80017a2:	af00      	add	r7, sp, #0
	switch(ds18b20_cmd) {
 80017a4:	4b14      	ldr	r3, [pc, #80]	@ (80017f8 <DS18B20_measure_temperature+0x58>)
 80017a6:	781b      	ldrb	r3, [r3, #0]
 80017a8:	2b03      	cmp	r3, #3
 80017aa:	d81e      	bhi.n	80017ea <DS18B20_measure_temperature+0x4a>
 80017ac:	a201      	add	r2, pc, #4	@ (adr r2, 80017b4 <DS18B20_measure_temperature+0x14>)
 80017ae:	f852 f023 	ldr.w	pc, [r2, r3, lsl #2]
 80017b2:	bf00      	nop
 80017b4:	080017c5 	.word	0x080017c5
 80017b8:	080017f3 	.word	0x080017f3
 80017bc:	080017d1 	.word	0x080017d1
 80017c0:	080017dd 	.word	0x080017dd
		case TEMPERATURE_CONVERTING:
			temperature_measurment_start();
 80017c4:	f7ff ff7a 	bl	80016bc <temperature_measurment_start>
			ds18b20_cmd = WAITING_1SEC;
 80017c8:	4b0b      	ldr	r3, [pc, #44]	@ (80017f8 <DS18B20_measure_temperature+0x58>)
 80017ca:	2201      	movs	r2, #1
 80017cc:	701a      	strb	r2, [r3, #0]
			break;
 80017ce:	e011      	b.n	80017f4 <DS18B20_measure_temperature+0x54>
		case TEMPERATURE_READING:
			temprepature_measurment_read();
 80017d0:	f7ff ff8a 	bl	80016e8 <temprepature_measurment_read>
			ds18b20_cmd = TEMPERATURE_CONVERTING;
 80017d4:	4b08      	ldr	r3, [pc, #32]	@ (80017f8 <DS18B20_measure_temperature+0x58>)
 80017d6:	2200      	movs	r2, #0
 80017d8:	701a      	strb	r2, [r3, #0]
			break;
 80017da:	e00b      	b.n	80017f4 <DS18B20_measure_temperature+0x54>
		case ERROR_WITH_SENSOR:
			PORT_LED->ODR |= (1 << PIN_LED);
 80017dc:	4b07      	ldr	r3, [pc, #28]	@ (80017fc <DS18B20_measure_temperature+0x5c>)
 80017de:	68db      	ldr	r3, [r3, #12]
 80017e0:	4a06      	ldr	r2, [pc, #24]	@ (80017fc <DS18B20_measure_temperature+0x5c>)
 80017e2:	f443 6300 	orr.w	r3, r3, #2048	@ 0x800
 80017e6:	60d3      	str	r3, [r2, #12]
			break;
 80017e8:	e004      	b.n	80017f4 <DS18B20_measure_temperature+0x54>
		case WAITING_1SEC:
		break;
		default: ds18b20_cmd = TEMPERATURE_CONVERTING;
 80017ea:	4b03      	ldr	r3, [pc, #12]	@ (80017f8 <DS18B20_measure_temperature+0x58>)
 80017ec:	2200      	movs	r2, #0
 80017ee:	701a      	strb	r2, [r3, #0]
			break;
 80017f0:	e000      	b.n	80017f4 <DS18B20_measure_temperature+0x54>
		break;
 80017f2:	bf00      	nop
	}
}
 80017f4:	bf00      	nop
 80017f6:	bd80      	pop	{r7, pc}
 80017f8:	200001fc 	.word	0x200001fc
 80017fc:	40010800 	.word	0x40010800

08001800 <__io_putchar>:
#include "ds18b20.h"
#include "UART_for_PC.h"
#include "TH02.h"

int __io_putchar(int ch) {
 8001800:	b580      	push	{r7, lr}
 8001802:	b084      	sub	sp, #16
 8001804:	af00      	add	r7, sp, #0
 8001806:	6078      	str	r0, [r7, #4]
	uint8_t ch8 = ch & 0xFF;
 8001808:	687b      	ldr	r3, [r7, #4]
 800180a:	73fb      	strb	r3, [r7, #15]
	UART_send_data(ch8);
 800180c:	7bfb      	ldrb	r3, [r7, #15]
 800180e:	4618      	mov	r0, r3
 8001810:	f7ff fd38 	bl	8001284 <UART_send_data>
	return ch;
 8001814:	687b      	ldr	r3, [r7, #4]
}
 8001816:	4618      	mov	r0, r3
 8001818:	3710      	adds	r7, #16
 800181a:	46bd      	mov	sp, r7
 800181c:	bd80      	pop	{r7, pc}
	...

08001820 <main>:

void StartHSE(void);

int main() {
 8001820:	b580      	push	{r7, lr}
 8001822:	b082      	sub	sp, #8
 8001824:	af00      	add	r7, sp, #0
	//StartHSE();
	init_USART();
 8001826:	f7ff fccf 	bl	80011c8 <init_USART>
	init_DS18B20();
 800182a:	f7ff ffaf 	bl	800178c <init_DS18B20>
	I2C_for_TH_init();
 800182e:	f7ff fb25 	bl	8000e7c <I2C_for_TH_init>
	for(int i = 0;i < 10000; i++);
 8001832:	2300      	movs	r3, #0
 8001834:	607b      	str	r3, [r7, #4]
 8001836:	e002      	b.n	800183e <main+0x1e>
 8001838:	687b      	ldr	r3, [r7, #4]
 800183a:	3301      	adds	r3, #1
 800183c:	607b      	str	r3, [r7, #4]
 800183e:	687b      	ldr	r3, [r7, #4]
 8001840:	f242 720f 	movw	r2, #9999	@ 0x270f
 8001844:	4293      	cmp	r3, r2
 8001846:	ddf7      	ble.n	8001838 <main+0x18>

	 ds18b20_cmd = TEMPERATURE_CONVERTING;
 8001848:	4b04      	ldr	r3, [pc, #16]	@ (800185c <main+0x3c>)
 800184a:	2200      	movs	r2, #0
 800184c:	701a      	strb	r2, [r3, #0]
	//I2C_TH_SendByte(0x20, 0x03);
	while(1) {
		DS18B20_measure_temperature();
 800184e:	f7ff ffa7 	bl	80017a0 <DS18B20_measure_temperature>
		TH_measure_temperature();
 8001852:	f7ff fc17 	bl	8001084 <TH_measure_temperature>
		DS18B20_measure_temperature();
 8001856:	bf00      	nop
 8001858:	e7f9      	b.n	800184e <main+0x2e>
 800185a:	bf00      	nop
 800185c:	200001fc 	.word	0x200001fc

08001860 <_getpid>:
void initialise_monitor_handles()
{
}

int _getpid(void)
{
 8001860:	b480      	push	{r7}
 8001862:	af00      	add	r7, sp, #0
  return 1;
 8001864:	2301      	movs	r3, #1
}
 8001866:	4618      	mov	r0, r3
 8001868:	46bd      	mov	sp, r7
 800186a:	bc80      	pop	{r7}
 800186c:	4770      	bx	lr

0800186e <_kill>:

int _kill(int pid, int sig)
{
 800186e:	b580      	push	{r7, lr}
 8001870:	b082      	sub	sp, #8
 8001872:	af00      	add	r7, sp, #0
 8001874:	6078      	str	r0, [r7, #4]
 8001876:	6039      	str	r1, [r7, #0]
  (void)pid;
  (void)sig;
  errno = EINVAL;
 8001878:	f000 fe92 	bl	80025a0 <__errno>
 800187c:	4603      	mov	r3, r0
 800187e:	2216      	movs	r2, #22
 8001880:	601a      	str	r2, [r3, #0]
  return -1;
 8001882:	f04f 33ff 	mov.w	r3, #4294967295
}
 8001886:	4618      	mov	r0, r3
 8001888:	3708      	adds	r7, #8
 800188a:	46bd      	mov	sp, r7
 800188c:	bd80      	pop	{r7, pc}

0800188e <_exit>:

void _exit (int status)
{
 800188e:	b580      	push	{r7, lr}
 8001890:	b082      	sub	sp, #8
 8001892:	af00      	add	r7, sp, #0
 8001894:	6078      	str	r0, [r7, #4]
  _kill(status, -1);
 8001896:	f04f 31ff 	mov.w	r1, #4294967295
 800189a:	6878      	ldr	r0, [r7, #4]
 800189c:	f7ff ffe7 	bl	800186e <_kill>
  while (1) {}    /* Make sure we hang here */
 80018a0:	bf00      	nop
 80018a2:	e7fd      	b.n	80018a0 <_exit+0x12>

080018a4 <_read>:
}

__attribute__((weak)) int _read(int file, char *ptr, int len)
{
 80018a4:	b580      	push	{r7, lr}
 80018a6:	b086      	sub	sp, #24
 80018a8:	af00      	add	r7, sp, #0
 80018aa:	60f8      	str	r0, [r7, #12]
 80018ac:	60b9      	str	r1, [r7, #8]
 80018ae:	607a      	str	r2, [r7, #4]
  (void)file;
  int DataIdx;

  for (DataIdx = 0; DataIdx < len; DataIdx++)
 80018b0:	2300      	movs	r3, #0
 80018b2:	617b      	str	r3, [r7, #20]
 80018b4:	e00a      	b.n	80018cc <_read+0x28>
  {
    *ptr++ = __io_getchar();
 80018b6:	f3af 8000 	nop.w
 80018ba:	4601      	mov	r1, r0
 80018bc:	68bb      	ldr	r3, [r7, #8]
 80018be:	1c5a      	adds	r2, r3, #1
 80018c0:	60ba      	str	r2, [r7, #8]
 80018c2:	b2ca      	uxtb	r2, r1
 80018c4:	701a      	strb	r2, [r3, #0]
  for (DataIdx = 0; DataIdx < len; DataIdx++)
 80018c6:	697b      	ldr	r3, [r7, #20]
 80018c8:	3301      	adds	r3, #1
 80018ca:	617b      	str	r3, [r7, #20]
 80018cc:	697a      	ldr	r2, [r7, #20]
 80018ce:	687b      	ldr	r3, [r7, #4]
 80018d0:	429a      	cmp	r2, r3
 80018d2:	dbf0      	blt.n	80018b6 <_read+0x12>
  }

  return len;
 80018d4:	687b      	ldr	r3, [r7, #4]
}
 80018d6:	4618      	mov	r0, r3
 80018d8:	3718      	adds	r7, #24
 80018da:	46bd      	mov	sp, r7
 80018dc:	bd80      	pop	{r7, pc}

080018de <_write>:

__attribute__((weak)) int _write(int file, char *ptr, int len)
{
 80018de:	b580      	push	{r7, lr}
 80018e0:	b086      	sub	sp, #24
 80018e2:	af00      	add	r7, sp, #0
 80018e4:	60f8      	str	r0, [r7, #12]
 80018e6:	60b9      	str	r1, [r7, #8]
 80018e8:	607a      	str	r2, [r7, #4]
  (void)file;
  int DataIdx;

  for (DataIdx = 0; DataIdx < len; DataIdx++)
 80018ea:	2300      	movs	r3, #0
 80018ec:	617b      	str	r3, [r7, #20]
 80018ee:	e009      	b.n	8001904 <_write+0x26>
  {
    __io_putchar(*ptr++);
 80018f0:	68bb      	ldr	r3, [r7, #8]
 80018f2:	1c5a      	adds	r2, r3, #1
 80018f4:	60ba      	str	r2, [r7, #8]
 80018f6:	781b      	ldrb	r3, [r3, #0]
 80018f8:	4618      	mov	r0, r3
 80018fa:	f7ff ff81 	bl	8001800 <__io_putchar>
  for (DataIdx = 0; DataIdx < len; DataIdx++)
 80018fe:	697b      	ldr	r3, [r7, #20]
 8001900:	3301      	adds	r3, #1
 8001902:	617b      	str	r3, [r7, #20]
 8001904:	697a      	ldr	r2, [r7, #20]
 8001906:	687b      	ldr	r3, [r7, #4]
 8001908:	429a      	cmp	r2, r3
 800190a:	dbf1      	blt.n	80018f0 <_write+0x12>
  }
  return len;
 800190c:	687b      	ldr	r3, [r7, #4]
}
 800190e:	4618      	mov	r0, r3
 8001910:	3718      	adds	r7, #24
 8001912:	46bd      	mov	sp, r7
 8001914:	bd80      	pop	{r7, pc}

08001916 <_close>:

int _close(int file)
{
 8001916:	b480      	push	{r7}
 8001918:	b083      	sub	sp, #12
 800191a:	af00      	add	r7, sp, #0
 800191c:	6078      	str	r0, [r7, #4]
  (void)file;
  return -1;
 800191e:	f04f 33ff 	mov.w	r3, #4294967295
}
 8001922:	4618      	mov	r0, r3
 8001924:	370c      	adds	r7, #12
 8001926:	46bd      	mov	sp, r7
 8001928:	bc80      	pop	{r7}
 800192a:	4770      	bx	lr

0800192c <_fstat>:


int _fstat(int file, struct stat *st)
{
 800192c:	b480      	push	{r7}
 800192e:	b083      	sub	sp, #12
 8001930:	af00      	add	r7, sp, #0
 8001932:	6078      	str	r0, [r7, #4]
 8001934:	6039      	str	r1, [r7, #0]
  (void)file;
  st->st_mode = S_IFCHR;
 8001936:	683b      	ldr	r3, [r7, #0]
 8001938:	f44f 5200 	mov.w	r2, #8192	@ 0x2000
 800193c:	605a      	str	r2, [r3, #4]
  return 0;
 800193e:	2300      	movs	r3, #0
}
 8001940:	4618      	mov	r0, r3
 8001942:	370c      	adds	r7, #12
 8001944:	46bd      	mov	sp, r7
 8001946:	bc80      	pop	{r7}
 8001948:	4770      	bx	lr

0800194a <_isatty>:

int _isatty(int file)
{
 800194a:	b480      	push	{r7}
 800194c:	b083      	sub	sp, #12
 800194e:	af00      	add	r7, sp, #0
 8001950:	6078      	str	r0, [r7, #4]
  (void)file;
  return 1;
 8001952:	2301      	movs	r3, #1
}
 8001954:	4618      	mov	r0, r3
 8001956:	370c      	adds	r7, #12
 8001958:	46bd      	mov	sp, r7
 800195a:	bc80      	pop	{r7}
 800195c:	4770      	bx	lr

0800195e <_lseek>:

int _lseek(int file, int ptr, int dir)
{
 800195e:	b480      	push	{r7}
 8001960:	b085      	sub	sp, #20
 8001962:	af00      	add	r7, sp, #0
 8001964:	60f8      	str	r0, [r7, #12]
 8001966:	60b9      	str	r1, [r7, #8]
 8001968:	607a      	str	r2, [r7, #4]
  (void)file;
  (void)ptr;
  (void)dir;
  return 0;
 800196a:	2300      	movs	r3, #0
}
 800196c:	4618      	mov	r0, r3
 800196e:	3714      	adds	r7, #20
 8001970:	46bd      	mov	sp, r7
 8001972:	bc80      	pop	{r7}
 8001974:	4770      	bx	lr
	...

08001978 <_sbrk>:
 *
 * @param incr Memory size
 * @return Pointer to allocated memory
 */
void *_sbrk(ptrdiff_t incr)
{
 8001978:	b580      	push	{r7, lr}
 800197a:	b086      	sub	sp, #24
 800197c:	af00      	add	r7, sp, #0
 800197e:	6078      	str	r0, [r7, #4]
  extern uint8_t _end; /* Symbol defined in the linker script */
  extern uint8_t _estack; /* Symbol defined in the linker script */
  extern uint32_t _Min_Stack_Size; /* Symbol defined in the linker script */
  const uint32_t stack_limit = (uint32_t)&_estack - (uint32_t)&_Min_Stack_Size;
 8001980:	4a14      	ldr	r2, [pc, #80]	@ (80019d4 <_sbrk+0x5c>)
 8001982:	4b15      	ldr	r3, [pc, #84]	@ (80019d8 <_sbrk+0x60>)
 8001984:	1ad3      	subs	r3, r2, r3
 8001986:	617b      	str	r3, [r7, #20]
  const uint8_t *max_heap = (uint8_t *)stack_limit;
 8001988:	697b      	ldr	r3, [r7, #20]
 800198a:	613b      	str	r3, [r7, #16]
  uint8_t *prev_heap_end;

  /* Initialize heap end at first call */
  if (NULL == __sbrk_heap_end)
 800198c:	4b13      	ldr	r3, [pc, #76]	@ (80019dc <_sbrk+0x64>)
 800198e:	681b      	ldr	r3, [r3, #0]
 8001990:	2b00      	cmp	r3, #0
 8001992:	d102      	bne.n	800199a <_sbrk+0x22>
  {
    __sbrk_heap_end = &_end;
 8001994:	4b11      	ldr	r3, [pc, #68]	@ (80019dc <_sbrk+0x64>)
 8001996:	4a12      	ldr	r2, [pc, #72]	@ (80019e0 <_sbrk+0x68>)
 8001998:	601a      	str	r2, [r3, #0]
  }

  /* Protect heap from growing into the reserved MSP stack */
  if (__sbrk_heap_end + incr > max_heap)
 800199a:	4b10      	ldr	r3, [pc, #64]	@ (80019dc <_sbrk+0x64>)
 800199c:	681a      	ldr	r2, [r3, #0]
 800199e:	687b      	ldr	r3, [r7, #4]
 80019a0:	4413      	add	r3, r2
 80019a2:	693a      	ldr	r2, [r7, #16]
 80019a4:	429a      	cmp	r2, r3
 80019a6:	d207      	bcs.n	80019b8 <_sbrk+0x40>
  {
    errno = ENOMEM;
 80019a8:	f000 fdfa 	bl	80025a0 <__errno>
 80019ac:	4603      	mov	r3, r0
 80019ae:	220c      	movs	r2, #12
 80019b0:	601a      	str	r2, [r3, #0]
    return (void *)-1;
 80019b2:	f04f 33ff 	mov.w	r3, #4294967295
 80019b6:	e009      	b.n	80019cc <_sbrk+0x54>
  }

  prev_heap_end = __sbrk_heap_end;
 80019b8:	4b08      	ldr	r3, [pc, #32]	@ (80019dc <_sbrk+0x64>)
 80019ba:	681b      	ldr	r3, [r3, #0]
 80019bc:	60fb      	str	r3, [r7, #12]
  __sbrk_heap_end += incr;
 80019be:	4b07      	ldr	r3, [pc, #28]	@ (80019dc <_sbrk+0x64>)
 80019c0:	681a      	ldr	r2, [r3, #0]
 80019c2:	687b      	ldr	r3, [r7, #4]
 80019c4:	4413      	add	r3, r2
 80019c6:	4a05      	ldr	r2, [pc, #20]	@ (80019dc <_sbrk+0x64>)
 80019c8:	6013      	str	r3, [r2, #0]

  return (void *)prev_heap_end;
 80019ca:	68fb      	ldr	r3, [r7, #12]
}
 80019cc:	4618      	mov	r0, r3
 80019ce:	3718      	adds	r7, #24
 80019d0:	46bd      	mov	sp, r7
 80019d2:	bd80      	pop	{r7, pc}
 80019d4:	20002800 	.word	0x20002800
 80019d8:	00000400 	.word	0x00000400
 80019dc:	20000210 	.word	0x20000210
 80019e0:	20000360 	.word	0x20000360

080019e4 <Reset_Handler>:
 80019e4:	480d      	ldr	r0, [pc, #52]	@ (8001a1c <LoopForever+0x2>)
 80019e6:	4685      	mov	sp, r0
 80019e8:	f7ff fa20 	bl	8000e2c <SystemInit>
 80019ec:	480c      	ldr	r0, [pc, #48]	@ (8001a20 <LoopForever+0x6>)
 80019ee:	490d      	ldr	r1, [pc, #52]	@ (8001a24 <LoopForever+0xa>)
 80019f0:	4a0d      	ldr	r2, [pc, #52]	@ (8001a28 <LoopForever+0xe>)
 80019f2:	2300      	movs	r3, #0
 80019f4:	e002      	b.n	80019fc <LoopCopyDataInit>

080019f6 <CopyDataInit>:
 80019f6:	58d4      	ldr	r4, [r2, r3]
 80019f8:	50c4      	str	r4, [r0, r3]
 80019fa:	3304      	adds	r3, #4

080019fc <LoopCopyDataInit>:
 80019fc:	18c4      	adds	r4, r0, r3
 80019fe:	428c      	cmp	r4, r1
 8001a00:	d3f9      	bcc.n	80019f6 <CopyDataInit>
 8001a02:	4a0a      	ldr	r2, [pc, #40]	@ (8001a2c <LoopForever+0x12>)
 8001a04:	4c0a      	ldr	r4, [pc, #40]	@ (8001a30 <LoopForever+0x16>)
 8001a06:	2300      	movs	r3, #0
 8001a08:	e001      	b.n	8001a0e <LoopFillZerobss>

08001a0a <FillZerobss>:
 8001a0a:	6013      	str	r3, [r2, #0]
 8001a0c:	3204      	adds	r2, #4

08001a0e <LoopFillZerobss>:
 8001a0e:	42a2      	cmp	r2, r4
 8001a10:	d3fb      	bcc.n	8001a0a <FillZerobss>
 8001a12:	f000 fdcb 	bl	80025ac <__libc_init_array>
 8001a16:	f7ff ff03 	bl	8001820 <main>

08001a1a <LoopForever>:
 8001a1a:	e7fe      	b.n	8001a1a <LoopForever>
 8001a1c:	20002800 	.word	0x20002800
 8001a20:	20000000 	.word	0x20000000
 8001a24:	200001d8 	.word	0x200001d8
 8001a28:	080046e8 	.word	0x080046e8
 8001a2c:	200001d8 	.word	0x200001d8
 8001a30:	20000360 	.word	0x20000360

08001a34 <ADC1_2_IRQHandler>:
 8001a34:	e7fe      	b.n	8001a34 <ADC1_2_IRQHandler>

08001a36 <__cvt>:
 8001a36:	2b00      	cmp	r3, #0
 8001a38:	e92d 47f0 	stmdb	sp!, {r4, r5, r6, r7, r8, r9, sl, lr}
 8001a3c:	461d      	mov	r5, r3
 8001a3e:	bfbb      	ittet	lt
 8001a40:	f103 4300 	addlt.w	r3, r3, #2147483648	@ 0x80000000
 8001a44:	461d      	movlt	r5, r3
 8001a46:	2300      	movge	r3, #0
 8001a48:	232d      	movlt	r3, #45	@ 0x2d
 8001a4a:	b088      	sub	sp, #32
 8001a4c:	4614      	mov	r4, r2
 8001a4e:	bfb8      	it	lt
 8001a50:	4614      	movlt	r4, r2
 8001a52:	9a12      	ldr	r2, [sp, #72]	@ 0x48
 8001a54:	9e10      	ldr	r6, [sp, #64]	@ 0x40
 8001a56:	7013      	strb	r3, [r2, #0]
 8001a58:	9b14      	ldr	r3, [sp, #80]	@ 0x50
 8001a5a:	f8dd a04c 	ldr.w	sl, [sp, #76]	@ 0x4c
 8001a5e:	f023 0820 	bic.w	r8, r3, #32
 8001a62:	f1b8 0f46 	cmp.w	r8, #70	@ 0x46
 8001a66:	d005      	beq.n	8001a74 <__cvt+0x3e>
 8001a68:	f1b8 0f45 	cmp.w	r8, #69	@ 0x45
 8001a6c:	d100      	bne.n	8001a70 <__cvt+0x3a>
 8001a6e:	3601      	adds	r6, #1
 8001a70:	2302      	movs	r3, #2
 8001a72:	e000      	b.n	8001a76 <__cvt+0x40>
 8001a74:	2303      	movs	r3, #3
 8001a76:	aa07      	add	r2, sp, #28
 8001a78:	9204      	str	r2, [sp, #16]
 8001a7a:	aa06      	add	r2, sp, #24
 8001a7c:	e9cd a202 	strd	sl, r2, [sp, #8]
 8001a80:	e9cd 3600 	strd	r3, r6, [sp]
 8001a84:	4622      	mov	r2, r4
 8001a86:	462b      	mov	r3, r5
 8001a88:	f000 fe4e 	bl	8002728 <_dtoa_r>
 8001a8c:	f1b8 0f47 	cmp.w	r8, #71	@ 0x47
 8001a90:	4607      	mov	r7, r0
 8001a92:	d119      	bne.n	8001ac8 <__cvt+0x92>
 8001a94:	9b11      	ldr	r3, [sp, #68]	@ 0x44
 8001a96:	07db      	lsls	r3, r3, #31
 8001a98:	d50e      	bpl.n	8001ab8 <__cvt+0x82>
 8001a9a:	eb00 0906 	add.w	r9, r0, r6
 8001a9e:	2200      	movs	r2, #0
 8001aa0:	2300      	movs	r3, #0
 8001aa2:	4620      	mov	r0, r4
 8001aa4:	4629      	mov	r1, r5
 8001aa6:	f7ff f843 	bl	8000b30 <__aeabi_dcmpeq>
 8001aaa:	b108      	cbz	r0, 8001ab0 <__cvt+0x7a>
 8001aac:	f8cd 901c 	str.w	r9, [sp, #28]
 8001ab0:	2230      	movs	r2, #48	@ 0x30
 8001ab2:	9b07      	ldr	r3, [sp, #28]
 8001ab4:	454b      	cmp	r3, r9
 8001ab6:	d31e      	bcc.n	8001af6 <__cvt+0xc0>
 8001ab8:	4638      	mov	r0, r7
 8001aba:	9b07      	ldr	r3, [sp, #28]
 8001abc:	9a15      	ldr	r2, [sp, #84]	@ 0x54
 8001abe:	1bdb      	subs	r3, r3, r7
 8001ac0:	6013      	str	r3, [r2, #0]
 8001ac2:	b008      	add	sp, #32
 8001ac4:	e8bd 87f0 	ldmia.w	sp!, {r4, r5, r6, r7, r8, r9, sl, pc}
 8001ac8:	f1b8 0f46 	cmp.w	r8, #70	@ 0x46
 8001acc:	eb00 0906 	add.w	r9, r0, r6
 8001ad0:	d1e5      	bne.n	8001a9e <__cvt+0x68>
 8001ad2:	7803      	ldrb	r3, [r0, #0]
 8001ad4:	2b30      	cmp	r3, #48	@ 0x30
 8001ad6:	d10a      	bne.n	8001aee <__cvt+0xb8>
 8001ad8:	2200      	movs	r2, #0
 8001ada:	2300      	movs	r3, #0
 8001adc:	4620      	mov	r0, r4
 8001ade:	4629      	mov	r1, r5
 8001ae0:	f7ff f826 	bl	8000b30 <__aeabi_dcmpeq>
 8001ae4:	b918      	cbnz	r0, 8001aee <__cvt+0xb8>
 8001ae6:	f1c6 0601 	rsb	r6, r6, #1
 8001aea:	f8ca 6000 	str.w	r6, [sl]
 8001aee:	f8da 3000 	ldr.w	r3, [sl]
 8001af2:	4499      	add	r9, r3
 8001af4:	e7d3      	b.n	8001a9e <__cvt+0x68>
 8001af6:	1c59      	adds	r1, r3, #1
 8001af8:	9107      	str	r1, [sp, #28]
 8001afa:	701a      	strb	r2, [r3, #0]
 8001afc:	e7d9      	b.n	8001ab2 <__cvt+0x7c>

08001afe <__exponent>:
 8001afe:	b5f7      	push	{r0, r1, r2, r4, r5, r6, r7, lr}
 8001b00:	2900      	cmp	r1, #0
 8001b02:	bfb6      	itet	lt
 8001b04:	232d      	movlt	r3, #45	@ 0x2d
 8001b06:	232b      	movge	r3, #43	@ 0x2b
 8001b08:	4249      	neglt	r1, r1
 8001b0a:	2909      	cmp	r1, #9
 8001b0c:	7002      	strb	r2, [r0, #0]
 8001b0e:	7043      	strb	r3, [r0, #1]
 8001b10:	dd29      	ble.n	8001b66 <__exponent+0x68>
 8001b12:	f10d 0307 	add.w	r3, sp, #7
 8001b16:	461d      	mov	r5, r3
 8001b18:	270a      	movs	r7, #10
 8001b1a:	fbb1 f6f7 	udiv	r6, r1, r7
 8001b1e:	461a      	mov	r2, r3
 8001b20:	fb07 1416 	mls	r4, r7, r6, r1
 8001b24:	3430      	adds	r4, #48	@ 0x30
 8001b26:	f802 4c01 	strb.w	r4, [r2, #-1]
 8001b2a:	460c      	mov	r4, r1
 8001b2c:	2c63      	cmp	r4, #99	@ 0x63
 8001b2e:	4631      	mov	r1, r6
 8001b30:	f103 33ff 	add.w	r3, r3, #4294967295
 8001b34:	dcf1      	bgt.n	8001b1a <__exponent+0x1c>
 8001b36:	3130      	adds	r1, #48	@ 0x30
 8001b38:	1e94      	subs	r4, r2, #2
 8001b3a:	f803 1c01 	strb.w	r1, [r3, #-1]
 8001b3e:	4623      	mov	r3, r4
 8001b40:	1c41      	adds	r1, r0, #1
 8001b42:	42ab      	cmp	r3, r5
 8001b44:	d30a      	bcc.n	8001b5c <__exponent+0x5e>
 8001b46:	f10d 0309 	add.w	r3, sp, #9
 8001b4a:	1a9b      	subs	r3, r3, r2
 8001b4c:	42ac      	cmp	r4, r5
 8001b4e:	bf88      	it	hi
 8001b50:	2300      	movhi	r3, #0
 8001b52:	3302      	adds	r3, #2
 8001b54:	4403      	add	r3, r0
 8001b56:	1a18      	subs	r0, r3, r0
 8001b58:	b003      	add	sp, #12
 8001b5a:	bdf0      	pop	{r4, r5, r6, r7, pc}
 8001b5c:	f813 6b01 	ldrb.w	r6, [r3], #1
 8001b60:	f801 6f01 	strb.w	r6, [r1, #1]!
 8001b64:	e7ed      	b.n	8001b42 <__exponent+0x44>
 8001b66:	2330      	movs	r3, #48	@ 0x30
 8001b68:	3130      	adds	r1, #48	@ 0x30
 8001b6a:	7083      	strb	r3, [r0, #2]
 8001b6c:	70c1      	strb	r1, [r0, #3]
 8001b6e:	1d03      	adds	r3, r0, #4
 8001b70:	e7f1      	b.n	8001b56 <__exponent+0x58>
	...

08001b74 <_printf_float>:
 8001b74:	e92d 4ff0 	stmdb	sp!, {r4, r5, r6, r7, r8, r9, sl, fp, lr}
 8001b78:	b091      	sub	sp, #68	@ 0x44
 8001b7a:	460c      	mov	r4, r1
 8001b7c:	f8dd 8068 	ldr.w	r8, [sp, #104]	@ 0x68
 8001b80:	4616      	mov	r6, r2
 8001b82:	461f      	mov	r7, r3
 8001b84:	4605      	mov	r5, r0
 8001b86:	f000 fcc1 	bl	800250c <_localeconv_r>
 8001b8a:	6803      	ldr	r3, [r0, #0]
 8001b8c:	4618      	mov	r0, r3
 8001b8e:	9308      	str	r3, [sp, #32]
 8001b90:	f7fe faee 	bl	8000170 <strlen>
 8001b94:	2300      	movs	r3, #0
 8001b96:	930e      	str	r3, [sp, #56]	@ 0x38
 8001b98:	f8d8 3000 	ldr.w	r3, [r8]
 8001b9c:	9009      	str	r0, [sp, #36]	@ 0x24
 8001b9e:	3307      	adds	r3, #7
 8001ba0:	f023 0307 	bic.w	r3, r3, #7
 8001ba4:	f103 0208 	add.w	r2, r3, #8
 8001ba8:	f894 a018 	ldrb.w	sl, [r4, #24]
 8001bac:	f8d4 b000 	ldr.w	fp, [r4]
 8001bb0:	f8c8 2000 	str.w	r2, [r8]
 8001bb4:	e9d3 8900 	ldrd	r8, r9, [r3]
 8001bb8:	f029 4300 	bic.w	r3, r9, #2147483648	@ 0x80000000
 8001bbc:	930b      	str	r3, [sp, #44]	@ 0x2c
 8001bbe:	f8cd 8028 	str.w	r8, [sp, #40]	@ 0x28
 8001bc2:	f04f 32ff 	mov.w	r2, #4294967295
 8001bc6:	e9dd 010a 	ldrd	r0, r1, [sp, #40]	@ 0x28
 8001bca:	e9c4 8912 	strd	r8, r9, [r4, #72]	@ 0x48
 8001bce:	4b9c      	ldr	r3, [pc, #624]	@ (8001e40 <_printf_float+0x2cc>)
 8001bd0:	f7fe ffe0 	bl	8000b94 <__aeabi_dcmpun>
 8001bd4:	bb70      	cbnz	r0, 8001c34 <_printf_float+0xc0>
 8001bd6:	e9dd 010a 	ldrd	r0, r1, [sp, #40]	@ 0x28
 8001bda:	f04f 32ff 	mov.w	r2, #4294967295
 8001bde:	4b98      	ldr	r3, [pc, #608]	@ (8001e40 <_printf_float+0x2cc>)
 8001be0:	f7fe ffba 	bl	8000b58 <__aeabi_dcmple>
 8001be4:	bb30      	cbnz	r0, 8001c34 <_printf_float+0xc0>
 8001be6:	2200      	movs	r2, #0
 8001be8:	2300      	movs	r3, #0
 8001bea:	4640      	mov	r0, r8
 8001bec:	4649      	mov	r1, r9
 8001bee:	f7fe ffa9 	bl	8000b44 <__aeabi_dcmplt>
 8001bf2:	b110      	cbz	r0, 8001bfa <_printf_float+0x86>
 8001bf4:	232d      	movs	r3, #45	@ 0x2d
 8001bf6:	f884 3043 	strb.w	r3, [r4, #67]	@ 0x43
 8001bfa:	4a92      	ldr	r2, [pc, #584]	@ (8001e44 <_printf_float+0x2d0>)
 8001bfc:	4b92      	ldr	r3, [pc, #584]	@ (8001e48 <_printf_float+0x2d4>)
 8001bfe:	f1ba 0f47 	cmp.w	sl, #71	@ 0x47
 8001c02:	bf94      	ite	ls
 8001c04:	4690      	movls	r8, r2
 8001c06:	4698      	movhi	r8, r3
 8001c08:	2303      	movs	r3, #3
 8001c0a:	f04f 0900 	mov.w	r9, #0
 8001c0e:	6123      	str	r3, [r4, #16]
 8001c10:	f02b 0304 	bic.w	r3, fp, #4
 8001c14:	6023      	str	r3, [r4, #0]
 8001c16:	4633      	mov	r3, r6
 8001c18:	4621      	mov	r1, r4
 8001c1a:	4628      	mov	r0, r5
 8001c1c:	9700      	str	r7, [sp, #0]
 8001c1e:	aa0f      	add	r2, sp, #60	@ 0x3c
 8001c20:	f000 f9d4 	bl	8001fcc <_printf_common>
 8001c24:	3001      	adds	r0, #1
 8001c26:	f040 8090 	bne.w	8001d4a <_printf_float+0x1d6>
 8001c2a:	f04f 30ff 	mov.w	r0, #4294967295
 8001c2e:	b011      	add	sp, #68	@ 0x44
 8001c30:	e8bd 8ff0 	ldmia.w	sp!, {r4, r5, r6, r7, r8, r9, sl, fp, pc}
 8001c34:	4642      	mov	r2, r8
 8001c36:	464b      	mov	r3, r9
 8001c38:	4640      	mov	r0, r8
 8001c3a:	4649      	mov	r1, r9
 8001c3c:	f7fe ffaa 	bl	8000b94 <__aeabi_dcmpun>
 8001c40:	b148      	cbz	r0, 8001c56 <_printf_float+0xe2>
 8001c42:	464b      	mov	r3, r9
 8001c44:	2b00      	cmp	r3, #0
 8001c46:	bfb8      	it	lt
 8001c48:	232d      	movlt	r3, #45	@ 0x2d
 8001c4a:	4a80      	ldr	r2, [pc, #512]	@ (8001e4c <_printf_float+0x2d8>)
 8001c4c:	bfb8      	it	lt
 8001c4e:	f884 3043 	strblt.w	r3, [r4, #67]	@ 0x43
 8001c52:	4b7f      	ldr	r3, [pc, #508]	@ (8001e50 <_printf_float+0x2dc>)
 8001c54:	e7d3      	b.n	8001bfe <_printf_float+0x8a>
 8001c56:	6863      	ldr	r3, [r4, #4]
 8001c58:	f00a 01df 	and.w	r1, sl, #223	@ 0xdf
 8001c5c:	1c5a      	adds	r2, r3, #1
 8001c5e:	d13f      	bne.n	8001ce0 <_printf_float+0x16c>
 8001c60:	2306      	movs	r3, #6
 8001c62:	6063      	str	r3, [r4, #4]
 8001c64:	2200      	movs	r2, #0
 8001c66:	f44b 6380 	orr.w	r3, fp, #1024	@ 0x400
 8001c6a:	6023      	str	r3, [r4, #0]
 8001c6c:	9206      	str	r2, [sp, #24]
 8001c6e:	aa0e      	add	r2, sp, #56	@ 0x38
 8001c70:	e9cd a204 	strd	sl, r2, [sp, #16]
 8001c74:	aa0d      	add	r2, sp, #52	@ 0x34
 8001c76:	9203      	str	r2, [sp, #12]
 8001c78:	f10d 0233 	add.w	r2, sp, #51	@ 0x33
 8001c7c:	e9cd 3201 	strd	r3, r2, [sp, #4]
 8001c80:	6863      	ldr	r3, [r4, #4]
 8001c82:	4642      	mov	r2, r8
 8001c84:	9300      	str	r3, [sp, #0]
 8001c86:	4628      	mov	r0, r5
 8001c88:	464b      	mov	r3, r9
 8001c8a:	910a      	str	r1, [sp, #40]	@ 0x28
 8001c8c:	f7ff fed3 	bl	8001a36 <__cvt>
 8001c90:	990a      	ldr	r1, [sp, #40]	@ 0x28
 8001c92:	4680      	mov	r8, r0
 8001c94:	2947      	cmp	r1, #71	@ 0x47
 8001c96:	990d      	ldr	r1, [sp, #52]	@ 0x34
 8001c98:	d128      	bne.n	8001cec <_printf_float+0x178>
 8001c9a:	1cc8      	adds	r0, r1, #3
 8001c9c:	db02      	blt.n	8001ca4 <_printf_float+0x130>
 8001c9e:	6863      	ldr	r3, [r4, #4]
 8001ca0:	4299      	cmp	r1, r3
 8001ca2:	dd40      	ble.n	8001d26 <_printf_float+0x1b2>
 8001ca4:	f1aa 0a02 	sub.w	sl, sl, #2
 8001ca8:	fa5f fa8a 	uxtb.w	sl, sl
 8001cac:	4652      	mov	r2, sl
 8001cae:	3901      	subs	r1, #1
 8001cb0:	f104 0050 	add.w	r0, r4, #80	@ 0x50
 8001cb4:	910d      	str	r1, [sp, #52]	@ 0x34
 8001cb6:	f7ff ff22 	bl	8001afe <__exponent>
 8001cba:	9a0e      	ldr	r2, [sp, #56]	@ 0x38
 8001cbc:	4681      	mov	r9, r0
 8001cbe:	1813      	adds	r3, r2, r0
 8001cc0:	2a01      	cmp	r2, #1
 8001cc2:	6123      	str	r3, [r4, #16]
 8001cc4:	dc02      	bgt.n	8001ccc <_printf_float+0x158>
 8001cc6:	6822      	ldr	r2, [r4, #0]
 8001cc8:	07d2      	lsls	r2, r2, #31
 8001cca:	d501      	bpl.n	8001cd0 <_printf_float+0x15c>
 8001ccc:	3301      	adds	r3, #1
 8001cce:	6123      	str	r3, [r4, #16]
 8001cd0:	f89d 3033 	ldrb.w	r3, [sp, #51]	@ 0x33
 8001cd4:	2b00      	cmp	r3, #0
 8001cd6:	d09e      	beq.n	8001c16 <_printf_float+0xa2>
 8001cd8:	232d      	movs	r3, #45	@ 0x2d
 8001cda:	f884 3043 	strb.w	r3, [r4, #67]	@ 0x43
 8001cde:	e79a      	b.n	8001c16 <_printf_float+0xa2>
 8001ce0:	2947      	cmp	r1, #71	@ 0x47
 8001ce2:	d1bf      	bne.n	8001c64 <_printf_float+0xf0>
 8001ce4:	2b00      	cmp	r3, #0
 8001ce6:	d1bd      	bne.n	8001c64 <_printf_float+0xf0>
 8001ce8:	2301      	movs	r3, #1
 8001cea:	e7ba      	b.n	8001c62 <_printf_float+0xee>
 8001cec:	f1ba 0f65 	cmp.w	sl, #101	@ 0x65
 8001cf0:	d9dc      	bls.n	8001cac <_printf_float+0x138>
 8001cf2:	f1ba 0f66 	cmp.w	sl, #102	@ 0x66
 8001cf6:	d118      	bne.n	8001d2a <_printf_float+0x1b6>
 8001cf8:	2900      	cmp	r1, #0
 8001cfa:	6863      	ldr	r3, [r4, #4]
 8001cfc:	dd0b      	ble.n	8001d16 <_printf_float+0x1a2>
 8001cfe:	6121      	str	r1, [r4, #16]
 8001d00:	b913      	cbnz	r3, 8001d08 <_printf_float+0x194>
 8001d02:	6822      	ldr	r2, [r4, #0]
 8001d04:	07d0      	lsls	r0, r2, #31
 8001d06:	d502      	bpl.n	8001d0e <_printf_float+0x19a>
 8001d08:	3301      	adds	r3, #1
 8001d0a:	440b      	add	r3, r1
 8001d0c:	6123      	str	r3, [r4, #16]
 8001d0e:	f04f 0900 	mov.w	r9, #0
 8001d12:	65a1      	str	r1, [r4, #88]	@ 0x58
 8001d14:	e7dc      	b.n	8001cd0 <_printf_float+0x15c>
 8001d16:	b913      	cbnz	r3, 8001d1e <_printf_float+0x1aa>
 8001d18:	6822      	ldr	r2, [r4, #0]
 8001d1a:	07d2      	lsls	r2, r2, #31
 8001d1c:	d501      	bpl.n	8001d22 <_printf_float+0x1ae>
 8001d1e:	3302      	adds	r3, #2
 8001d20:	e7f4      	b.n	8001d0c <_printf_float+0x198>
 8001d22:	2301      	movs	r3, #1
 8001d24:	e7f2      	b.n	8001d0c <_printf_float+0x198>
 8001d26:	f04f 0a67 	mov.w	sl, #103	@ 0x67
 8001d2a:	9b0e      	ldr	r3, [sp, #56]	@ 0x38
 8001d2c:	4299      	cmp	r1, r3
 8001d2e:	db05      	blt.n	8001d3c <_printf_float+0x1c8>
 8001d30:	6823      	ldr	r3, [r4, #0]
 8001d32:	6121      	str	r1, [r4, #16]
 8001d34:	07d8      	lsls	r0, r3, #31
 8001d36:	d5ea      	bpl.n	8001d0e <_printf_float+0x19a>
 8001d38:	1c4b      	adds	r3, r1, #1
 8001d3a:	e7e7      	b.n	8001d0c <_printf_float+0x198>
 8001d3c:	2900      	cmp	r1, #0
 8001d3e:	bfcc      	ite	gt
 8001d40:	2201      	movgt	r2, #1
 8001d42:	f1c1 0202 	rsble	r2, r1, #2
 8001d46:	4413      	add	r3, r2
 8001d48:	e7e0      	b.n	8001d0c <_printf_float+0x198>
 8001d4a:	6823      	ldr	r3, [r4, #0]
 8001d4c:	055a      	lsls	r2, r3, #21
 8001d4e:	d407      	bmi.n	8001d60 <_printf_float+0x1ec>
 8001d50:	6923      	ldr	r3, [r4, #16]
 8001d52:	4642      	mov	r2, r8
 8001d54:	4631      	mov	r1, r6
 8001d56:	4628      	mov	r0, r5
 8001d58:	47b8      	blx	r7
 8001d5a:	3001      	adds	r0, #1
 8001d5c:	d12b      	bne.n	8001db6 <_printf_float+0x242>
 8001d5e:	e764      	b.n	8001c2a <_printf_float+0xb6>
 8001d60:	f1ba 0f65 	cmp.w	sl, #101	@ 0x65
 8001d64:	f240 80dc 	bls.w	8001f20 <_printf_float+0x3ac>
 8001d68:	e9d4 0112 	ldrd	r0, r1, [r4, #72]	@ 0x48
 8001d6c:	2200      	movs	r2, #0
 8001d6e:	2300      	movs	r3, #0
 8001d70:	f7fe fede 	bl	8000b30 <__aeabi_dcmpeq>
 8001d74:	2800      	cmp	r0, #0
 8001d76:	d033      	beq.n	8001de0 <_printf_float+0x26c>
 8001d78:	2301      	movs	r3, #1
 8001d7a:	4631      	mov	r1, r6
 8001d7c:	4628      	mov	r0, r5
 8001d7e:	4a35      	ldr	r2, [pc, #212]	@ (8001e54 <_printf_float+0x2e0>)
 8001d80:	47b8      	blx	r7
 8001d82:	3001      	adds	r0, #1
 8001d84:	f43f af51 	beq.w	8001c2a <_printf_float+0xb6>
 8001d88:	e9dd 380d 	ldrd	r3, r8, [sp, #52]	@ 0x34
 8001d8c:	4543      	cmp	r3, r8
 8001d8e:	db02      	blt.n	8001d96 <_printf_float+0x222>
 8001d90:	6823      	ldr	r3, [r4, #0]
 8001d92:	07d8      	lsls	r0, r3, #31
 8001d94:	d50f      	bpl.n	8001db6 <_printf_float+0x242>
 8001d96:	e9dd 2308 	ldrd	r2, r3, [sp, #32]
 8001d9a:	4631      	mov	r1, r6
 8001d9c:	4628      	mov	r0, r5
 8001d9e:	47b8      	blx	r7
 8001da0:	3001      	adds	r0, #1
 8001da2:	f43f af42 	beq.w	8001c2a <_printf_float+0xb6>
 8001da6:	f04f 0900 	mov.w	r9, #0
 8001daa:	f108 38ff 	add.w	r8, r8, #4294967295
 8001dae:	f104 0a1a 	add.w	sl, r4, #26
 8001db2:	45c8      	cmp	r8, r9
 8001db4:	dc09      	bgt.n	8001dca <_printf_float+0x256>
 8001db6:	6823      	ldr	r3, [r4, #0]
 8001db8:	079b      	lsls	r3, r3, #30
 8001dba:	f100 8102 	bmi.w	8001fc2 <_printf_float+0x44e>
 8001dbe:	68e0      	ldr	r0, [r4, #12]
 8001dc0:	9b0f      	ldr	r3, [sp, #60]	@ 0x3c
 8001dc2:	4298      	cmp	r0, r3
 8001dc4:	bfb8      	it	lt
 8001dc6:	4618      	movlt	r0, r3
 8001dc8:	e731      	b.n	8001c2e <_printf_float+0xba>
 8001dca:	2301      	movs	r3, #1
 8001dcc:	4652      	mov	r2, sl
 8001dce:	4631      	mov	r1, r6
 8001dd0:	4628      	mov	r0, r5
 8001dd2:	47b8      	blx	r7
 8001dd4:	3001      	adds	r0, #1
 8001dd6:	f43f af28 	beq.w	8001c2a <_printf_float+0xb6>
 8001dda:	f109 0901 	add.w	r9, r9, #1
 8001dde:	e7e8      	b.n	8001db2 <_printf_float+0x23e>
 8001de0:	9b0d      	ldr	r3, [sp, #52]	@ 0x34
 8001de2:	2b00      	cmp	r3, #0
 8001de4:	dc38      	bgt.n	8001e58 <_printf_float+0x2e4>
 8001de6:	2301      	movs	r3, #1
 8001de8:	4631      	mov	r1, r6
 8001dea:	4628      	mov	r0, r5
 8001dec:	4a19      	ldr	r2, [pc, #100]	@ (8001e54 <_printf_float+0x2e0>)
 8001dee:	47b8      	blx	r7
 8001df0:	3001      	adds	r0, #1
 8001df2:	f43f af1a 	beq.w	8001c2a <_printf_float+0xb6>
 8001df6:	e9dd 390d 	ldrd	r3, r9, [sp, #52]	@ 0x34
 8001dfa:	ea59 0303 	orrs.w	r3, r9, r3
 8001dfe:	d102      	bne.n	8001e06 <_printf_float+0x292>
 8001e00:	6823      	ldr	r3, [r4, #0]
 8001e02:	07d9      	lsls	r1, r3, #31
 8001e04:	d5d7      	bpl.n	8001db6 <_printf_float+0x242>
 8001e06:	e9dd 2308 	ldrd	r2, r3, [sp, #32]
 8001e0a:	4631      	mov	r1, r6
 8001e0c:	4628      	mov	r0, r5
 8001e0e:	47b8      	blx	r7
 8001e10:	3001      	adds	r0, #1
 8001e12:	f43f af0a 	beq.w	8001c2a <_printf_float+0xb6>
 8001e16:	f04f 0a00 	mov.w	sl, #0
 8001e1a:	f104 0b1a 	add.w	fp, r4, #26
 8001e1e:	9b0d      	ldr	r3, [sp, #52]	@ 0x34
 8001e20:	425b      	negs	r3, r3
 8001e22:	4553      	cmp	r3, sl
 8001e24:	dc01      	bgt.n	8001e2a <_printf_float+0x2b6>
 8001e26:	464b      	mov	r3, r9
 8001e28:	e793      	b.n	8001d52 <_printf_float+0x1de>
 8001e2a:	2301      	movs	r3, #1
 8001e2c:	465a      	mov	r2, fp
 8001e2e:	4631      	mov	r1, r6
 8001e30:	4628      	mov	r0, r5
 8001e32:	47b8      	blx	r7
 8001e34:	3001      	adds	r0, #1
 8001e36:	f43f aef8 	beq.w	8001c2a <_printf_float+0xb6>
 8001e3a:	f10a 0a01 	add.w	sl, sl, #1
 8001e3e:	e7ee      	b.n	8001e1e <_printf_float+0x2aa>
 8001e40:	7fefffff 	.word	0x7fefffff
 8001e44:	08004368 	.word	0x08004368
 8001e48:	0800436c 	.word	0x0800436c
 8001e4c:	08004370 	.word	0x08004370
 8001e50:	08004374 	.word	0x08004374
 8001e54:	08004378 	.word	0x08004378
 8001e58:	6da3      	ldr	r3, [r4, #88]	@ 0x58
 8001e5a:	f8dd a038 	ldr.w	sl, [sp, #56]	@ 0x38
 8001e5e:	4553      	cmp	r3, sl
 8001e60:	bfa8      	it	ge
 8001e62:	4653      	movge	r3, sl
 8001e64:	2b00      	cmp	r3, #0
 8001e66:	4699      	mov	r9, r3
 8001e68:	dc36      	bgt.n	8001ed8 <_printf_float+0x364>
 8001e6a:	f04f 0b00 	mov.w	fp, #0
 8001e6e:	ea29 79e9 	bic.w	r9, r9, r9, asr #31
 8001e72:	f104 021a 	add.w	r2, r4, #26
 8001e76:	6da3      	ldr	r3, [r4, #88]	@ 0x58
 8001e78:	930a      	str	r3, [sp, #40]	@ 0x28
 8001e7a:	eba3 0309 	sub.w	r3, r3, r9
 8001e7e:	455b      	cmp	r3, fp
 8001e80:	dc31      	bgt.n	8001ee6 <_printf_float+0x372>
 8001e82:	9b0d      	ldr	r3, [sp, #52]	@ 0x34
 8001e84:	459a      	cmp	sl, r3
 8001e86:	dc3a      	bgt.n	8001efe <_printf_float+0x38a>
 8001e88:	6823      	ldr	r3, [r4, #0]
 8001e8a:	07da      	lsls	r2, r3, #31
 8001e8c:	d437      	bmi.n	8001efe <_printf_float+0x38a>
 8001e8e:	9b0d      	ldr	r3, [sp, #52]	@ 0x34
 8001e90:	ebaa 0903 	sub.w	r9, sl, r3
 8001e94:	9b0a      	ldr	r3, [sp, #40]	@ 0x28
 8001e96:	ebaa 0303 	sub.w	r3, sl, r3
 8001e9a:	4599      	cmp	r9, r3
 8001e9c:	bfa8      	it	ge
 8001e9e:	4699      	movge	r9, r3
 8001ea0:	f1b9 0f00 	cmp.w	r9, #0
 8001ea4:	dc33      	bgt.n	8001f0e <_printf_float+0x39a>
 8001ea6:	f04f 0800 	mov.w	r8, #0
 8001eaa:	ea29 79e9 	bic.w	r9, r9, r9, asr #31
 8001eae:	f104 0b1a 	add.w	fp, r4, #26
 8001eb2:	9b0d      	ldr	r3, [sp, #52]	@ 0x34
 8001eb4:	ebaa 0303 	sub.w	r3, sl, r3
 8001eb8:	eba3 0309 	sub.w	r3, r3, r9
 8001ebc:	4543      	cmp	r3, r8
 8001ebe:	f77f af7a 	ble.w	8001db6 <_printf_float+0x242>
 8001ec2:	2301      	movs	r3, #1
 8001ec4:	465a      	mov	r2, fp
 8001ec6:	4631      	mov	r1, r6
 8001ec8:	4628      	mov	r0, r5
 8001eca:	47b8      	blx	r7
 8001ecc:	3001      	adds	r0, #1
 8001ece:	f43f aeac 	beq.w	8001c2a <_printf_float+0xb6>
 8001ed2:	f108 0801 	add.w	r8, r8, #1
 8001ed6:	e7ec      	b.n	8001eb2 <_printf_float+0x33e>
 8001ed8:	4642      	mov	r2, r8
 8001eda:	4631      	mov	r1, r6
 8001edc:	4628      	mov	r0, r5
 8001ede:	47b8      	blx	r7
 8001ee0:	3001      	adds	r0, #1
 8001ee2:	d1c2      	bne.n	8001e6a <_printf_float+0x2f6>
 8001ee4:	e6a1      	b.n	8001c2a <_printf_float+0xb6>
 8001ee6:	2301      	movs	r3, #1
 8001ee8:	4631      	mov	r1, r6
 8001eea:	4628      	mov	r0, r5
 8001eec:	920a      	str	r2, [sp, #40]	@ 0x28
 8001eee:	47b8      	blx	r7
 8001ef0:	3001      	adds	r0, #1
 8001ef2:	f43f ae9a 	beq.w	8001c2a <_printf_float+0xb6>
 8001ef6:	9a0a      	ldr	r2, [sp, #40]	@ 0x28
 8001ef8:	f10b 0b01 	add.w	fp, fp, #1
 8001efc:	e7bb      	b.n	8001e76 <_printf_float+0x302>
 8001efe:	4631      	mov	r1, r6
 8001f00:	e9dd 2308 	ldrd	r2, r3, [sp, #32]
 8001f04:	4628      	mov	r0, r5
 8001f06:	47b8      	blx	r7
 8001f08:	3001      	adds	r0, #1
 8001f0a:	d1c0      	bne.n	8001e8e <_printf_float+0x31a>
 8001f0c:	e68d      	b.n	8001c2a <_printf_float+0xb6>
 8001f0e:	9a0a      	ldr	r2, [sp, #40]	@ 0x28
 8001f10:	464b      	mov	r3, r9
 8001f12:	4631      	mov	r1, r6
 8001f14:	4628      	mov	r0, r5
 8001f16:	4442      	add	r2, r8
 8001f18:	47b8      	blx	r7
 8001f1a:	3001      	adds	r0, #1
 8001f1c:	d1c3      	bne.n	8001ea6 <_printf_float+0x332>
 8001f1e:	e684      	b.n	8001c2a <_printf_float+0xb6>
 8001f20:	f8dd a038 	ldr.w	sl, [sp, #56]	@ 0x38
 8001f24:	f1ba 0f01 	cmp.w	sl, #1
 8001f28:	dc01      	bgt.n	8001f2e <_printf_float+0x3ba>
 8001f2a:	07db      	lsls	r3, r3, #31
 8001f2c:	d536      	bpl.n	8001f9c <_printf_float+0x428>
 8001f2e:	2301      	movs	r3, #1
 8001f30:	4642      	mov	r2, r8
 8001f32:	4631      	mov	r1, r6
 8001f34:	4628      	mov	r0, r5
 8001f36:	47b8      	blx	r7
 8001f38:	3001      	adds	r0, #1
 8001f3a:	f43f ae76 	beq.w	8001c2a <_printf_float+0xb6>
 8001f3e:	e9dd 2308 	ldrd	r2, r3, [sp, #32]
 8001f42:	4631      	mov	r1, r6
 8001f44:	4628      	mov	r0, r5
 8001f46:	47b8      	blx	r7
 8001f48:	3001      	adds	r0, #1
 8001f4a:	f43f ae6e 	beq.w	8001c2a <_printf_float+0xb6>
 8001f4e:	e9d4 0112 	ldrd	r0, r1, [r4, #72]	@ 0x48
 8001f52:	2200      	movs	r2, #0
 8001f54:	2300      	movs	r3, #0
 8001f56:	f10a 3aff 	add.w	sl, sl, #4294967295
 8001f5a:	f7fe fde9 	bl	8000b30 <__aeabi_dcmpeq>
 8001f5e:	b9c0      	cbnz	r0, 8001f92 <_printf_float+0x41e>
 8001f60:	4653      	mov	r3, sl
 8001f62:	f108 0201 	add.w	r2, r8, #1
 8001f66:	4631      	mov	r1, r6
 8001f68:	4628      	mov	r0, r5
 8001f6a:	47b8      	blx	r7
 8001f6c:	3001      	adds	r0, #1
 8001f6e:	d10c      	bne.n	8001f8a <_printf_float+0x416>
 8001f70:	e65b      	b.n	8001c2a <_printf_float+0xb6>
 8001f72:	2301      	movs	r3, #1
 8001f74:	465a      	mov	r2, fp
 8001f76:	4631      	mov	r1, r6
 8001f78:	4628      	mov	r0, r5
 8001f7a:	47b8      	blx	r7
 8001f7c:	3001      	adds	r0, #1
 8001f7e:	f43f ae54 	beq.w	8001c2a <_printf_float+0xb6>
 8001f82:	f108 0801 	add.w	r8, r8, #1
 8001f86:	45d0      	cmp	r8, sl
 8001f88:	dbf3      	blt.n	8001f72 <_printf_float+0x3fe>
 8001f8a:	464b      	mov	r3, r9
 8001f8c:	f104 0250 	add.w	r2, r4, #80	@ 0x50
 8001f90:	e6e0      	b.n	8001d54 <_printf_float+0x1e0>
 8001f92:	f04f 0800 	mov.w	r8, #0
 8001f96:	f104 0b1a 	add.w	fp, r4, #26
 8001f9a:	e7f4      	b.n	8001f86 <_printf_float+0x412>
 8001f9c:	2301      	movs	r3, #1
 8001f9e:	4642      	mov	r2, r8
 8001fa0:	e7e1      	b.n	8001f66 <_printf_float+0x3f2>
 8001fa2:	2301      	movs	r3, #1
 8001fa4:	464a      	mov	r2, r9
 8001fa6:	4631      	mov	r1, r6
 8001fa8:	4628      	mov	r0, r5
 8001faa:	47b8      	blx	r7
 8001fac:	3001      	adds	r0, #1
 8001fae:	f43f ae3c 	beq.w	8001c2a <_printf_float+0xb6>
 8001fb2:	f108 0801 	add.w	r8, r8, #1
 8001fb6:	68e3      	ldr	r3, [r4, #12]
 8001fb8:	990f      	ldr	r1, [sp, #60]	@ 0x3c
 8001fba:	1a5b      	subs	r3, r3, r1
 8001fbc:	4543      	cmp	r3, r8
 8001fbe:	dcf0      	bgt.n	8001fa2 <_printf_float+0x42e>
 8001fc0:	e6fd      	b.n	8001dbe <_printf_float+0x24a>
 8001fc2:	f04f 0800 	mov.w	r8, #0
 8001fc6:	f104 0919 	add.w	r9, r4, #25
 8001fca:	e7f4      	b.n	8001fb6 <_printf_float+0x442>

08001fcc <_printf_common>:
 8001fcc:	e92d 47f0 	stmdb	sp!, {r4, r5, r6, r7, r8, r9, sl, lr}
 8001fd0:	4616      	mov	r6, r2
 8001fd2:	4698      	mov	r8, r3
 8001fd4:	688a      	ldr	r2, [r1, #8]
 8001fd6:	690b      	ldr	r3, [r1, #16]
 8001fd8:	4607      	mov	r7, r0
 8001fda:	4293      	cmp	r3, r2
 8001fdc:	bfb8      	it	lt
 8001fde:	4613      	movlt	r3, r2
 8001fe0:	6033      	str	r3, [r6, #0]
 8001fe2:	f891 2043 	ldrb.w	r2, [r1, #67]	@ 0x43
 8001fe6:	460c      	mov	r4, r1
 8001fe8:	f8dd 9020 	ldr.w	r9, [sp, #32]
 8001fec:	b10a      	cbz	r2, 8001ff2 <_printf_common+0x26>
 8001fee:	3301      	adds	r3, #1
 8001ff0:	6033      	str	r3, [r6, #0]
 8001ff2:	6823      	ldr	r3, [r4, #0]
 8001ff4:	0699      	lsls	r1, r3, #26
 8001ff6:	bf42      	ittt	mi
 8001ff8:	6833      	ldrmi	r3, [r6, #0]
 8001ffa:	3302      	addmi	r3, #2
 8001ffc:	6033      	strmi	r3, [r6, #0]
 8001ffe:	6825      	ldr	r5, [r4, #0]
 8002000:	f015 0506 	ands.w	r5, r5, #6
 8002004:	d106      	bne.n	8002014 <_printf_common+0x48>
 8002006:	f104 0a19 	add.w	sl, r4, #25
 800200a:	68e3      	ldr	r3, [r4, #12]
 800200c:	6832      	ldr	r2, [r6, #0]
 800200e:	1a9b      	subs	r3, r3, r2
 8002010:	42ab      	cmp	r3, r5
 8002012:	dc2b      	bgt.n	800206c <_printf_common+0xa0>
 8002014:	f894 3043 	ldrb.w	r3, [r4, #67]	@ 0x43
 8002018:	6822      	ldr	r2, [r4, #0]
 800201a:	3b00      	subs	r3, #0
 800201c:	bf18      	it	ne
 800201e:	2301      	movne	r3, #1
 8002020:	0692      	lsls	r2, r2, #26
 8002022:	d430      	bmi.n	8002086 <_printf_common+0xba>
 8002024:	4641      	mov	r1, r8
 8002026:	4638      	mov	r0, r7
 8002028:	f104 0243 	add.w	r2, r4, #67	@ 0x43
 800202c:	47c8      	blx	r9
 800202e:	3001      	adds	r0, #1
 8002030:	d023      	beq.n	800207a <_printf_common+0xae>
 8002032:	6823      	ldr	r3, [r4, #0]
 8002034:	6922      	ldr	r2, [r4, #16]
 8002036:	f003 0306 	and.w	r3, r3, #6
 800203a:	2b04      	cmp	r3, #4
 800203c:	bf14      	ite	ne
 800203e:	2500      	movne	r5, #0
 8002040:	6833      	ldreq	r3, [r6, #0]
 8002042:	f04f 0600 	mov.w	r6, #0
 8002046:	bf08      	it	eq
 8002048:	68e5      	ldreq	r5, [r4, #12]
 800204a:	f104 041a 	add.w	r4, r4, #26
 800204e:	bf08      	it	eq
 8002050:	1aed      	subeq	r5, r5, r3
 8002052:	f854 3c12 	ldr.w	r3, [r4, #-18]
 8002056:	bf08      	it	eq
 8002058:	ea25 75e5 	biceq.w	r5, r5, r5, asr #31
 800205c:	4293      	cmp	r3, r2
 800205e:	bfc4      	itt	gt
 8002060:	1a9b      	subgt	r3, r3, r2
 8002062:	18ed      	addgt	r5, r5, r3
 8002064:	42b5      	cmp	r5, r6
 8002066:	d11a      	bne.n	800209e <_printf_common+0xd2>
 8002068:	2000      	movs	r0, #0
 800206a:	e008      	b.n	800207e <_printf_common+0xb2>
 800206c:	2301      	movs	r3, #1
 800206e:	4652      	mov	r2, sl
 8002070:	4641      	mov	r1, r8
 8002072:	4638      	mov	r0, r7
 8002074:	47c8      	blx	r9
 8002076:	3001      	adds	r0, #1
 8002078:	d103      	bne.n	8002082 <_printf_common+0xb6>
 800207a:	f04f 30ff 	mov.w	r0, #4294967295
 800207e:	e8bd 87f0 	ldmia.w	sp!, {r4, r5, r6, r7, r8, r9, sl, pc}
 8002082:	3501      	adds	r5, #1
 8002084:	e7c1      	b.n	800200a <_printf_common+0x3e>
 8002086:	2030      	movs	r0, #48	@ 0x30
 8002088:	18e1      	adds	r1, r4, r3
 800208a:	f881 0043 	strb.w	r0, [r1, #67]	@ 0x43
 800208e:	1c5a      	adds	r2, r3, #1
 8002090:	f894 1045 	ldrb.w	r1, [r4, #69]	@ 0x45
 8002094:	4422      	add	r2, r4
 8002096:	3302      	adds	r3, #2
 8002098:	f882 1043 	strb.w	r1, [r2, #67]	@ 0x43
 800209c:	e7c2      	b.n	8002024 <_printf_common+0x58>
 800209e:	2301      	movs	r3, #1
 80020a0:	4622      	mov	r2, r4
 80020a2:	4641      	mov	r1, r8
 80020a4:	4638      	mov	r0, r7
 80020a6:	47c8      	blx	r9
 80020a8:	3001      	adds	r0, #1
 80020aa:	d0e6      	beq.n	800207a <_printf_common+0xae>
 80020ac:	3601      	adds	r6, #1
 80020ae:	e7d9      	b.n	8002064 <_printf_common+0x98>

080020b0 <_printf_i>:
 80020b0:	e92d 47ff 	stmdb	sp!, {r0, r1, r2, r3, r4, r5, r6, r7, r8, r9, sl, lr}
 80020b4:	7e0f      	ldrb	r7, [r1, #24]
 80020b6:	4691      	mov	r9, r2
 80020b8:	2f78      	cmp	r7, #120	@ 0x78
 80020ba:	4680      	mov	r8, r0
 80020bc:	460c      	mov	r4, r1
 80020be:	469a      	mov	sl, r3
 80020c0:	9e0c      	ldr	r6, [sp, #48]	@ 0x30
 80020c2:	f101 0243 	add.w	r2, r1, #67	@ 0x43
 80020c6:	d807      	bhi.n	80020d8 <_printf_i+0x28>
 80020c8:	2f62      	cmp	r7, #98	@ 0x62
 80020ca:	d80a      	bhi.n	80020e2 <_printf_i+0x32>
 80020cc:	2f00      	cmp	r7, #0
 80020ce:	f000 80d3 	beq.w	8002278 <_printf_i+0x1c8>
 80020d2:	2f58      	cmp	r7, #88	@ 0x58
 80020d4:	f000 80ba 	beq.w	800224c <_printf_i+0x19c>
 80020d8:	f104 0642 	add.w	r6, r4, #66	@ 0x42
 80020dc:	f884 7042 	strb.w	r7, [r4, #66]	@ 0x42
 80020e0:	e03a      	b.n	8002158 <_printf_i+0xa8>
 80020e2:	f1a7 0363 	sub.w	r3, r7, #99	@ 0x63
 80020e6:	2b15      	cmp	r3, #21
 80020e8:	d8f6      	bhi.n	80020d8 <_printf_i+0x28>
 80020ea:	a101      	add	r1, pc, #4	@ (adr r1, 80020f0 <_printf_i+0x40>)
 80020ec:	f851 f023 	ldr.w	pc, [r1, r3, lsl #2]
 80020f0:	08002149 	.word	0x08002149
 80020f4:	0800215d 	.word	0x0800215d
 80020f8:	080020d9 	.word	0x080020d9
 80020fc:	080020d9 	.word	0x080020d9
 8002100:	080020d9 	.word	0x080020d9
 8002104:	080020d9 	.word	0x080020d9
 8002108:	0800215d 	.word	0x0800215d
 800210c:	080020d9 	.word	0x080020d9
 8002110:	080020d9 	.word	0x080020d9
 8002114:	080020d9 	.word	0x080020d9
 8002118:	080020d9 	.word	0x080020d9
 800211c:	0800225f 	.word	0x0800225f
 8002120:	08002187 	.word	0x08002187
 8002124:	08002219 	.word	0x08002219
 8002128:	080020d9 	.word	0x080020d9
 800212c:	080020d9 	.word	0x080020d9
 8002130:	08002281 	.word	0x08002281
 8002134:	080020d9 	.word	0x080020d9
 8002138:	08002187 	.word	0x08002187
 800213c:	080020d9 	.word	0x080020d9
 8002140:	080020d9 	.word	0x080020d9
 8002144:	08002221 	.word	0x08002221
 8002148:	6833      	ldr	r3, [r6, #0]
 800214a:	1d1a      	adds	r2, r3, #4
 800214c:	681b      	ldr	r3, [r3, #0]
 800214e:	6032      	str	r2, [r6, #0]
 8002150:	f104 0642 	add.w	r6, r4, #66	@ 0x42
 8002154:	f884 3042 	strb.w	r3, [r4, #66]	@ 0x42
 8002158:	2301      	movs	r3, #1
 800215a:	e09e      	b.n	800229a <_printf_i+0x1ea>
 800215c:	6833      	ldr	r3, [r6, #0]
 800215e:	6820      	ldr	r0, [r4, #0]
 8002160:	1d19      	adds	r1, r3, #4
 8002162:	6031      	str	r1, [r6, #0]
 8002164:	0606      	lsls	r6, r0, #24
 8002166:	d501      	bpl.n	800216c <_printf_i+0xbc>
 8002168:	681d      	ldr	r5, [r3, #0]
 800216a:	e003      	b.n	8002174 <_printf_i+0xc4>
 800216c:	0645      	lsls	r5, r0, #25
 800216e:	d5fb      	bpl.n	8002168 <_printf_i+0xb8>
 8002170:	f9b3 5000 	ldrsh.w	r5, [r3]
 8002174:	2d00      	cmp	r5, #0
 8002176:	da03      	bge.n	8002180 <_printf_i+0xd0>
 8002178:	232d      	movs	r3, #45	@ 0x2d
 800217a:	426d      	negs	r5, r5
 800217c:	f884 3043 	strb.w	r3, [r4, #67]	@ 0x43
 8002180:	230a      	movs	r3, #10
 8002182:	4859      	ldr	r0, [pc, #356]	@ (80022e8 <_printf_i+0x238>)
 8002184:	e011      	b.n	80021aa <_printf_i+0xfa>
 8002186:	6821      	ldr	r1, [r4, #0]
 8002188:	6833      	ldr	r3, [r6, #0]
 800218a:	0608      	lsls	r0, r1, #24
 800218c:	f853 5b04 	ldr.w	r5, [r3], #4
 8002190:	d402      	bmi.n	8002198 <_printf_i+0xe8>
 8002192:	0649      	lsls	r1, r1, #25
 8002194:	bf48      	it	mi
 8002196:	b2ad      	uxthmi	r5, r5
 8002198:	2f6f      	cmp	r7, #111	@ 0x6f
 800219a:	6033      	str	r3, [r6, #0]
 800219c:	bf14      	ite	ne
 800219e:	230a      	movne	r3, #10
 80021a0:	2308      	moveq	r3, #8
 80021a2:	4851      	ldr	r0, [pc, #324]	@ (80022e8 <_printf_i+0x238>)
 80021a4:	2100      	movs	r1, #0
 80021a6:	f884 1043 	strb.w	r1, [r4, #67]	@ 0x43
 80021aa:	6866      	ldr	r6, [r4, #4]
 80021ac:	2e00      	cmp	r6, #0
 80021ae:	bfa8      	it	ge
 80021b0:	6821      	ldrge	r1, [r4, #0]
 80021b2:	60a6      	str	r6, [r4, #8]
 80021b4:	bfa4      	itt	ge
 80021b6:	f021 0104 	bicge.w	r1, r1, #4
 80021ba:	6021      	strge	r1, [r4, #0]
 80021bc:	b90d      	cbnz	r5, 80021c2 <_printf_i+0x112>
 80021be:	2e00      	cmp	r6, #0
 80021c0:	d04b      	beq.n	800225a <_printf_i+0x1aa>
 80021c2:	4616      	mov	r6, r2
 80021c4:	fbb5 f1f3 	udiv	r1, r5, r3
 80021c8:	fb03 5711 	mls	r7, r3, r1, r5
 80021cc:	5dc7      	ldrb	r7, [r0, r7]
 80021ce:	f806 7d01 	strb.w	r7, [r6, #-1]!
 80021d2:	462f      	mov	r7, r5
 80021d4:	42bb      	cmp	r3, r7
 80021d6:	460d      	mov	r5, r1
 80021d8:	d9f4      	bls.n	80021c4 <_printf_i+0x114>
 80021da:	2b08      	cmp	r3, #8
 80021dc:	d10b      	bne.n	80021f6 <_printf_i+0x146>
 80021de:	6823      	ldr	r3, [r4, #0]
 80021e0:	07df      	lsls	r7, r3, #31
 80021e2:	d508      	bpl.n	80021f6 <_printf_i+0x146>
 80021e4:	6923      	ldr	r3, [r4, #16]
 80021e6:	6861      	ldr	r1, [r4, #4]
 80021e8:	4299      	cmp	r1, r3
 80021ea:	bfde      	ittt	le
 80021ec:	2330      	movle	r3, #48	@ 0x30
 80021ee:	f806 3c01 	strble.w	r3, [r6, #-1]
 80021f2:	f106 36ff 	addle.w	r6, r6, #4294967295
 80021f6:	1b92      	subs	r2, r2, r6
 80021f8:	6122      	str	r2, [r4, #16]
 80021fa:	464b      	mov	r3, r9
 80021fc:	4621      	mov	r1, r4
 80021fe:	4640      	mov	r0, r8
 8002200:	f8cd a000 	str.w	sl, [sp]
 8002204:	aa03      	add	r2, sp, #12
 8002206:	f7ff fee1 	bl	8001fcc <_printf_common>
 800220a:	3001      	adds	r0, #1
 800220c:	d14a      	bne.n	80022a4 <_printf_i+0x1f4>
 800220e:	f04f 30ff 	mov.w	r0, #4294967295
 8002212:	b004      	add	sp, #16
 8002214:	e8bd 87f0 	ldmia.w	sp!, {r4, r5, r6, r7, r8, r9, sl, pc}
 8002218:	6823      	ldr	r3, [r4, #0]
 800221a:	f043 0320 	orr.w	r3, r3, #32
 800221e:	6023      	str	r3, [r4, #0]
 8002220:	2778      	movs	r7, #120	@ 0x78
 8002222:	4832      	ldr	r0, [pc, #200]	@ (80022ec <_printf_i+0x23c>)
 8002224:	f884 7045 	strb.w	r7, [r4, #69]	@ 0x45
 8002228:	6823      	ldr	r3, [r4, #0]
 800222a:	6831      	ldr	r1, [r6, #0]
 800222c:	061f      	lsls	r7, r3, #24
 800222e:	f851 5b04 	ldr.w	r5, [r1], #4
 8002232:	d402      	bmi.n	800223a <_printf_i+0x18a>
 8002234:	065f      	lsls	r7, r3, #25
 8002236:	bf48      	it	mi
 8002238:	b2ad      	uxthmi	r5, r5
 800223a:	6031      	str	r1, [r6, #0]
 800223c:	07d9      	lsls	r1, r3, #31
 800223e:	bf44      	itt	mi
 8002240:	f043 0320 	orrmi.w	r3, r3, #32
 8002244:	6023      	strmi	r3, [r4, #0]
 8002246:	b11d      	cbz	r5, 8002250 <_printf_i+0x1a0>
 8002248:	2310      	movs	r3, #16
 800224a:	e7ab      	b.n	80021a4 <_printf_i+0xf4>
 800224c:	4826      	ldr	r0, [pc, #152]	@ (80022e8 <_printf_i+0x238>)
 800224e:	e7e9      	b.n	8002224 <_printf_i+0x174>
 8002250:	6823      	ldr	r3, [r4, #0]
 8002252:	f023 0320 	bic.w	r3, r3, #32
 8002256:	6023      	str	r3, [r4, #0]
 8002258:	e7f6      	b.n	8002248 <_printf_i+0x198>
 800225a:	4616      	mov	r6, r2
 800225c:	e7bd      	b.n	80021da <_printf_i+0x12a>
 800225e:	6833      	ldr	r3, [r6, #0]
 8002260:	6825      	ldr	r5, [r4, #0]
 8002262:	1d18      	adds	r0, r3, #4
 8002264:	6961      	ldr	r1, [r4, #20]
 8002266:	6030      	str	r0, [r6, #0]
 8002268:	062e      	lsls	r6, r5, #24
 800226a:	681b      	ldr	r3, [r3, #0]
 800226c:	d501      	bpl.n	8002272 <_printf_i+0x1c2>
 800226e:	6019      	str	r1, [r3, #0]
 8002270:	e002      	b.n	8002278 <_printf_i+0x1c8>
 8002272:	0668      	lsls	r0, r5, #25
 8002274:	d5fb      	bpl.n	800226e <_printf_i+0x1be>
 8002276:	8019      	strh	r1, [r3, #0]
 8002278:	2300      	movs	r3, #0
 800227a:	4616      	mov	r6, r2
 800227c:	6123      	str	r3, [r4, #16]
 800227e:	e7bc      	b.n	80021fa <_printf_i+0x14a>
 8002280:	6833      	ldr	r3, [r6, #0]
 8002282:	2100      	movs	r1, #0
 8002284:	1d1a      	adds	r2, r3, #4
 8002286:	6032      	str	r2, [r6, #0]
 8002288:	681e      	ldr	r6, [r3, #0]
 800228a:	6862      	ldr	r2, [r4, #4]
 800228c:	4630      	mov	r0, r6
 800228e:	f000 f9b4 	bl	80025fa <memchr>
 8002292:	b108      	cbz	r0, 8002298 <_printf_i+0x1e8>
 8002294:	1b80      	subs	r0, r0, r6
 8002296:	6060      	str	r0, [r4, #4]
 8002298:	6863      	ldr	r3, [r4, #4]
 800229a:	6123      	str	r3, [r4, #16]
 800229c:	2300      	movs	r3, #0
 800229e:	f884 3043 	strb.w	r3, [r4, #67]	@ 0x43
 80022a2:	e7aa      	b.n	80021fa <_printf_i+0x14a>
 80022a4:	4632      	mov	r2, r6
 80022a6:	4649      	mov	r1, r9
 80022a8:	4640      	mov	r0, r8
 80022aa:	6923      	ldr	r3, [r4, #16]
 80022ac:	47d0      	blx	sl
 80022ae:	3001      	adds	r0, #1
 80022b0:	d0ad      	beq.n	800220e <_printf_i+0x15e>
 80022b2:	6823      	ldr	r3, [r4, #0]
 80022b4:	079b      	lsls	r3, r3, #30
 80022b6:	d413      	bmi.n	80022e0 <_printf_i+0x230>
 80022b8:	68e0      	ldr	r0, [r4, #12]
 80022ba:	9b03      	ldr	r3, [sp, #12]
 80022bc:	4298      	cmp	r0, r3
 80022be:	bfb8      	it	lt
 80022c0:	4618      	movlt	r0, r3
 80022c2:	e7a6      	b.n	8002212 <_printf_i+0x162>
 80022c4:	2301      	movs	r3, #1
 80022c6:	4632      	mov	r2, r6
 80022c8:	4649      	mov	r1, r9
 80022ca:	4640      	mov	r0, r8
 80022cc:	47d0      	blx	sl
 80022ce:	3001      	adds	r0, #1
 80022d0:	d09d      	beq.n	800220e <_printf_i+0x15e>
 80022d2:	3501      	adds	r5, #1
 80022d4:	68e3      	ldr	r3, [r4, #12]
 80022d6:	9903      	ldr	r1, [sp, #12]
 80022d8:	1a5b      	subs	r3, r3, r1
 80022da:	42ab      	cmp	r3, r5
 80022dc:	dcf2      	bgt.n	80022c4 <_printf_i+0x214>
 80022de:	e7eb      	b.n	80022b8 <_printf_i+0x208>
 80022e0:	2500      	movs	r5, #0
 80022e2:	f104 0619 	add.w	r6, r4, #25
 80022e6:	e7f5      	b.n	80022d4 <_printf_i+0x224>
 80022e8:	0800437a 	.word	0x0800437a
 80022ec:	0800438b 	.word	0x0800438b

080022f0 <std>:
 80022f0:	2300      	movs	r3, #0
 80022f2:	b510      	push	{r4, lr}
 80022f4:	4604      	mov	r4, r0
 80022f6:	e9c0 3300 	strd	r3, r3, [r0]
 80022fa:	e9c0 3304 	strd	r3, r3, [r0, #16]
 80022fe:	6083      	str	r3, [r0, #8]
 8002300:	8181      	strh	r1, [r0, #12]
 8002302:	6643      	str	r3, [r0, #100]	@ 0x64
 8002304:	81c2      	strh	r2, [r0, #14]
 8002306:	6183      	str	r3, [r0, #24]
 8002308:	4619      	mov	r1, r3
 800230a:	2208      	movs	r2, #8
 800230c:	305c      	adds	r0, #92	@ 0x5c
 800230e:	f000 f8f4 	bl	80024fa <memset>
 8002312:	4b0d      	ldr	r3, [pc, #52]	@ (8002348 <std+0x58>)
 8002314:	6224      	str	r4, [r4, #32]
 8002316:	6263      	str	r3, [r4, #36]	@ 0x24
 8002318:	4b0c      	ldr	r3, [pc, #48]	@ (800234c <std+0x5c>)
 800231a:	62a3      	str	r3, [r4, #40]	@ 0x28
 800231c:	4b0c      	ldr	r3, [pc, #48]	@ (8002350 <std+0x60>)
 800231e:	62e3      	str	r3, [r4, #44]	@ 0x2c
 8002320:	4b0c      	ldr	r3, [pc, #48]	@ (8002354 <std+0x64>)
 8002322:	6323      	str	r3, [r4, #48]	@ 0x30
 8002324:	4b0c      	ldr	r3, [pc, #48]	@ (8002358 <std+0x68>)
 8002326:	429c      	cmp	r4, r3
 8002328:	d006      	beq.n	8002338 <std+0x48>
 800232a:	f103 0268 	add.w	r2, r3, #104	@ 0x68
 800232e:	4294      	cmp	r4, r2
 8002330:	d002      	beq.n	8002338 <std+0x48>
 8002332:	33d0      	adds	r3, #208	@ 0xd0
 8002334:	429c      	cmp	r4, r3
 8002336:	d105      	bne.n	8002344 <std+0x54>
 8002338:	f104 0058 	add.w	r0, r4, #88	@ 0x58
 800233c:	e8bd 4010 	ldmia.w	sp!, {r4, lr}
 8002340:	f000 b958 	b.w	80025f4 <__retarget_lock_init_recursive>
 8002344:	bd10      	pop	{r4, pc}
 8002346:	bf00      	nop
 8002348:	08002475 	.word	0x08002475
 800234c:	08002497 	.word	0x08002497
 8002350:	080024cf 	.word	0x080024cf
 8002354:	080024f3 	.word	0x080024f3
 8002358:	20000214 	.word	0x20000214

0800235c <stdio_exit_handler>:
 800235c:	4a02      	ldr	r2, [pc, #8]	@ (8002368 <stdio_exit_handler+0xc>)
 800235e:	4903      	ldr	r1, [pc, #12]	@ (800236c <stdio_exit_handler+0x10>)
 8002360:	4803      	ldr	r0, [pc, #12]	@ (8002370 <stdio_exit_handler+0x14>)
 8002362:	f000 b869 	b.w	8002438 <_fwalk_sglue>
 8002366:	bf00      	nop
 8002368:	20000010 	.word	0x20000010
 800236c:	08003cb5 	.word	0x08003cb5
 8002370:	20000020 	.word	0x20000020

08002374 <cleanup_stdio>:
 8002374:	6841      	ldr	r1, [r0, #4]
 8002376:	4b0c      	ldr	r3, [pc, #48]	@ (80023a8 <cleanup_stdio+0x34>)
 8002378:	b510      	push	{r4, lr}
 800237a:	4299      	cmp	r1, r3
 800237c:	4604      	mov	r4, r0
 800237e:	d001      	beq.n	8002384 <cleanup_stdio+0x10>
 8002380:	f001 fc98 	bl	8003cb4 <_fflush_r>
 8002384:	68a1      	ldr	r1, [r4, #8]
 8002386:	4b09      	ldr	r3, [pc, #36]	@ (80023ac <cleanup_stdio+0x38>)
 8002388:	4299      	cmp	r1, r3
 800238a:	d002      	beq.n	8002392 <cleanup_stdio+0x1e>
 800238c:	4620      	mov	r0, r4
 800238e:	f001 fc91 	bl	8003cb4 <_fflush_r>
 8002392:	68e1      	ldr	r1, [r4, #12]
 8002394:	4b06      	ldr	r3, [pc, #24]	@ (80023b0 <cleanup_stdio+0x3c>)
 8002396:	4299      	cmp	r1, r3
 8002398:	d004      	beq.n	80023a4 <cleanup_stdio+0x30>
 800239a:	4620      	mov	r0, r4
 800239c:	e8bd 4010 	ldmia.w	sp!, {r4, lr}
 80023a0:	f001 bc88 	b.w	8003cb4 <_fflush_r>
 80023a4:	bd10      	pop	{r4, pc}
 80023a6:	bf00      	nop
 80023a8:	20000214 	.word	0x20000214
 80023ac:	2000027c 	.word	0x2000027c
 80023b0:	200002e4 	.word	0x200002e4

080023b4 <global_stdio_init.part.0>:
 80023b4:	b510      	push	{r4, lr}
 80023b6:	4b0b      	ldr	r3, [pc, #44]	@ (80023e4 <global_stdio_init.part.0+0x30>)
 80023b8:	4c0b      	ldr	r4, [pc, #44]	@ (80023e8 <global_stdio_init.part.0+0x34>)
 80023ba:	4a0c      	ldr	r2, [pc, #48]	@ (80023ec <global_stdio_init.part.0+0x38>)
 80023bc:	4620      	mov	r0, r4
 80023be:	601a      	str	r2, [r3, #0]
 80023c0:	2104      	movs	r1, #4
 80023c2:	2200      	movs	r2, #0
 80023c4:	f7ff ff94 	bl	80022f0 <std>
 80023c8:	f104 0068 	add.w	r0, r4, #104	@ 0x68
 80023cc:	2201      	movs	r2, #1
 80023ce:	2109      	movs	r1, #9
 80023d0:	f7ff ff8e 	bl	80022f0 <std>
 80023d4:	f104 00d0 	add.w	r0, r4, #208	@ 0xd0
 80023d8:	2202      	movs	r2, #2
 80023da:	e8bd 4010 	ldmia.w	sp!, {r4, lr}
 80023de:	2112      	movs	r1, #18
 80023e0:	f7ff bf86 	b.w	80022f0 <std>
 80023e4:	2000034c 	.word	0x2000034c
 80023e8:	20000214 	.word	0x20000214
 80023ec:	0800235d 	.word	0x0800235d

080023f0 <__sfp_lock_acquire>:
 80023f0:	4801      	ldr	r0, [pc, #4]	@ (80023f8 <__sfp_lock_acquire+0x8>)
 80023f2:	f000 b900 	b.w	80025f6 <__retarget_lock_acquire_recursive>
 80023f6:	bf00      	nop
 80023f8:	20000355 	.word	0x20000355

080023fc <__sfp_lock_release>:
 80023fc:	4801      	ldr	r0, [pc, #4]	@ (8002404 <__sfp_lock_release+0x8>)
 80023fe:	f000 b8fb 	b.w	80025f8 <__retarget_lock_release_recursive>
 8002402:	bf00      	nop
 8002404:	20000355 	.word	0x20000355

08002408 <__sinit>:
 8002408:	b510      	push	{r4, lr}
 800240a:	4604      	mov	r4, r0
 800240c:	f7ff fff0 	bl	80023f0 <__sfp_lock_acquire>
 8002410:	6a23      	ldr	r3, [r4, #32]
 8002412:	b11b      	cbz	r3, 800241c <__sinit+0x14>
 8002414:	e8bd 4010 	ldmia.w	sp!, {r4, lr}
 8002418:	f7ff bff0 	b.w	80023fc <__sfp_lock_release>
 800241c:	4b04      	ldr	r3, [pc, #16]	@ (8002430 <__sinit+0x28>)
 800241e:	6223      	str	r3, [r4, #32]
 8002420:	4b04      	ldr	r3, [pc, #16]	@ (8002434 <__sinit+0x2c>)
 8002422:	681b      	ldr	r3, [r3, #0]
 8002424:	2b00      	cmp	r3, #0
 8002426:	d1f5      	bne.n	8002414 <__sinit+0xc>
 8002428:	f7ff ffc4 	bl	80023b4 <global_stdio_init.part.0>
 800242c:	e7f2      	b.n	8002414 <__sinit+0xc>
 800242e:	bf00      	nop
 8002430:	08002375 	.word	0x08002375
 8002434:	2000034c 	.word	0x2000034c

08002438 <_fwalk_sglue>:
 8002438:	e92d 43f8 	stmdb	sp!, {r3, r4, r5, r6, r7, r8, r9, lr}
 800243c:	4607      	mov	r7, r0
 800243e:	4688      	mov	r8, r1
 8002440:	4614      	mov	r4, r2
 8002442:	2600      	movs	r6, #0
 8002444:	e9d4 9501 	ldrd	r9, r5, [r4, #4]
 8002448:	f1b9 0901 	subs.w	r9, r9, #1
 800244c:	d505      	bpl.n	800245a <_fwalk_sglue+0x22>
 800244e:	6824      	ldr	r4, [r4, #0]
 8002450:	2c00      	cmp	r4, #0
 8002452:	d1f7      	bne.n	8002444 <_fwalk_sglue+0xc>
 8002454:	4630      	mov	r0, r6
 8002456:	e8bd 83f8 	ldmia.w	sp!, {r3, r4, r5, r6, r7, r8, r9, pc}
 800245a:	89ab      	ldrh	r3, [r5, #12]
 800245c:	2b01      	cmp	r3, #1
 800245e:	d907      	bls.n	8002470 <_fwalk_sglue+0x38>
 8002460:	f9b5 300e 	ldrsh.w	r3, [r5, #14]
 8002464:	3301      	adds	r3, #1
 8002466:	d003      	beq.n	8002470 <_fwalk_sglue+0x38>
 8002468:	4629      	mov	r1, r5
 800246a:	4638      	mov	r0, r7
 800246c:	47c0      	blx	r8
 800246e:	4306      	orrs	r6, r0
 8002470:	3568      	adds	r5, #104	@ 0x68
 8002472:	e7e9      	b.n	8002448 <_fwalk_sglue+0x10>

08002474 <__sread>:
 8002474:	b510      	push	{r4, lr}
 8002476:	460c      	mov	r4, r1
 8002478:	f9b1 100e 	ldrsh.w	r1, [r1, #14]
 800247c:	f000 f86c 	bl	8002558 <_read_r>
 8002480:	2800      	cmp	r0, #0
 8002482:	bfab      	itete	ge
 8002484:	6d63      	ldrge	r3, [r4, #84]	@ 0x54
 8002486:	89a3      	ldrhlt	r3, [r4, #12]
 8002488:	181b      	addge	r3, r3, r0
 800248a:	f423 5380 	biclt.w	r3, r3, #4096	@ 0x1000
 800248e:	bfac      	ite	ge
 8002490:	6563      	strge	r3, [r4, #84]	@ 0x54
 8002492:	81a3      	strhlt	r3, [r4, #12]
 8002494:	bd10      	pop	{r4, pc}

08002496 <__swrite>:
 8002496:	e92d 41f0 	stmdb	sp!, {r4, r5, r6, r7, r8, lr}
 800249a:	461f      	mov	r7, r3
 800249c:	898b      	ldrh	r3, [r1, #12]
 800249e:	4605      	mov	r5, r0
 80024a0:	05db      	lsls	r3, r3, #23
 80024a2:	460c      	mov	r4, r1
 80024a4:	4616      	mov	r6, r2
 80024a6:	d505      	bpl.n	80024b4 <__swrite+0x1e>
 80024a8:	2302      	movs	r3, #2
 80024aa:	2200      	movs	r2, #0
 80024ac:	f9b1 100e 	ldrsh.w	r1, [r1, #14]
 80024b0:	f000 f840 	bl	8002534 <_lseek_r>
 80024b4:	89a3      	ldrh	r3, [r4, #12]
 80024b6:	4632      	mov	r2, r6
 80024b8:	f423 5380 	bic.w	r3, r3, #4096	@ 0x1000
 80024bc:	81a3      	strh	r3, [r4, #12]
 80024be:	4628      	mov	r0, r5
 80024c0:	463b      	mov	r3, r7
 80024c2:	f9b4 100e 	ldrsh.w	r1, [r4, #14]
 80024c6:	e8bd 41f0 	ldmia.w	sp!, {r4, r5, r6, r7, r8, lr}
 80024ca:	f000 b857 	b.w	800257c <_write_r>

080024ce <__sseek>:
 80024ce:	b510      	push	{r4, lr}
 80024d0:	460c      	mov	r4, r1
 80024d2:	f9b1 100e 	ldrsh.w	r1, [r1, #14]
 80024d6:	f000 f82d 	bl	8002534 <_lseek_r>
 80024da:	1c43      	adds	r3, r0, #1
 80024dc:	89a3      	ldrh	r3, [r4, #12]
 80024de:	bf15      	itete	ne
 80024e0:	6560      	strne	r0, [r4, #84]	@ 0x54
 80024e2:	f423 5380 	biceq.w	r3, r3, #4096	@ 0x1000
 80024e6:	f443 5380 	orrne.w	r3, r3, #4096	@ 0x1000
 80024ea:	81a3      	strheq	r3, [r4, #12]
 80024ec:	bf18      	it	ne
 80024ee:	81a3      	strhne	r3, [r4, #12]
 80024f0:	bd10      	pop	{r4, pc}

080024f2 <__sclose>:
 80024f2:	f9b1 100e 	ldrsh.w	r1, [r1, #14]
 80024f6:	f000 b80d 	b.w	8002514 <_close_r>

080024fa <memset>:
 80024fa:	4603      	mov	r3, r0
 80024fc:	4402      	add	r2, r0
 80024fe:	4293      	cmp	r3, r2
 8002500:	d100      	bne.n	8002504 <memset+0xa>
 8002502:	4770      	bx	lr
 8002504:	f803 1b01 	strb.w	r1, [r3], #1
 8002508:	e7f9      	b.n	80024fe <memset+0x4>
	...

0800250c <_localeconv_r>:
 800250c:	4800      	ldr	r0, [pc, #0]	@ (8002510 <_localeconv_r+0x4>)
 800250e:	4770      	bx	lr
 8002510:	2000015c 	.word	0x2000015c

08002514 <_close_r>:
 8002514:	b538      	push	{r3, r4, r5, lr}
 8002516:	2300      	movs	r3, #0
 8002518:	4d05      	ldr	r5, [pc, #20]	@ (8002530 <_close_r+0x1c>)
 800251a:	4604      	mov	r4, r0
 800251c:	4608      	mov	r0, r1
 800251e:	602b      	str	r3, [r5, #0]
 8002520:	f7ff f9f9 	bl	8001916 <_close>
 8002524:	1c43      	adds	r3, r0, #1
 8002526:	d102      	bne.n	800252e <_close_r+0x1a>
 8002528:	682b      	ldr	r3, [r5, #0]
 800252a:	b103      	cbz	r3, 800252e <_close_r+0x1a>
 800252c:	6023      	str	r3, [r4, #0]
 800252e:	bd38      	pop	{r3, r4, r5, pc}
 8002530:	20000350 	.word	0x20000350

08002534 <_lseek_r>:
 8002534:	b538      	push	{r3, r4, r5, lr}
 8002536:	4604      	mov	r4, r0
 8002538:	4608      	mov	r0, r1
 800253a:	4611      	mov	r1, r2
 800253c:	2200      	movs	r2, #0
 800253e:	4d05      	ldr	r5, [pc, #20]	@ (8002554 <_lseek_r+0x20>)
 8002540:	602a      	str	r2, [r5, #0]
 8002542:	461a      	mov	r2, r3
 8002544:	f7ff fa0b 	bl	800195e <_lseek>
 8002548:	1c43      	adds	r3, r0, #1
 800254a:	d102      	bne.n	8002552 <_lseek_r+0x1e>
 800254c:	682b      	ldr	r3, [r5, #0]
 800254e:	b103      	cbz	r3, 8002552 <_lseek_r+0x1e>
 8002550:	6023      	str	r3, [r4, #0]
 8002552:	bd38      	pop	{r3, r4, r5, pc}
 8002554:	20000350 	.word	0x20000350

08002558 <_read_r>:
 8002558:	b538      	push	{r3, r4, r5, lr}
 800255a:	4604      	mov	r4, r0
 800255c:	4608      	mov	r0, r1
 800255e:	4611      	mov	r1, r2
 8002560:	2200      	movs	r2, #0
 8002562:	4d05      	ldr	r5, [pc, #20]	@ (8002578 <_read_r+0x20>)
 8002564:	602a      	str	r2, [r5, #0]
 8002566:	461a      	mov	r2, r3
 8002568:	f7ff f99c 	bl	80018a4 <_read>
 800256c:	1c43      	adds	r3, r0, #1
 800256e:	d102      	bne.n	8002576 <_read_r+0x1e>
 8002570:	682b      	ldr	r3, [r5, #0]
 8002572:	b103      	cbz	r3, 8002576 <_read_r+0x1e>
 8002574:	6023      	str	r3, [r4, #0]
 8002576:	bd38      	pop	{r3, r4, r5, pc}
 8002578:	20000350 	.word	0x20000350

0800257c <_write_r>:
 800257c:	b538      	push	{r3, r4, r5, lr}
 800257e:	4604      	mov	r4, r0
 8002580:	4608      	mov	r0, r1
 8002582:	4611      	mov	r1, r2
 8002584:	2200      	movs	r2, #0
 8002586:	4d05      	ldr	r5, [pc, #20]	@ (800259c <_write_r+0x20>)
 8002588:	602a      	str	r2, [r5, #0]
 800258a:	461a      	mov	r2, r3
 800258c:	f7ff f9a7 	bl	80018de <_write>
 8002590:	1c43      	adds	r3, r0, #1
 8002592:	d102      	bne.n	800259a <_write_r+0x1e>
 8002594:	682b      	ldr	r3, [r5, #0]
 8002596:	b103      	cbz	r3, 800259a <_write_r+0x1e>
 8002598:	6023      	str	r3, [r4, #0]
 800259a:	bd38      	pop	{r3, r4, r5, pc}
 800259c:	20000350 	.word	0x20000350

080025a0 <__errno>:
 80025a0:	4b01      	ldr	r3, [pc, #4]	@ (80025a8 <__errno+0x8>)
 80025a2:	6818      	ldr	r0, [r3, #0]
 80025a4:	4770      	bx	lr
 80025a6:	bf00      	nop
 80025a8:	2000001c 	.word	0x2000001c

080025ac <__libc_init_array>:
 80025ac:	b570      	push	{r4, r5, r6, lr}
 80025ae:	2600      	movs	r6, #0
 80025b0:	4d0c      	ldr	r5, [pc, #48]	@ (80025e4 <__libc_init_array+0x38>)
 80025b2:	4c0d      	ldr	r4, [pc, #52]	@ (80025e8 <__libc_init_array+0x3c>)
 80025b4:	1b64      	subs	r4, r4, r5
 80025b6:	10a4      	asrs	r4, r4, #2
 80025b8:	42a6      	cmp	r6, r4
 80025ba:	d109      	bne.n	80025d0 <__libc_init_array+0x24>
 80025bc:	f001 fec6 	bl	800434c <_init>
 80025c0:	2600      	movs	r6, #0
 80025c2:	4d0a      	ldr	r5, [pc, #40]	@ (80025ec <__libc_init_array+0x40>)
 80025c4:	4c0a      	ldr	r4, [pc, #40]	@ (80025f0 <__libc_init_array+0x44>)
 80025c6:	1b64      	subs	r4, r4, r5
 80025c8:	10a4      	asrs	r4, r4, #2
 80025ca:	42a6      	cmp	r6, r4
 80025cc:	d105      	bne.n	80025da <__libc_init_array+0x2e>
 80025ce:	bd70      	pop	{r4, r5, r6, pc}
 80025d0:	f855 3b04 	ldr.w	r3, [r5], #4
 80025d4:	4798      	blx	r3
 80025d6:	3601      	adds	r6, #1
 80025d8:	e7ee      	b.n	80025b8 <__libc_init_array+0xc>
 80025da:	f855 3b04 	ldr.w	r3, [r5], #4
 80025de:	4798      	blx	r3
 80025e0:	3601      	adds	r6, #1
 80025e2:	e7f2      	b.n	80025ca <__libc_init_array+0x1e>
 80025e4:	080046e0 	.word	0x080046e0
 80025e8:	080046e0 	.word	0x080046e0
 80025ec:	080046e0 	.word	0x080046e0
 80025f0:	080046e4 	.word	0x080046e4

080025f4 <__retarget_lock_init_recursive>:
 80025f4:	4770      	bx	lr

080025f6 <__retarget_lock_acquire_recursive>:
 80025f6:	4770      	bx	lr

080025f8 <__retarget_lock_release_recursive>:
 80025f8:	4770      	bx	lr

080025fa <memchr>:
 80025fa:	4603      	mov	r3, r0
 80025fc:	b510      	push	{r4, lr}
 80025fe:	b2c9      	uxtb	r1, r1
 8002600:	4402      	add	r2, r0
 8002602:	4293      	cmp	r3, r2
 8002604:	4618      	mov	r0, r3
 8002606:	d101      	bne.n	800260c <memchr+0x12>
 8002608:	2000      	movs	r0, #0
 800260a:	e003      	b.n	8002614 <memchr+0x1a>
 800260c:	7804      	ldrb	r4, [r0, #0]
 800260e:	3301      	adds	r3, #1
 8002610:	428c      	cmp	r4, r1
 8002612:	d1f6      	bne.n	8002602 <memchr+0x8>
 8002614:	bd10      	pop	{r4, pc}

08002616 <quorem>:
 8002616:	e92d 4ff7 	stmdb	sp!, {r0, r1, r2, r4, r5, r6, r7, r8, r9, sl, fp, lr}
 800261a:	6903      	ldr	r3, [r0, #16]
 800261c:	690c      	ldr	r4, [r1, #16]
 800261e:	4607      	mov	r7, r0
 8002620:	42a3      	cmp	r3, r4
 8002622:	db7e      	blt.n	8002722 <quorem+0x10c>
 8002624:	3c01      	subs	r4, #1
 8002626:	00a3      	lsls	r3, r4, #2
 8002628:	f100 0514 	add.w	r5, r0, #20
 800262c:	f101 0814 	add.w	r8, r1, #20
 8002630:	9300      	str	r3, [sp, #0]
 8002632:	eb05 0384 	add.w	r3, r5, r4, lsl #2
 8002636:	9301      	str	r3, [sp, #4]
 8002638:	f858 3024 	ldr.w	r3, [r8, r4, lsl #2]
 800263c:	f855 2024 	ldr.w	r2, [r5, r4, lsl #2]
 8002640:	3301      	adds	r3, #1
 8002642:	429a      	cmp	r2, r3
 8002644:	fbb2 f6f3 	udiv	r6, r2, r3
 8002648:	eb08 0984 	add.w	r9, r8, r4, lsl #2
 800264c:	d32e      	bcc.n	80026ac <quorem+0x96>
 800264e:	f04f 0a00 	mov.w	sl, #0
 8002652:	46c4      	mov	ip, r8
 8002654:	46ae      	mov	lr, r5
 8002656:	46d3      	mov	fp, sl
 8002658:	f85c 3b04 	ldr.w	r3, [ip], #4
 800265c:	b298      	uxth	r0, r3
 800265e:	fb06 a000 	mla	r0, r6, r0, sl
 8002662:	0c1b      	lsrs	r3, r3, #16
 8002664:	0c02      	lsrs	r2, r0, #16
 8002666:	fb06 2303 	mla	r3, r6, r3, r2
 800266a:	f8de 2000 	ldr.w	r2, [lr]
 800266e:	b280      	uxth	r0, r0
 8002670:	b292      	uxth	r2, r2
 8002672:	1a12      	subs	r2, r2, r0
 8002674:	445a      	add	r2, fp
 8002676:	f8de 0000 	ldr.w	r0, [lr]
 800267a:	ea4f 4a13 	mov.w	sl, r3, lsr #16
 800267e:	b29b      	uxth	r3, r3
 8002680:	ebc3 4322 	rsb	r3, r3, r2, asr #16
 8002684:	eb03 4310 	add.w	r3, r3, r0, lsr #16
 8002688:	b292      	uxth	r2, r2
 800268a:	ea42 4203 	orr.w	r2, r2, r3, lsl #16
 800268e:	45e1      	cmp	r9, ip
 8002690:	ea4f 4b23 	mov.w	fp, r3, asr #16
 8002694:	f84e 2b04 	str.w	r2, [lr], #4
 8002698:	d2de      	bcs.n	8002658 <quorem+0x42>
 800269a:	9b00      	ldr	r3, [sp, #0]
 800269c:	58eb      	ldr	r3, [r5, r3]
 800269e:	b92b      	cbnz	r3, 80026ac <quorem+0x96>
 80026a0:	9b01      	ldr	r3, [sp, #4]
 80026a2:	3b04      	subs	r3, #4
 80026a4:	429d      	cmp	r5, r3
 80026a6:	461a      	mov	r2, r3
 80026a8:	d32f      	bcc.n	800270a <quorem+0xf4>
 80026aa:	613c      	str	r4, [r7, #16]
 80026ac:	4638      	mov	r0, r7
 80026ae:	f001 f979 	bl	80039a4 <__mcmp>
 80026b2:	2800      	cmp	r0, #0
 80026b4:	db25      	blt.n	8002702 <quorem+0xec>
 80026b6:	4629      	mov	r1, r5
 80026b8:	2000      	movs	r0, #0
 80026ba:	f858 2b04 	ldr.w	r2, [r8], #4
 80026be:	f8d1 c000 	ldr.w	ip, [r1]
 80026c2:	fa1f fe82 	uxth.w	lr, r2
 80026c6:	fa1f f38c 	uxth.w	r3, ip
 80026ca:	eba3 030e 	sub.w	r3, r3, lr
 80026ce:	4403      	add	r3, r0
 80026d0:	0c12      	lsrs	r2, r2, #16
 80026d2:	ebc2 4223 	rsb	r2, r2, r3, asr #16
 80026d6:	eb02 421c 	add.w	r2, r2, ip, lsr #16
 80026da:	b29b      	uxth	r3, r3
 80026dc:	ea43 4302 	orr.w	r3, r3, r2, lsl #16
 80026e0:	45c1      	cmp	r9, r8
 80026e2:	ea4f 4022 	mov.w	r0, r2, asr #16
 80026e6:	f841 3b04 	str.w	r3, [r1], #4
 80026ea:	d2e6      	bcs.n	80026ba <quorem+0xa4>
 80026ec:	f855 2024 	ldr.w	r2, [r5, r4, lsl #2]
 80026f0:	eb05 0384 	add.w	r3, r5, r4, lsl #2
 80026f4:	b922      	cbnz	r2, 8002700 <quorem+0xea>
 80026f6:	3b04      	subs	r3, #4
 80026f8:	429d      	cmp	r5, r3
 80026fa:	461a      	mov	r2, r3
 80026fc:	d30b      	bcc.n	8002716 <quorem+0x100>
 80026fe:	613c      	str	r4, [r7, #16]
 8002700:	3601      	adds	r6, #1
 8002702:	4630      	mov	r0, r6
 8002704:	b003      	add	sp, #12
 8002706:	e8bd 8ff0 	ldmia.w	sp!, {r4, r5, r6, r7, r8, r9, sl, fp, pc}
 800270a:	6812      	ldr	r2, [r2, #0]
 800270c:	3b04      	subs	r3, #4
 800270e:	2a00      	cmp	r2, #0
 8002710:	d1cb      	bne.n	80026aa <quorem+0x94>
 8002712:	3c01      	subs	r4, #1
 8002714:	e7c6      	b.n	80026a4 <quorem+0x8e>
 8002716:	6812      	ldr	r2, [r2, #0]
 8002718:	3b04      	subs	r3, #4
 800271a:	2a00      	cmp	r2, #0
 800271c:	d1ef      	bne.n	80026fe <quorem+0xe8>
 800271e:	3c01      	subs	r4, #1
 8002720:	e7ea      	b.n	80026f8 <quorem+0xe2>
 8002722:	2000      	movs	r0, #0
 8002724:	e7ee      	b.n	8002704 <quorem+0xee>
	...

08002728 <_dtoa_r>:
 8002728:	e92d 4ff0 	stmdb	sp!, {r4, r5, r6, r7, r8, r9, sl, fp, lr}
 800272c:	4614      	mov	r4, r2
 800272e:	461d      	mov	r5, r3
 8002730:	69c7      	ldr	r7, [r0, #28]
 8002732:	b097      	sub	sp, #92	@ 0x5c
 8002734:	4683      	mov	fp, r0
 8002736:	e9cd 4502 	strd	r4, r5, [sp, #8]
 800273a:	9e23      	ldr	r6, [sp, #140]	@ 0x8c
 800273c:	b97f      	cbnz	r7, 800275e <_dtoa_r+0x36>
 800273e:	2010      	movs	r0, #16
 8002740:	f000 fe02 	bl	8003348 <malloc>
 8002744:	4602      	mov	r2, r0
 8002746:	f8cb 001c 	str.w	r0, [fp, #28]
 800274a:	b920      	cbnz	r0, 8002756 <_dtoa_r+0x2e>
 800274c:	21ef      	movs	r1, #239	@ 0xef
 800274e:	4ba8      	ldr	r3, [pc, #672]	@ (80029f0 <_dtoa_r+0x2c8>)
 8002750:	48a8      	ldr	r0, [pc, #672]	@ (80029f4 <_dtoa_r+0x2cc>)
 8002752:	f001 faf5 	bl	8003d40 <__assert_func>
 8002756:	e9c0 7701 	strd	r7, r7, [r0, #4]
 800275a:	6007      	str	r7, [r0, #0]
 800275c:	60c7      	str	r7, [r0, #12]
 800275e:	f8db 301c 	ldr.w	r3, [fp, #28]
 8002762:	6819      	ldr	r1, [r3, #0]
 8002764:	b159      	cbz	r1, 800277e <_dtoa_r+0x56>
 8002766:	685a      	ldr	r2, [r3, #4]
 8002768:	2301      	movs	r3, #1
 800276a:	4093      	lsls	r3, r2
 800276c:	604a      	str	r2, [r1, #4]
 800276e:	608b      	str	r3, [r1, #8]
 8002770:	4658      	mov	r0, fp
 8002772:	f000 fedf 	bl	8003534 <_Bfree>
 8002776:	2200      	movs	r2, #0
 8002778:	f8db 301c 	ldr.w	r3, [fp, #28]
 800277c:	601a      	str	r2, [r3, #0]
 800277e:	1e2b      	subs	r3, r5, #0
 8002780:	bfaf      	iteee	ge
 8002782:	2300      	movge	r3, #0
 8002784:	2201      	movlt	r2, #1
 8002786:	f023 4300 	biclt.w	r3, r3, #2147483648	@ 0x80000000
 800278a:	9303      	strlt	r3, [sp, #12]
 800278c:	bfa8      	it	ge
 800278e:	6033      	strge	r3, [r6, #0]
 8002790:	f8dd 800c 	ldr.w	r8, [sp, #12]
 8002794:	4b98      	ldr	r3, [pc, #608]	@ (80029f8 <_dtoa_r+0x2d0>)
 8002796:	bfb8      	it	lt
 8002798:	6032      	strlt	r2, [r6, #0]
 800279a:	ea33 0308 	bics.w	r3, r3, r8
 800279e:	d112      	bne.n	80027c6 <_dtoa_r+0x9e>
 80027a0:	f242 730f 	movw	r3, #9999	@ 0x270f
 80027a4:	9a22      	ldr	r2, [sp, #136]	@ 0x88
 80027a6:	6013      	str	r3, [r2, #0]
 80027a8:	f3c8 0313 	ubfx	r3, r8, #0, #20
 80027ac:	4323      	orrs	r3, r4
 80027ae:	f000 8550 	beq.w	8003252 <_dtoa_r+0xb2a>
 80027b2:	9b24      	ldr	r3, [sp, #144]	@ 0x90
 80027b4:	f8df a244 	ldr.w	sl, [pc, #580]	@ 80029fc <_dtoa_r+0x2d4>
 80027b8:	2b00      	cmp	r3, #0
 80027ba:	f000 8552 	beq.w	8003262 <_dtoa_r+0xb3a>
 80027be:	f10a 0303 	add.w	r3, sl, #3
 80027c2:	f000 bd4c 	b.w	800325e <_dtoa_r+0xb36>
 80027c6:	e9dd 2302 	ldrd	r2, r3, [sp, #8]
 80027ca:	e9cd 230c 	strd	r2, r3, [sp, #48]	@ 0x30
 80027ce:	e9dd 010c 	ldrd	r0, r1, [sp, #48]	@ 0x30
 80027d2:	2200      	movs	r2, #0
 80027d4:	2300      	movs	r3, #0
 80027d6:	f7fe f9ab 	bl	8000b30 <__aeabi_dcmpeq>
 80027da:	4607      	mov	r7, r0
 80027dc:	b158      	cbz	r0, 80027f6 <_dtoa_r+0xce>
 80027de:	2301      	movs	r3, #1
 80027e0:	9a22      	ldr	r2, [sp, #136]	@ 0x88
 80027e2:	6013      	str	r3, [r2, #0]
 80027e4:	9b24      	ldr	r3, [sp, #144]	@ 0x90
 80027e6:	b113      	cbz	r3, 80027ee <_dtoa_r+0xc6>
 80027e8:	4b85      	ldr	r3, [pc, #532]	@ (8002a00 <_dtoa_r+0x2d8>)
 80027ea:	9a24      	ldr	r2, [sp, #144]	@ 0x90
 80027ec:	6013      	str	r3, [r2, #0]
 80027ee:	f8df a214 	ldr.w	sl, [pc, #532]	@ 8002a04 <_dtoa_r+0x2dc>
 80027f2:	f000 bd36 	b.w	8003262 <_dtoa_r+0xb3a>
 80027f6:	ab14      	add	r3, sp, #80	@ 0x50
 80027f8:	9301      	str	r3, [sp, #4]
 80027fa:	ab15      	add	r3, sp, #84	@ 0x54
 80027fc:	9300      	str	r3, [sp, #0]
 80027fe:	4658      	mov	r0, fp
 8002800:	e9dd 230c 	ldrd	r2, r3, [sp, #48]	@ 0x30
 8002804:	f001 f97e 	bl	8003b04 <__d2b>
 8002808:	f3c8 560a 	ubfx	r6, r8, #20, #11
 800280c:	4681      	mov	r9, r0
 800280e:	2e00      	cmp	r6, #0
 8002810:	d077      	beq.n	8002902 <_dtoa_r+0x1da>
 8002812:	e9dd 010c 	ldrd	r0, r1, [sp, #48]	@ 0x30
 8002816:	9b0d      	ldr	r3, [sp, #52]	@ 0x34
 8002818:	f2a6 36ff 	subw	r6, r6, #1023	@ 0x3ff
 800281c:	f3c3 0313 	ubfx	r3, r3, #0, #20
 8002820:	f043 537f 	orr.w	r3, r3, #1069547520	@ 0x3fc00000
 8002824:	f443 1340 	orr.w	r3, r3, #3145728	@ 0x300000
 8002828:	9712      	str	r7, [sp, #72]	@ 0x48
 800282a:	4619      	mov	r1, r3
 800282c:	2200      	movs	r2, #0
 800282e:	4b76      	ldr	r3, [pc, #472]	@ (8002a08 <_dtoa_r+0x2e0>)
 8002830:	f7fd fd5e 	bl	80002f0 <__aeabi_dsub>
 8002834:	a368      	add	r3, pc, #416	@ (adr r3, 80029d8 <_dtoa_r+0x2b0>)
 8002836:	e9d3 2300 	ldrd	r2, r3, [r3]
 800283a:	f7fd ff11 	bl	8000660 <__aeabi_dmul>
 800283e:	a368      	add	r3, pc, #416	@ (adr r3, 80029e0 <_dtoa_r+0x2b8>)
 8002840:	e9d3 2300 	ldrd	r2, r3, [r3]
 8002844:	f7fd fd56 	bl	80002f4 <__adddf3>
 8002848:	4604      	mov	r4, r0
 800284a:	4630      	mov	r0, r6
 800284c:	460d      	mov	r5, r1
 800284e:	f7fd fe9d 	bl	800058c <__aeabi_i2d>
 8002852:	a365      	add	r3, pc, #404	@ (adr r3, 80029e8 <_dtoa_r+0x2c0>)
 8002854:	e9d3 2300 	ldrd	r2, r3, [r3]
 8002858:	f7fd ff02 	bl	8000660 <__aeabi_dmul>
 800285c:	4602      	mov	r2, r0
 800285e:	460b      	mov	r3, r1
 8002860:	4620      	mov	r0, r4
 8002862:	4629      	mov	r1, r5
 8002864:	f7fd fd46 	bl	80002f4 <__adddf3>
 8002868:	4604      	mov	r4, r0
 800286a:	460d      	mov	r5, r1
 800286c:	f7fe f9a8 	bl	8000bc0 <__aeabi_d2iz>
 8002870:	2200      	movs	r2, #0
 8002872:	4607      	mov	r7, r0
 8002874:	2300      	movs	r3, #0
 8002876:	4620      	mov	r0, r4
 8002878:	4629      	mov	r1, r5
 800287a:	f7fe f963 	bl	8000b44 <__aeabi_dcmplt>
 800287e:	b140      	cbz	r0, 8002892 <_dtoa_r+0x16a>
 8002880:	4638      	mov	r0, r7
 8002882:	f7fd fe83 	bl	800058c <__aeabi_i2d>
 8002886:	4622      	mov	r2, r4
 8002888:	462b      	mov	r3, r5
 800288a:	f7fe f951 	bl	8000b30 <__aeabi_dcmpeq>
 800288e:	b900      	cbnz	r0, 8002892 <_dtoa_r+0x16a>
 8002890:	3f01      	subs	r7, #1
 8002892:	2f16      	cmp	r7, #22
 8002894:	d853      	bhi.n	800293e <_dtoa_r+0x216>
 8002896:	e9dd 010c 	ldrd	r0, r1, [sp, #48]	@ 0x30
 800289a:	4b5c      	ldr	r3, [pc, #368]	@ (8002a0c <_dtoa_r+0x2e4>)
 800289c:	eb03 03c7 	add.w	r3, r3, r7, lsl #3
 80028a0:	e9d3 2300 	ldrd	r2, r3, [r3]
 80028a4:	f7fe f94e 	bl	8000b44 <__aeabi_dcmplt>
 80028a8:	2800      	cmp	r0, #0
 80028aa:	d04a      	beq.n	8002942 <_dtoa_r+0x21a>
 80028ac:	2300      	movs	r3, #0
 80028ae:	3f01      	subs	r7, #1
 80028b0:	930f      	str	r3, [sp, #60]	@ 0x3c
 80028b2:	9b14      	ldr	r3, [sp, #80]	@ 0x50
 80028b4:	1b9b      	subs	r3, r3, r6
 80028b6:	1e5a      	subs	r2, r3, #1
 80028b8:	bf46      	itte	mi
 80028ba:	f1c3 0801 	rsbmi	r8, r3, #1
 80028be:	2300      	movmi	r3, #0
 80028c0:	f04f 0800 	movpl.w	r8, #0
 80028c4:	9209      	str	r2, [sp, #36]	@ 0x24
 80028c6:	bf48      	it	mi
 80028c8:	9309      	strmi	r3, [sp, #36]	@ 0x24
 80028ca:	2f00      	cmp	r7, #0
 80028cc:	db3b      	blt.n	8002946 <_dtoa_r+0x21e>
 80028ce:	9b09      	ldr	r3, [sp, #36]	@ 0x24
 80028d0:	970e      	str	r7, [sp, #56]	@ 0x38
 80028d2:	443b      	add	r3, r7
 80028d4:	9309      	str	r3, [sp, #36]	@ 0x24
 80028d6:	2300      	movs	r3, #0
 80028d8:	930a      	str	r3, [sp, #40]	@ 0x28
 80028da:	9b20      	ldr	r3, [sp, #128]	@ 0x80
 80028dc:	2b09      	cmp	r3, #9
 80028de:	d866      	bhi.n	80029ae <_dtoa_r+0x286>
 80028e0:	2b05      	cmp	r3, #5
 80028e2:	bfc4      	itt	gt
 80028e4:	3b04      	subgt	r3, #4
 80028e6:	9320      	strgt	r3, [sp, #128]	@ 0x80
 80028e8:	9b20      	ldr	r3, [sp, #128]	@ 0x80
 80028ea:	bfc8      	it	gt
 80028ec:	2400      	movgt	r4, #0
 80028ee:	f1a3 0302 	sub.w	r3, r3, #2
 80028f2:	bfd8      	it	le
 80028f4:	2401      	movle	r4, #1
 80028f6:	2b03      	cmp	r3, #3
 80028f8:	d864      	bhi.n	80029c4 <_dtoa_r+0x29c>
 80028fa:	e8df f003 	tbb	[pc, r3]
 80028fe:	382b      	.short	0x382b
 8002900:	5636      	.short	0x5636
 8002902:	e9dd 6314 	ldrd	r6, r3, [sp, #80]	@ 0x50
 8002906:	441e      	add	r6, r3
 8002908:	f206 4332 	addw	r3, r6, #1074	@ 0x432
 800290c:	2b20      	cmp	r3, #32
 800290e:	bfc1      	itttt	gt
 8002910:	f1c3 0340 	rsbgt	r3, r3, #64	@ 0x40
 8002914:	fa08 f803 	lslgt.w	r8, r8, r3
 8002918:	f206 4312 	addwgt	r3, r6, #1042	@ 0x412
 800291c:	fa24 f303 	lsrgt.w	r3, r4, r3
 8002920:	bfd6      	itet	le
 8002922:	f1c3 0320 	rsble	r3, r3, #32
 8002926:	ea48 0003 	orrgt.w	r0, r8, r3
 800292a:	fa04 f003 	lslle.w	r0, r4, r3
 800292e:	f7fd fe1d 	bl	800056c <__aeabi_ui2d>
 8002932:	2201      	movs	r2, #1
 8002934:	f1a1 73f8 	sub.w	r3, r1, #32505856	@ 0x1f00000
 8002938:	3e01      	subs	r6, #1
 800293a:	9212      	str	r2, [sp, #72]	@ 0x48
 800293c:	e775      	b.n	800282a <_dtoa_r+0x102>
 800293e:	2301      	movs	r3, #1
 8002940:	e7b6      	b.n	80028b0 <_dtoa_r+0x188>
 8002942:	900f      	str	r0, [sp, #60]	@ 0x3c
 8002944:	e7b5      	b.n	80028b2 <_dtoa_r+0x18a>
 8002946:	427b      	negs	r3, r7
 8002948:	930a      	str	r3, [sp, #40]	@ 0x28
 800294a:	2300      	movs	r3, #0
 800294c:	eba8 0807 	sub.w	r8, r8, r7
 8002950:	930e      	str	r3, [sp, #56]	@ 0x38
 8002952:	e7c2      	b.n	80028da <_dtoa_r+0x1b2>
 8002954:	2300      	movs	r3, #0
 8002956:	930b      	str	r3, [sp, #44]	@ 0x2c
 8002958:	9b21      	ldr	r3, [sp, #132]	@ 0x84
 800295a:	2b00      	cmp	r3, #0
 800295c:	dc35      	bgt.n	80029ca <_dtoa_r+0x2a2>
 800295e:	2301      	movs	r3, #1
 8002960:	461a      	mov	r2, r3
 8002962:	e9cd 3307 	strd	r3, r3, [sp, #28]
 8002966:	9221      	str	r2, [sp, #132]	@ 0x84
 8002968:	e00b      	b.n	8002982 <_dtoa_r+0x25a>
 800296a:	2301      	movs	r3, #1
 800296c:	e7f3      	b.n	8002956 <_dtoa_r+0x22e>
 800296e:	2300      	movs	r3, #0
 8002970:	930b      	str	r3, [sp, #44]	@ 0x2c
 8002972:	9b21      	ldr	r3, [sp, #132]	@ 0x84
 8002974:	18fb      	adds	r3, r7, r3
 8002976:	9308      	str	r3, [sp, #32]
 8002978:	3301      	adds	r3, #1
 800297a:	2b01      	cmp	r3, #1
 800297c:	9307      	str	r3, [sp, #28]
 800297e:	bfb8      	it	lt
 8002980:	2301      	movlt	r3, #1
 8002982:	2100      	movs	r1, #0
 8002984:	2204      	movs	r2, #4
 8002986:	f8db 001c 	ldr.w	r0, [fp, #28]
 800298a:	f102 0514 	add.w	r5, r2, #20
 800298e:	429d      	cmp	r5, r3
 8002990:	d91f      	bls.n	80029d2 <_dtoa_r+0x2aa>
 8002992:	6041      	str	r1, [r0, #4]
 8002994:	4658      	mov	r0, fp
 8002996:	f000 fd8d 	bl	80034b4 <_Balloc>
 800299a:	4682      	mov	sl, r0
 800299c:	2800      	cmp	r0, #0
 800299e:	d139      	bne.n	8002a14 <_dtoa_r+0x2ec>
 80029a0:	4602      	mov	r2, r0
 80029a2:	f240 11af 	movw	r1, #431	@ 0x1af
 80029a6:	4b1a      	ldr	r3, [pc, #104]	@ (8002a10 <_dtoa_r+0x2e8>)
 80029a8:	e6d2      	b.n	8002750 <_dtoa_r+0x28>
 80029aa:	2301      	movs	r3, #1
 80029ac:	e7e0      	b.n	8002970 <_dtoa_r+0x248>
 80029ae:	2401      	movs	r4, #1
 80029b0:	2300      	movs	r3, #0
 80029b2:	940b      	str	r4, [sp, #44]	@ 0x2c
 80029b4:	9320      	str	r3, [sp, #128]	@ 0x80
 80029b6:	f04f 33ff 	mov.w	r3, #4294967295
 80029ba:	2200      	movs	r2, #0
 80029bc:	e9cd 3307 	strd	r3, r3, [sp, #28]
 80029c0:	2312      	movs	r3, #18
 80029c2:	e7d0      	b.n	8002966 <_dtoa_r+0x23e>
 80029c4:	2301      	movs	r3, #1
 80029c6:	930b      	str	r3, [sp, #44]	@ 0x2c
 80029c8:	e7f5      	b.n	80029b6 <_dtoa_r+0x28e>
 80029ca:	9b21      	ldr	r3, [sp, #132]	@ 0x84
 80029cc:	e9cd 3307 	strd	r3, r3, [sp, #28]
 80029d0:	e7d7      	b.n	8002982 <_dtoa_r+0x25a>
 80029d2:	3101      	adds	r1, #1
 80029d4:	0052      	lsls	r2, r2, #1
 80029d6:	e7d8      	b.n	800298a <_dtoa_r+0x262>
 80029d8:	636f4361 	.word	0x636f4361
 80029dc:	3fd287a7 	.word	0x3fd287a7
 80029e0:	8b60c8b3 	.word	0x8b60c8b3
 80029e4:	3fc68a28 	.word	0x3fc68a28
 80029e8:	509f79fb 	.word	0x509f79fb
 80029ec:	3fd34413 	.word	0x3fd34413
 80029f0:	080043a9 	.word	0x080043a9
 80029f4:	080043c0 	.word	0x080043c0
 80029f8:	7ff00000 	.word	0x7ff00000
 80029fc:	080043a5 	.word	0x080043a5
 8002a00:	08004379 	.word	0x08004379
 8002a04:	08004378 	.word	0x08004378
 8002a08:	3ff80000 	.word	0x3ff80000
 8002a0c:	080044b8 	.word	0x080044b8
 8002a10:	08004418 	.word	0x08004418
 8002a14:	f8db 301c 	ldr.w	r3, [fp, #28]
 8002a18:	6018      	str	r0, [r3, #0]
 8002a1a:	9b07      	ldr	r3, [sp, #28]
 8002a1c:	2b0e      	cmp	r3, #14
 8002a1e:	f200 80a4 	bhi.w	8002b6a <_dtoa_r+0x442>
 8002a22:	2c00      	cmp	r4, #0
 8002a24:	f000 80a1 	beq.w	8002b6a <_dtoa_r+0x442>
 8002a28:	2f00      	cmp	r7, #0
 8002a2a:	dd33      	ble.n	8002a94 <_dtoa_r+0x36c>
 8002a2c:	4b86      	ldr	r3, [pc, #536]	@ (8002c48 <_dtoa_r+0x520>)
 8002a2e:	f007 020f 	and.w	r2, r7, #15
 8002a32:	eb03 03c2 	add.w	r3, r3, r2, lsl #3
 8002a36:	05f8      	lsls	r0, r7, #23
 8002a38:	e9d3 3400 	ldrd	r3, r4, [r3]
 8002a3c:	e9cd 3404 	strd	r3, r4, [sp, #16]
 8002a40:	ea4f 1427 	mov.w	r4, r7, asr #4
 8002a44:	d516      	bpl.n	8002a74 <_dtoa_r+0x34c>
 8002a46:	e9dd 010c 	ldrd	r0, r1, [sp, #48]	@ 0x30
 8002a4a:	4b80      	ldr	r3, [pc, #512]	@ (8002c4c <_dtoa_r+0x524>)
 8002a4c:	2603      	movs	r6, #3
 8002a4e:	e9d3 2308 	ldrd	r2, r3, [r3, #32]
 8002a52:	f7fd ff2f 	bl	80008b4 <__aeabi_ddiv>
 8002a56:	e9cd 0102 	strd	r0, r1, [sp, #8]
 8002a5a:	f004 040f 	and.w	r4, r4, #15
 8002a5e:	4d7b      	ldr	r5, [pc, #492]	@ (8002c4c <_dtoa_r+0x524>)
 8002a60:	b954      	cbnz	r4, 8002a78 <_dtoa_r+0x350>
 8002a62:	e9dd 2304 	ldrd	r2, r3, [sp, #16]
 8002a66:	e9dd 0102 	ldrd	r0, r1, [sp, #8]
 8002a6a:	f7fd ff23 	bl	80008b4 <__aeabi_ddiv>
 8002a6e:	e9cd 0102 	strd	r0, r1, [sp, #8]
 8002a72:	e028      	b.n	8002ac6 <_dtoa_r+0x39e>
 8002a74:	2602      	movs	r6, #2
 8002a76:	e7f2      	b.n	8002a5e <_dtoa_r+0x336>
 8002a78:	07e1      	lsls	r1, r4, #31
 8002a7a:	d508      	bpl.n	8002a8e <_dtoa_r+0x366>
 8002a7c:	e9dd 0104 	ldrd	r0, r1, [sp, #16]
 8002a80:	e9d5 2300 	ldrd	r2, r3, [r5]
 8002a84:	f7fd fdec 	bl	8000660 <__aeabi_dmul>
 8002a88:	e9cd 0104 	strd	r0, r1, [sp, #16]
 8002a8c:	3601      	adds	r6, #1
 8002a8e:	1064      	asrs	r4, r4, #1
 8002a90:	3508      	adds	r5, #8
 8002a92:	e7e5      	b.n	8002a60 <_dtoa_r+0x338>
 8002a94:	f000 80d2 	beq.w	8002c3c <_dtoa_r+0x514>
 8002a98:	e9dd 010c 	ldrd	r0, r1, [sp, #48]	@ 0x30
 8002a9c:	427c      	negs	r4, r7
 8002a9e:	4b6a      	ldr	r3, [pc, #424]	@ (8002c48 <_dtoa_r+0x520>)
 8002aa0:	f004 020f 	and.w	r2, r4, #15
 8002aa4:	eb03 03c2 	add.w	r3, r3, r2, lsl #3
 8002aa8:	e9d3 2300 	ldrd	r2, r3, [r3]
 8002aac:	f7fd fdd8 	bl	8000660 <__aeabi_dmul>
 8002ab0:	2602      	movs	r6, #2
 8002ab2:	2300      	movs	r3, #0
 8002ab4:	e9cd 0102 	strd	r0, r1, [sp, #8]
 8002ab8:	4d64      	ldr	r5, [pc, #400]	@ (8002c4c <_dtoa_r+0x524>)
 8002aba:	1124      	asrs	r4, r4, #4
 8002abc:	2c00      	cmp	r4, #0
 8002abe:	f040 80b2 	bne.w	8002c26 <_dtoa_r+0x4fe>
 8002ac2:	2b00      	cmp	r3, #0
 8002ac4:	d1d3      	bne.n	8002a6e <_dtoa_r+0x346>
 8002ac6:	e9dd 4502 	ldrd	r4, r5, [sp, #8]
 8002aca:	9b0f      	ldr	r3, [sp, #60]	@ 0x3c
 8002acc:	2b00      	cmp	r3, #0
 8002ace:	f000 80b7 	beq.w	8002c40 <_dtoa_r+0x518>
 8002ad2:	2200      	movs	r2, #0
 8002ad4:	4620      	mov	r0, r4
 8002ad6:	4629      	mov	r1, r5
 8002ad8:	4b5d      	ldr	r3, [pc, #372]	@ (8002c50 <_dtoa_r+0x528>)
 8002ada:	f7fe f833 	bl	8000b44 <__aeabi_dcmplt>
 8002ade:	2800      	cmp	r0, #0
 8002ae0:	f000 80ae 	beq.w	8002c40 <_dtoa_r+0x518>
 8002ae4:	9b07      	ldr	r3, [sp, #28]
 8002ae6:	2b00      	cmp	r3, #0
 8002ae8:	f000 80aa 	beq.w	8002c40 <_dtoa_r+0x518>
 8002aec:	9b08      	ldr	r3, [sp, #32]
 8002aee:	2b00      	cmp	r3, #0
 8002af0:	dd37      	ble.n	8002b62 <_dtoa_r+0x43a>
 8002af2:	1e7b      	subs	r3, r7, #1
 8002af4:	4620      	mov	r0, r4
 8002af6:	9304      	str	r3, [sp, #16]
 8002af8:	2200      	movs	r2, #0
 8002afa:	4629      	mov	r1, r5
 8002afc:	4b55      	ldr	r3, [pc, #340]	@ (8002c54 <_dtoa_r+0x52c>)
 8002afe:	f7fd fdaf 	bl	8000660 <__aeabi_dmul>
 8002b02:	e9cd 0102 	strd	r0, r1, [sp, #8]
 8002b06:	9c08      	ldr	r4, [sp, #32]
 8002b08:	3601      	adds	r6, #1
 8002b0a:	4630      	mov	r0, r6
 8002b0c:	f7fd fd3e 	bl	800058c <__aeabi_i2d>
 8002b10:	e9dd 2302 	ldrd	r2, r3, [sp, #8]
 8002b14:	f7fd fda4 	bl	8000660 <__aeabi_dmul>
 8002b18:	2200      	movs	r2, #0
 8002b1a:	4b4f      	ldr	r3, [pc, #316]	@ (8002c58 <_dtoa_r+0x530>)
 8002b1c:	f7fd fbea 	bl	80002f4 <__adddf3>
 8002b20:	4605      	mov	r5, r0
 8002b22:	f1a1 7650 	sub.w	r6, r1, #54525952	@ 0x3400000
 8002b26:	2c00      	cmp	r4, #0
 8002b28:	f040 809a 	bne.w	8002c60 <_dtoa_r+0x538>
 8002b2c:	e9dd 0102 	ldrd	r0, r1, [sp, #8]
 8002b30:	2200      	movs	r2, #0
 8002b32:	4b4a      	ldr	r3, [pc, #296]	@ (8002c5c <_dtoa_r+0x534>)
 8002b34:	f7fd fbdc 	bl	80002f0 <__aeabi_dsub>
 8002b38:	4602      	mov	r2, r0
 8002b3a:	460b      	mov	r3, r1
 8002b3c:	e9cd 2302 	strd	r2, r3, [sp, #8]
 8002b40:	462a      	mov	r2, r5
 8002b42:	4633      	mov	r3, r6
 8002b44:	f7fe f81c 	bl	8000b80 <__aeabi_dcmpgt>
 8002b48:	2800      	cmp	r0, #0
 8002b4a:	f040 828e 	bne.w	800306a <_dtoa_r+0x942>
 8002b4e:	e9dd 0102 	ldrd	r0, r1, [sp, #8]
 8002b52:	462a      	mov	r2, r5
 8002b54:	f106 4300 	add.w	r3, r6, #2147483648	@ 0x80000000
 8002b58:	f7fd fff4 	bl	8000b44 <__aeabi_dcmplt>
 8002b5c:	2800      	cmp	r0, #0
 8002b5e:	f040 8127 	bne.w	8002db0 <_dtoa_r+0x688>
 8002b62:	e9dd 340c 	ldrd	r3, r4, [sp, #48]	@ 0x30
 8002b66:	e9cd 3402 	strd	r3, r4, [sp, #8]
 8002b6a:	9b15      	ldr	r3, [sp, #84]	@ 0x54
 8002b6c:	2b00      	cmp	r3, #0
 8002b6e:	f2c0 8163 	blt.w	8002e38 <_dtoa_r+0x710>
 8002b72:	2f0e      	cmp	r7, #14
 8002b74:	f300 8160 	bgt.w	8002e38 <_dtoa_r+0x710>
 8002b78:	4b33      	ldr	r3, [pc, #204]	@ (8002c48 <_dtoa_r+0x520>)
 8002b7a:	eb03 03c7 	add.w	r3, r3, r7, lsl #3
 8002b7e:	e9d3 3400 	ldrd	r3, r4, [r3]
 8002b82:	e9cd 3404 	strd	r3, r4, [sp, #16]
 8002b86:	9b21      	ldr	r3, [sp, #132]	@ 0x84
 8002b88:	2b00      	cmp	r3, #0
 8002b8a:	da03      	bge.n	8002b94 <_dtoa_r+0x46c>
 8002b8c:	9b07      	ldr	r3, [sp, #28]
 8002b8e:	2b00      	cmp	r3, #0
 8002b90:	f340 8100 	ble.w	8002d94 <_dtoa_r+0x66c>
 8002b94:	e9dd 4502 	ldrd	r4, r5, [sp, #8]
 8002b98:	4656      	mov	r6, sl
 8002b9a:	e9dd 2304 	ldrd	r2, r3, [sp, #16]
 8002b9e:	4620      	mov	r0, r4
 8002ba0:	4629      	mov	r1, r5
 8002ba2:	f7fd fe87 	bl	80008b4 <__aeabi_ddiv>
 8002ba6:	f7fe f80b 	bl	8000bc0 <__aeabi_d2iz>
 8002baa:	4680      	mov	r8, r0
 8002bac:	f7fd fcee 	bl	800058c <__aeabi_i2d>
 8002bb0:	e9dd 2304 	ldrd	r2, r3, [sp, #16]
 8002bb4:	f7fd fd54 	bl	8000660 <__aeabi_dmul>
 8002bb8:	4602      	mov	r2, r0
 8002bba:	460b      	mov	r3, r1
 8002bbc:	4620      	mov	r0, r4
 8002bbe:	4629      	mov	r1, r5
 8002bc0:	f7fd fb96 	bl	80002f0 <__aeabi_dsub>
 8002bc4:	f108 0430 	add.w	r4, r8, #48	@ 0x30
 8002bc8:	9d07      	ldr	r5, [sp, #28]
 8002bca:	f806 4b01 	strb.w	r4, [r6], #1
 8002bce:	eba6 040a 	sub.w	r4, r6, sl
 8002bd2:	42a5      	cmp	r5, r4
 8002bd4:	4602      	mov	r2, r0
 8002bd6:	460b      	mov	r3, r1
 8002bd8:	f040 8116 	bne.w	8002e08 <_dtoa_r+0x6e0>
 8002bdc:	f7fd fb8a 	bl	80002f4 <__adddf3>
 8002be0:	e9dd 2304 	ldrd	r2, r3, [sp, #16]
 8002be4:	4604      	mov	r4, r0
 8002be6:	460d      	mov	r5, r1
 8002be8:	f7fd ffca 	bl	8000b80 <__aeabi_dcmpgt>
 8002bec:	2800      	cmp	r0, #0
 8002bee:	f040 80f8 	bne.w	8002de2 <_dtoa_r+0x6ba>
 8002bf2:	e9dd 2304 	ldrd	r2, r3, [sp, #16]
 8002bf6:	4620      	mov	r0, r4
 8002bf8:	4629      	mov	r1, r5
 8002bfa:	f7fd ff99 	bl	8000b30 <__aeabi_dcmpeq>
 8002bfe:	b118      	cbz	r0, 8002c08 <_dtoa_r+0x4e0>
 8002c00:	f018 0f01 	tst.w	r8, #1
 8002c04:	f040 80ed 	bne.w	8002de2 <_dtoa_r+0x6ba>
 8002c08:	4649      	mov	r1, r9
 8002c0a:	4658      	mov	r0, fp
 8002c0c:	f000 fc92 	bl	8003534 <_Bfree>
 8002c10:	2300      	movs	r3, #0
 8002c12:	7033      	strb	r3, [r6, #0]
 8002c14:	9b22      	ldr	r3, [sp, #136]	@ 0x88
 8002c16:	3701      	adds	r7, #1
 8002c18:	601f      	str	r7, [r3, #0]
 8002c1a:	9b24      	ldr	r3, [sp, #144]	@ 0x90
 8002c1c:	2b00      	cmp	r3, #0
 8002c1e:	f000 8320 	beq.w	8003262 <_dtoa_r+0xb3a>
 8002c22:	601e      	str	r6, [r3, #0]
 8002c24:	e31d      	b.n	8003262 <_dtoa_r+0xb3a>
 8002c26:	07e2      	lsls	r2, r4, #31
 8002c28:	d505      	bpl.n	8002c36 <_dtoa_r+0x50e>
 8002c2a:	e9d5 2300 	ldrd	r2, r3, [r5]
 8002c2e:	f7fd fd17 	bl	8000660 <__aeabi_dmul>
 8002c32:	2301      	movs	r3, #1
 8002c34:	3601      	adds	r6, #1
 8002c36:	1064      	asrs	r4, r4, #1
 8002c38:	3508      	adds	r5, #8
 8002c3a:	e73f      	b.n	8002abc <_dtoa_r+0x394>
 8002c3c:	2602      	movs	r6, #2
 8002c3e:	e742      	b.n	8002ac6 <_dtoa_r+0x39e>
 8002c40:	9c07      	ldr	r4, [sp, #28]
 8002c42:	9704      	str	r7, [sp, #16]
 8002c44:	e761      	b.n	8002b0a <_dtoa_r+0x3e2>
 8002c46:	bf00      	nop
 8002c48:	080044b8 	.word	0x080044b8
 8002c4c:	08004490 	.word	0x08004490
 8002c50:	3ff00000 	.word	0x3ff00000
 8002c54:	40240000 	.word	0x40240000
 8002c58:	401c0000 	.word	0x401c0000
 8002c5c:	40140000 	.word	0x40140000
 8002c60:	4b70      	ldr	r3, [pc, #448]	@ (8002e24 <_dtoa_r+0x6fc>)
 8002c62:	990b      	ldr	r1, [sp, #44]	@ 0x2c
 8002c64:	eb03 03c4 	add.w	r3, r3, r4, lsl #3
 8002c68:	e953 2302 	ldrd	r2, r3, [r3, #-8]
 8002c6c:	4454      	add	r4, sl
 8002c6e:	2900      	cmp	r1, #0
 8002c70:	d045      	beq.n	8002cfe <_dtoa_r+0x5d6>
 8002c72:	2000      	movs	r0, #0
 8002c74:	496c      	ldr	r1, [pc, #432]	@ (8002e28 <_dtoa_r+0x700>)
 8002c76:	f7fd fe1d 	bl	80008b4 <__aeabi_ddiv>
 8002c7a:	4633      	mov	r3, r6
 8002c7c:	462a      	mov	r2, r5
 8002c7e:	f7fd fb37 	bl	80002f0 <__aeabi_dsub>
 8002c82:	4656      	mov	r6, sl
 8002c84:	e9cd 0110 	strd	r0, r1, [sp, #64]	@ 0x40
 8002c88:	e9dd 0102 	ldrd	r0, r1, [sp, #8]
 8002c8c:	f7fd ff98 	bl	8000bc0 <__aeabi_d2iz>
 8002c90:	4605      	mov	r5, r0
 8002c92:	f7fd fc7b 	bl	800058c <__aeabi_i2d>
 8002c96:	4602      	mov	r2, r0
 8002c98:	460b      	mov	r3, r1
 8002c9a:	e9dd 0102 	ldrd	r0, r1, [sp, #8]
 8002c9e:	f7fd fb27 	bl	80002f0 <__aeabi_dsub>
 8002ca2:	4602      	mov	r2, r0
 8002ca4:	460b      	mov	r3, r1
 8002ca6:	3530      	adds	r5, #48	@ 0x30
 8002ca8:	e9cd 2302 	strd	r2, r3, [sp, #8]
 8002cac:	e9dd 2310 	ldrd	r2, r3, [sp, #64]	@ 0x40
 8002cb0:	f806 5b01 	strb.w	r5, [r6], #1
 8002cb4:	f7fd ff46 	bl	8000b44 <__aeabi_dcmplt>
 8002cb8:	2800      	cmp	r0, #0
 8002cba:	d163      	bne.n	8002d84 <_dtoa_r+0x65c>
 8002cbc:	e9dd 2302 	ldrd	r2, r3, [sp, #8]
 8002cc0:	2000      	movs	r0, #0
 8002cc2:	495a      	ldr	r1, [pc, #360]	@ (8002e2c <_dtoa_r+0x704>)
 8002cc4:	f7fd fb14 	bl	80002f0 <__aeabi_dsub>
 8002cc8:	e9dd 2310 	ldrd	r2, r3, [sp, #64]	@ 0x40
 8002ccc:	f7fd ff3a 	bl	8000b44 <__aeabi_dcmplt>
 8002cd0:	2800      	cmp	r0, #0
 8002cd2:	f040 8087 	bne.w	8002de4 <_dtoa_r+0x6bc>
 8002cd6:	42a6      	cmp	r6, r4
 8002cd8:	f43f af43 	beq.w	8002b62 <_dtoa_r+0x43a>
 8002cdc:	e9dd 0110 	ldrd	r0, r1, [sp, #64]	@ 0x40
 8002ce0:	2200      	movs	r2, #0
 8002ce2:	4b53      	ldr	r3, [pc, #332]	@ (8002e30 <_dtoa_r+0x708>)
 8002ce4:	f7fd fcbc 	bl	8000660 <__aeabi_dmul>
 8002ce8:	2200      	movs	r2, #0
 8002cea:	e9cd 0110 	strd	r0, r1, [sp, #64]	@ 0x40
 8002cee:	e9dd 0102 	ldrd	r0, r1, [sp, #8]
 8002cf2:	4b4f      	ldr	r3, [pc, #316]	@ (8002e30 <_dtoa_r+0x708>)
 8002cf4:	f7fd fcb4 	bl	8000660 <__aeabi_dmul>
 8002cf8:	e9cd 0102 	strd	r0, r1, [sp, #8]
 8002cfc:	e7c4      	b.n	8002c88 <_dtoa_r+0x560>
 8002cfe:	4631      	mov	r1, r6
 8002d00:	4628      	mov	r0, r5
 8002d02:	f7fd fcad 	bl	8000660 <__aeabi_dmul>
 8002d06:	4656      	mov	r6, sl
 8002d08:	e9cd 0110 	strd	r0, r1, [sp, #64]	@ 0x40
 8002d0c:	9413      	str	r4, [sp, #76]	@ 0x4c
 8002d0e:	e9dd 0102 	ldrd	r0, r1, [sp, #8]
 8002d12:	f7fd ff55 	bl	8000bc0 <__aeabi_d2iz>
 8002d16:	4605      	mov	r5, r0
 8002d18:	f7fd fc38 	bl	800058c <__aeabi_i2d>
 8002d1c:	4602      	mov	r2, r0
 8002d1e:	460b      	mov	r3, r1
 8002d20:	e9dd 0102 	ldrd	r0, r1, [sp, #8]
 8002d24:	f7fd fae4 	bl	80002f0 <__aeabi_dsub>
 8002d28:	4602      	mov	r2, r0
 8002d2a:	460b      	mov	r3, r1
 8002d2c:	3530      	adds	r5, #48	@ 0x30
 8002d2e:	f806 5b01 	strb.w	r5, [r6], #1
 8002d32:	42a6      	cmp	r6, r4
 8002d34:	e9cd 2302 	strd	r2, r3, [sp, #8]
 8002d38:	f04f 0200 	mov.w	r2, #0
 8002d3c:	d124      	bne.n	8002d88 <_dtoa_r+0x660>
 8002d3e:	e9dd 0110 	ldrd	r0, r1, [sp, #64]	@ 0x40
 8002d42:	4b39      	ldr	r3, [pc, #228]	@ (8002e28 <_dtoa_r+0x700>)
 8002d44:	f7fd fad6 	bl	80002f4 <__adddf3>
 8002d48:	4602      	mov	r2, r0
 8002d4a:	460b      	mov	r3, r1
 8002d4c:	e9dd 0102 	ldrd	r0, r1, [sp, #8]
 8002d50:	f7fd ff16 	bl	8000b80 <__aeabi_dcmpgt>
 8002d54:	2800      	cmp	r0, #0
 8002d56:	d145      	bne.n	8002de4 <_dtoa_r+0x6bc>
 8002d58:	e9dd 2310 	ldrd	r2, r3, [sp, #64]	@ 0x40
 8002d5c:	2000      	movs	r0, #0
 8002d5e:	4932      	ldr	r1, [pc, #200]	@ (8002e28 <_dtoa_r+0x700>)
 8002d60:	f7fd fac6 	bl	80002f0 <__aeabi_dsub>
 8002d64:	4602      	mov	r2, r0
 8002d66:	460b      	mov	r3, r1
 8002d68:	e9dd 0102 	ldrd	r0, r1, [sp, #8]
 8002d6c:	f7fd feea 	bl	8000b44 <__aeabi_dcmplt>
 8002d70:	2800      	cmp	r0, #0
 8002d72:	f43f aef6 	beq.w	8002b62 <_dtoa_r+0x43a>
 8002d76:	9e13      	ldr	r6, [sp, #76]	@ 0x4c
 8002d78:	1e73      	subs	r3, r6, #1
 8002d7a:	9313      	str	r3, [sp, #76]	@ 0x4c
 8002d7c:	f816 3c01 	ldrb.w	r3, [r6, #-1]
 8002d80:	2b30      	cmp	r3, #48	@ 0x30
 8002d82:	d0f8      	beq.n	8002d76 <_dtoa_r+0x64e>
 8002d84:	9f04      	ldr	r7, [sp, #16]
 8002d86:	e73f      	b.n	8002c08 <_dtoa_r+0x4e0>
 8002d88:	4b29      	ldr	r3, [pc, #164]	@ (8002e30 <_dtoa_r+0x708>)
 8002d8a:	f7fd fc69 	bl	8000660 <__aeabi_dmul>
 8002d8e:	e9cd 0102 	strd	r0, r1, [sp, #8]
 8002d92:	e7bc      	b.n	8002d0e <_dtoa_r+0x5e6>
 8002d94:	d10c      	bne.n	8002db0 <_dtoa_r+0x688>
 8002d96:	e9dd 0104 	ldrd	r0, r1, [sp, #16]
 8002d9a:	2200      	movs	r2, #0
 8002d9c:	4b25      	ldr	r3, [pc, #148]	@ (8002e34 <_dtoa_r+0x70c>)
 8002d9e:	f7fd fc5f 	bl	8000660 <__aeabi_dmul>
 8002da2:	e9dd 2302 	ldrd	r2, r3, [sp, #8]
 8002da6:	f7fd fee1 	bl	8000b6c <__aeabi_dcmpge>
 8002daa:	2800      	cmp	r0, #0
 8002dac:	f000 815b 	beq.w	8003066 <_dtoa_r+0x93e>
 8002db0:	2400      	movs	r4, #0
 8002db2:	4625      	mov	r5, r4
 8002db4:	9b21      	ldr	r3, [sp, #132]	@ 0x84
 8002db6:	4656      	mov	r6, sl
 8002db8:	43db      	mvns	r3, r3
 8002dba:	9304      	str	r3, [sp, #16]
 8002dbc:	2700      	movs	r7, #0
 8002dbe:	4621      	mov	r1, r4
 8002dc0:	4658      	mov	r0, fp
 8002dc2:	f000 fbb7 	bl	8003534 <_Bfree>
 8002dc6:	2d00      	cmp	r5, #0
 8002dc8:	d0dc      	beq.n	8002d84 <_dtoa_r+0x65c>
 8002dca:	b12f      	cbz	r7, 8002dd8 <_dtoa_r+0x6b0>
 8002dcc:	42af      	cmp	r7, r5
 8002dce:	d003      	beq.n	8002dd8 <_dtoa_r+0x6b0>
 8002dd0:	4639      	mov	r1, r7
 8002dd2:	4658      	mov	r0, fp
 8002dd4:	f000 fbae 	bl	8003534 <_Bfree>
 8002dd8:	4629      	mov	r1, r5
 8002dda:	4658      	mov	r0, fp
 8002ddc:	f000 fbaa 	bl	8003534 <_Bfree>
 8002de0:	e7d0      	b.n	8002d84 <_dtoa_r+0x65c>
 8002de2:	9704      	str	r7, [sp, #16]
 8002de4:	4633      	mov	r3, r6
 8002de6:	461e      	mov	r6, r3
 8002de8:	f813 2d01 	ldrb.w	r2, [r3, #-1]!
 8002dec:	2a39      	cmp	r2, #57	@ 0x39
 8002dee:	d107      	bne.n	8002e00 <_dtoa_r+0x6d8>
 8002df0:	459a      	cmp	sl, r3
 8002df2:	d1f8      	bne.n	8002de6 <_dtoa_r+0x6be>
 8002df4:	9a04      	ldr	r2, [sp, #16]
 8002df6:	3201      	adds	r2, #1
 8002df8:	9204      	str	r2, [sp, #16]
 8002dfa:	2230      	movs	r2, #48	@ 0x30
 8002dfc:	f88a 2000 	strb.w	r2, [sl]
 8002e00:	781a      	ldrb	r2, [r3, #0]
 8002e02:	3201      	adds	r2, #1
 8002e04:	701a      	strb	r2, [r3, #0]
 8002e06:	e7bd      	b.n	8002d84 <_dtoa_r+0x65c>
 8002e08:	2200      	movs	r2, #0
 8002e0a:	4b09      	ldr	r3, [pc, #36]	@ (8002e30 <_dtoa_r+0x708>)
 8002e0c:	f7fd fc28 	bl	8000660 <__aeabi_dmul>
 8002e10:	2200      	movs	r2, #0
 8002e12:	2300      	movs	r3, #0
 8002e14:	4604      	mov	r4, r0
 8002e16:	460d      	mov	r5, r1
 8002e18:	f7fd fe8a 	bl	8000b30 <__aeabi_dcmpeq>
 8002e1c:	2800      	cmp	r0, #0
 8002e1e:	f43f aebc 	beq.w	8002b9a <_dtoa_r+0x472>
 8002e22:	e6f1      	b.n	8002c08 <_dtoa_r+0x4e0>
 8002e24:	080044b8 	.word	0x080044b8
 8002e28:	3fe00000 	.word	0x3fe00000
 8002e2c:	3ff00000 	.word	0x3ff00000
 8002e30:	40240000 	.word	0x40240000
 8002e34:	40140000 	.word	0x40140000
 8002e38:	9a0b      	ldr	r2, [sp, #44]	@ 0x2c
 8002e3a:	2a00      	cmp	r2, #0
 8002e3c:	f000 80db 	beq.w	8002ff6 <_dtoa_r+0x8ce>
 8002e40:	9a20      	ldr	r2, [sp, #128]	@ 0x80
 8002e42:	2a01      	cmp	r2, #1
 8002e44:	f300 80bf 	bgt.w	8002fc6 <_dtoa_r+0x89e>
 8002e48:	9a12      	ldr	r2, [sp, #72]	@ 0x48
 8002e4a:	2a00      	cmp	r2, #0
 8002e4c:	f000 80b7 	beq.w	8002fbe <_dtoa_r+0x896>
 8002e50:	f203 4333 	addw	r3, r3, #1075	@ 0x433
 8002e54:	4646      	mov	r6, r8
 8002e56:	9c0a      	ldr	r4, [sp, #40]	@ 0x28
 8002e58:	9a09      	ldr	r2, [sp, #36]	@ 0x24
 8002e5a:	2101      	movs	r1, #1
 8002e5c:	441a      	add	r2, r3
 8002e5e:	4658      	mov	r0, fp
 8002e60:	4498      	add	r8, r3
 8002e62:	9209      	str	r2, [sp, #36]	@ 0x24
 8002e64:	f000 fc1a 	bl	800369c <__i2b>
 8002e68:	4605      	mov	r5, r0
 8002e6a:	b15e      	cbz	r6, 8002e84 <_dtoa_r+0x75c>
 8002e6c:	9b09      	ldr	r3, [sp, #36]	@ 0x24
 8002e6e:	2b00      	cmp	r3, #0
 8002e70:	dd08      	ble.n	8002e84 <_dtoa_r+0x75c>
 8002e72:	42b3      	cmp	r3, r6
 8002e74:	bfa8      	it	ge
 8002e76:	4633      	movge	r3, r6
 8002e78:	9a09      	ldr	r2, [sp, #36]	@ 0x24
 8002e7a:	eba8 0803 	sub.w	r8, r8, r3
 8002e7e:	1af6      	subs	r6, r6, r3
 8002e80:	1ad3      	subs	r3, r2, r3
 8002e82:	9309      	str	r3, [sp, #36]	@ 0x24
 8002e84:	9b0a      	ldr	r3, [sp, #40]	@ 0x28
 8002e86:	b1f3      	cbz	r3, 8002ec6 <_dtoa_r+0x79e>
 8002e88:	9b0b      	ldr	r3, [sp, #44]	@ 0x2c
 8002e8a:	2b00      	cmp	r3, #0
 8002e8c:	f000 80b7 	beq.w	8002ffe <_dtoa_r+0x8d6>
 8002e90:	b18c      	cbz	r4, 8002eb6 <_dtoa_r+0x78e>
 8002e92:	4629      	mov	r1, r5
 8002e94:	4622      	mov	r2, r4
 8002e96:	4658      	mov	r0, fp
 8002e98:	f000 fcbe 	bl	8003818 <__pow5mult>
 8002e9c:	464a      	mov	r2, r9
 8002e9e:	4601      	mov	r1, r0
 8002ea0:	4605      	mov	r5, r0
 8002ea2:	4658      	mov	r0, fp
 8002ea4:	f000 fc10 	bl	80036c8 <__multiply>
 8002ea8:	4649      	mov	r1, r9
 8002eaa:	9004      	str	r0, [sp, #16]
 8002eac:	4658      	mov	r0, fp
 8002eae:	f000 fb41 	bl	8003534 <_Bfree>
 8002eb2:	9b04      	ldr	r3, [sp, #16]
 8002eb4:	4699      	mov	r9, r3
 8002eb6:	9b0a      	ldr	r3, [sp, #40]	@ 0x28
 8002eb8:	1b1a      	subs	r2, r3, r4
 8002eba:	d004      	beq.n	8002ec6 <_dtoa_r+0x79e>
 8002ebc:	4649      	mov	r1, r9
 8002ebe:	4658      	mov	r0, fp
 8002ec0:	f000 fcaa 	bl	8003818 <__pow5mult>
 8002ec4:	4681      	mov	r9, r0
 8002ec6:	2101      	movs	r1, #1
 8002ec8:	4658      	mov	r0, fp
 8002eca:	f000 fbe7 	bl	800369c <__i2b>
 8002ece:	9b0e      	ldr	r3, [sp, #56]	@ 0x38
 8002ed0:	4604      	mov	r4, r0
 8002ed2:	2b00      	cmp	r3, #0
 8002ed4:	f000 81c9 	beq.w	800326a <_dtoa_r+0xb42>
 8002ed8:	461a      	mov	r2, r3
 8002eda:	4601      	mov	r1, r0
 8002edc:	4658      	mov	r0, fp
 8002ede:	f000 fc9b 	bl	8003818 <__pow5mult>
 8002ee2:	9b20      	ldr	r3, [sp, #128]	@ 0x80
 8002ee4:	4604      	mov	r4, r0
 8002ee6:	2b01      	cmp	r3, #1
 8002ee8:	f300 808f 	bgt.w	800300a <_dtoa_r+0x8e2>
 8002eec:	9b02      	ldr	r3, [sp, #8]
 8002eee:	2b00      	cmp	r3, #0
 8002ef0:	f040 8087 	bne.w	8003002 <_dtoa_r+0x8da>
 8002ef4:	9b03      	ldr	r3, [sp, #12]
 8002ef6:	f3c3 0313 	ubfx	r3, r3, #0, #20
 8002efa:	2b00      	cmp	r3, #0
 8002efc:	f040 8083 	bne.w	8003006 <_dtoa_r+0x8de>
 8002f00:	9b03      	ldr	r3, [sp, #12]
 8002f02:	f023 4300 	bic.w	r3, r3, #2147483648	@ 0x80000000
 8002f06:	0d1b      	lsrs	r3, r3, #20
 8002f08:	051b      	lsls	r3, r3, #20
 8002f0a:	b12b      	cbz	r3, 8002f18 <_dtoa_r+0x7f0>
 8002f0c:	9b09      	ldr	r3, [sp, #36]	@ 0x24
 8002f0e:	f108 0801 	add.w	r8, r8, #1
 8002f12:	3301      	adds	r3, #1
 8002f14:	9309      	str	r3, [sp, #36]	@ 0x24
 8002f16:	2301      	movs	r3, #1
 8002f18:	930a      	str	r3, [sp, #40]	@ 0x28
 8002f1a:	9b0e      	ldr	r3, [sp, #56]	@ 0x38
 8002f1c:	2b00      	cmp	r3, #0
 8002f1e:	f000 81aa 	beq.w	8003276 <_dtoa_r+0xb4e>
 8002f22:	6923      	ldr	r3, [r4, #16]
 8002f24:	eb04 0383 	add.w	r3, r4, r3, lsl #2
 8002f28:	6918      	ldr	r0, [r3, #16]
 8002f2a:	f000 fb6b 	bl	8003604 <__hi0bits>
 8002f2e:	f1c0 0020 	rsb	r0, r0, #32
 8002f32:	9b09      	ldr	r3, [sp, #36]	@ 0x24
 8002f34:	4418      	add	r0, r3
 8002f36:	f010 001f 	ands.w	r0, r0, #31
 8002f3a:	d071      	beq.n	8003020 <_dtoa_r+0x8f8>
 8002f3c:	f1c0 0320 	rsb	r3, r0, #32
 8002f40:	2b04      	cmp	r3, #4
 8002f42:	dd65      	ble.n	8003010 <_dtoa_r+0x8e8>
 8002f44:	9b09      	ldr	r3, [sp, #36]	@ 0x24
 8002f46:	f1c0 001c 	rsb	r0, r0, #28
 8002f4a:	4403      	add	r3, r0
 8002f4c:	4480      	add	r8, r0
 8002f4e:	4406      	add	r6, r0
 8002f50:	9309      	str	r3, [sp, #36]	@ 0x24
 8002f52:	f1b8 0f00 	cmp.w	r8, #0
 8002f56:	dd05      	ble.n	8002f64 <_dtoa_r+0x83c>
 8002f58:	4649      	mov	r1, r9
 8002f5a:	4642      	mov	r2, r8
 8002f5c:	4658      	mov	r0, fp
 8002f5e:	f000 fcb5 	bl	80038cc <__lshift>
 8002f62:	4681      	mov	r9, r0
 8002f64:	9b09      	ldr	r3, [sp, #36]	@ 0x24
 8002f66:	2b00      	cmp	r3, #0
 8002f68:	dd05      	ble.n	8002f76 <_dtoa_r+0x84e>
 8002f6a:	4621      	mov	r1, r4
 8002f6c:	461a      	mov	r2, r3
 8002f6e:	4658      	mov	r0, fp
 8002f70:	f000 fcac 	bl	80038cc <__lshift>
 8002f74:	4604      	mov	r4, r0
 8002f76:	9b0f      	ldr	r3, [sp, #60]	@ 0x3c
 8002f78:	2b00      	cmp	r3, #0
 8002f7a:	d053      	beq.n	8003024 <_dtoa_r+0x8fc>
 8002f7c:	4621      	mov	r1, r4
 8002f7e:	4648      	mov	r0, r9
 8002f80:	f000 fd10 	bl	80039a4 <__mcmp>
 8002f84:	2800      	cmp	r0, #0
 8002f86:	da4d      	bge.n	8003024 <_dtoa_r+0x8fc>
 8002f88:	1e7b      	subs	r3, r7, #1
 8002f8a:	4649      	mov	r1, r9
 8002f8c:	9304      	str	r3, [sp, #16]
 8002f8e:	220a      	movs	r2, #10
 8002f90:	2300      	movs	r3, #0
 8002f92:	4658      	mov	r0, fp
 8002f94:	f000 faf0 	bl	8003578 <__multadd>
 8002f98:	9b0b      	ldr	r3, [sp, #44]	@ 0x2c
 8002f9a:	4681      	mov	r9, r0
 8002f9c:	2b00      	cmp	r3, #0
 8002f9e:	f000 816c 	beq.w	800327a <_dtoa_r+0xb52>
 8002fa2:	2300      	movs	r3, #0
 8002fa4:	4629      	mov	r1, r5
 8002fa6:	220a      	movs	r2, #10
 8002fa8:	4658      	mov	r0, fp
 8002faa:	f000 fae5 	bl	8003578 <__multadd>
 8002fae:	9b08      	ldr	r3, [sp, #32]
 8002fb0:	4605      	mov	r5, r0
 8002fb2:	2b00      	cmp	r3, #0
 8002fb4:	dc61      	bgt.n	800307a <_dtoa_r+0x952>
 8002fb6:	9b20      	ldr	r3, [sp, #128]	@ 0x80
 8002fb8:	2b02      	cmp	r3, #2
 8002fba:	dc3b      	bgt.n	8003034 <_dtoa_r+0x90c>
 8002fbc:	e05d      	b.n	800307a <_dtoa_r+0x952>
 8002fbe:	9b14      	ldr	r3, [sp, #80]	@ 0x50
 8002fc0:	f1c3 0336 	rsb	r3, r3, #54	@ 0x36
 8002fc4:	e746      	b.n	8002e54 <_dtoa_r+0x72c>
 8002fc6:	9b07      	ldr	r3, [sp, #28]
 8002fc8:	1e5c      	subs	r4, r3, #1
 8002fca:	9b0a      	ldr	r3, [sp, #40]	@ 0x28
 8002fcc:	42a3      	cmp	r3, r4
 8002fce:	bfbf      	itttt	lt
 8002fd0:	9b0a      	ldrlt	r3, [sp, #40]	@ 0x28
 8002fd2:	9a0e      	ldrlt	r2, [sp, #56]	@ 0x38
 8002fd4:	1ae3      	sublt	r3, r4, r3
 8002fd6:	18d2      	addlt	r2, r2, r3
 8002fd8:	bfa8      	it	ge
 8002fda:	1b1c      	subge	r4, r3, r4
 8002fdc:	9b07      	ldr	r3, [sp, #28]
 8002fde:	bfbe      	ittt	lt
 8002fe0:	940a      	strlt	r4, [sp, #40]	@ 0x28
 8002fe2:	920e      	strlt	r2, [sp, #56]	@ 0x38
 8002fe4:	2400      	movlt	r4, #0
 8002fe6:	2b00      	cmp	r3, #0
 8002fe8:	bfb5      	itete	lt
 8002fea:	eba8 0603 	sublt.w	r6, r8, r3
 8002fee:	4646      	movge	r6, r8
 8002ff0:	2300      	movlt	r3, #0
 8002ff2:	9b07      	ldrge	r3, [sp, #28]
 8002ff4:	e730      	b.n	8002e58 <_dtoa_r+0x730>
 8002ff6:	4646      	mov	r6, r8
 8002ff8:	9c0a      	ldr	r4, [sp, #40]	@ 0x28
 8002ffa:	9d0b      	ldr	r5, [sp, #44]	@ 0x2c
 8002ffc:	e735      	b.n	8002e6a <_dtoa_r+0x742>
 8002ffe:	9a0a      	ldr	r2, [sp, #40]	@ 0x28
 8003000:	e75c      	b.n	8002ebc <_dtoa_r+0x794>
 8003002:	2300      	movs	r3, #0
 8003004:	e788      	b.n	8002f18 <_dtoa_r+0x7f0>
 8003006:	9b02      	ldr	r3, [sp, #8]
 8003008:	e786      	b.n	8002f18 <_dtoa_r+0x7f0>
 800300a:	2300      	movs	r3, #0
 800300c:	930a      	str	r3, [sp, #40]	@ 0x28
 800300e:	e788      	b.n	8002f22 <_dtoa_r+0x7fa>
 8003010:	d09f      	beq.n	8002f52 <_dtoa_r+0x82a>
 8003012:	9a09      	ldr	r2, [sp, #36]	@ 0x24
 8003014:	331c      	adds	r3, #28
 8003016:	441a      	add	r2, r3
 8003018:	4498      	add	r8, r3
 800301a:	441e      	add	r6, r3
 800301c:	9209      	str	r2, [sp, #36]	@ 0x24
 800301e:	e798      	b.n	8002f52 <_dtoa_r+0x82a>
 8003020:	4603      	mov	r3, r0
 8003022:	e7f6      	b.n	8003012 <_dtoa_r+0x8ea>
 8003024:	9b07      	ldr	r3, [sp, #28]
 8003026:	9704      	str	r7, [sp, #16]
 8003028:	2b00      	cmp	r3, #0
 800302a:	dc20      	bgt.n	800306e <_dtoa_r+0x946>
 800302c:	9308      	str	r3, [sp, #32]
 800302e:	9b20      	ldr	r3, [sp, #128]	@ 0x80
 8003030:	2b02      	cmp	r3, #2
 8003032:	dd1e      	ble.n	8003072 <_dtoa_r+0x94a>
 8003034:	9b08      	ldr	r3, [sp, #32]
 8003036:	2b00      	cmp	r3, #0
 8003038:	f47f aebc 	bne.w	8002db4 <_dtoa_r+0x68c>
 800303c:	4621      	mov	r1, r4
 800303e:	2205      	movs	r2, #5
 8003040:	4658      	mov	r0, fp
 8003042:	f000 fa99 	bl	8003578 <__multadd>
 8003046:	4601      	mov	r1, r0
 8003048:	4604      	mov	r4, r0
 800304a:	4648      	mov	r0, r9
 800304c:	f000 fcaa 	bl	80039a4 <__mcmp>
 8003050:	2800      	cmp	r0, #0
 8003052:	f77f aeaf 	ble.w	8002db4 <_dtoa_r+0x68c>
 8003056:	2331      	movs	r3, #49	@ 0x31
 8003058:	4656      	mov	r6, sl
 800305a:	f806 3b01 	strb.w	r3, [r6], #1
 800305e:	9b04      	ldr	r3, [sp, #16]
 8003060:	3301      	adds	r3, #1
 8003062:	9304      	str	r3, [sp, #16]
 8003064:	e6aa      	b.n	8002dbc <_dtoa_r+0x694>
 8003066:	9c07      	ldr	r4, [sp, #28]
 8003068:	9704      	str	r7, [sp, #16]
 800306a:	4625      	mov	r5, r4
 800306c:	e7f3      	b.n	8003056 <_dtoa_r+0x92e>
 800306e:	9b07      	ldr	r3, [sp, #28]
 8003070:	9308      	str	r3, [sp, #32]
 8003072:	9b0b      	ldr	r3, [sp, #44]	@ 0x2c
 8003074:	2b00      	cmp	r3, #0
 8003076:	f000 8104 	beq.w	8003282 <_dtoa_r+0xb5a>
 800307a:	2e00      	cmp	r6, #0
 800307c:	dd05      	ble.n	800308a <_dtoa_r+0x962>
 800307e:	4629      	mov	r1, r5
 8003080:	4632      	mov	r2, r6
 8003082:	4658      	mov	r0, fp
 8003084:	f000 fc22 	bl	80038cc <__lshift>
 8003088:	4605      	mov	r5, r0
 800308a:	9b0a      	ldr	r3, [sp, #40]	@ 0x28
 800308c:	2b00      	cmp	r3, #0
 800308e:	d05a      	beq.n	8003146 <_dtoa_r+0xa1e>
 8003090:	4658      	mov	r0, fp
 8003092:	6869      	ldr	r1, [r5, #4]
 8003094:	f000 fa0e 	bl	80034b4 <_Balloc>
 8003098:	4606      	mov	r6, r0
 800309a:	b928      	cbnz	r0, 80030a8 <_dtoa_r+0x980>
 800309c:	4602      	mov	r2, r0
 800309e:	f240 21ef 	movw	r1, #751	@ 0x2ef
 80030a2:	4b83      	ldr	r3, [pc, #524]	@ (80032b0 <_dtoa_r+0xb88>)
 80030a4:	f7ff bb54 	b.w	8002750 <_dtoa_r+0x28>
 80030a8:	692a      	ldr	r2, [r5, #16]
 80030aa:	f105 010c 	add.w	r1, r5, #12
 80030ae:	3202      	adds	r2, #2
 80030b0:	0092      	lsls	r2, r2, #2
 80030b2:	300c      	adds	r0, #12
 80030b4:	f000 fe36 	bl	8003d24 <memcpy>
 80030b8:	2201      	movs	r2, #1
 80030ba:	4631      	mov	r1, r6
 80030bc:	4658      	mov	r0, fp
 80030be:	f000 fc05 	bl	80038cc <__lshift>
 80030c2:	462f      	mov	r7, r5
 80030c4:	4605      	mov	r5, r0
 80030c6:	f10a 0301 	add.w	r3, sl, #1
 80030ca:	9307      	str	r3, [sp, #28]
 80030cc:	9b08      	ldr	r3, [sp, #32]
 80030ce:	4453      	add	r3, sl
 80030d0:	930b      	str	r3, [sp, #44]	@ 0x2c
 80030d2:	9b02      	ldr	r3, [sp, #8]
 80030d4:	f003 0301 	and.w	r3, r3, #1
 80030d8:	930a      	str	r3, [sp, #40]	@ 0x28
 80030da:	9b07      	ldr	r3, [sp, #28]
 80030dc:	4621      	mov	r1, r4
 80030de:	3b01      	subs	r3, #1
 80030e0:	4648      	mov	r0, r9
 80030e2:	9302      	str	r3, [sp, #8]
 80030e4:	f7ff fa97 	bl	8002616 <quorem>
 80030e8:	4639      	mov	r1, r7
 80030ea:	9008      	str	r0, [sp, #32]
 80030ec:	f100 0830 	add.w	r8, r0, #48	@ 0x30
 80030f0:	4648      	mov	r0, r9
 80030f2:	f000 fc57 	bl	80039a4 <__mcmp>
 80030f6:	462a      	mov	r2, r5
 80030f8:	9009      	str	r0, [sp, #36]	@ 0x24
 80030fa:	4621      	mov	r1, r4
 80030fc:	4658      	mov	r0, fp
 80030fe:	f000 fc6d 	bl	80039dc <__mdiff>
 8003102:	68c2      	ldr	r2, [r0, #12]
 8003104:	4606      	mov	r6, r0
 8003106:	bb02      	cbnz	r2, 800314a <_dtoa_r+0xa22>
 8003108:	4601      	mov	r1, r0
 800310a:	4648      	mov	r0, r9
 800310c:	f000 fc4a 	bl	80039a4 <__mcmp>
 8003110:	4602      	mov	r2, r0
 8003112:	4631      	mov	r1, r6
 8003114:	4658      	mov	r0, fp
 8003116:	920c      	str	r2, [sp, #48]	@ 0x30
 8003118:	f000 fa0c 	bl	8003534 <_Bfree>
 800311c:	9b20      	ldr	r3, [sp, #128]	@ 0x80
 800311e:	9a0c      	ldr	r2, [sp, #48]	@ 0x30
 8003120:	9e07      	ldr	r6, [sp, #28]
 8003122:	ea43 0102 	orr.w	r1, r3, r2
 8003126:	9b0a      	ldr	r3, [sp, #40]	@ 0x28
 8003128:	4319      	orrs	r1, r3
 800312a:	d110      	bne.n	800314e <_dtoa_r+0xa26>
 800312c:	f1b8 0f39 	cmp.w	r8, #57	@ 0x39
 8003130:	d029      	beq.n	8003186 <_dtoa_r+0xa5e>
 8003132:	9b09      	ldr	r3, [sp, #36]	@ 0x24
 8003134:	2b00      	cmp	r3, #0
 8003136:	dd02      	ble.n	800313e <_dtoa_r+0xa16>
 8003138:	9b08      	ldr	r3, [sp, #32]
 800313a:	f103 0831 	add.w	r8, r3, #49	@ 0x31
 800313e:	9b02      	ldr	r3, [sp, #8]
 8003140:	f883 8000 	strb.w	r8, [r3]
 8003144:	e63b      	b.n	8002dbe <_dtoa_r+0x696>
 8003146:	4628      	mov	r0, r5
 8003148:	e7bb      	b.n	80030c2 <_dtoa_r+0x99a>
 800314a:	2201      	movs	r2, #1
 800314c:	e7e1      	b.n	8003112 <_dtoa_r+0x9ea>
 800314e:	9b09      	ldr	r3, [sp, #36]	@ 0x24
 8003150:	2b00      	cmp	r3, #0
 8003152:	db04      	blt.n	800315e <_dtoa_r+0xa36>
 8003154:	9920      	ldr	r1, [sp, #128]	@ 0x80
 8003156:	430b      	orrs	r3, r1
 8003158:	990a      	ldr	r1, [sp, #40]	@ 0x28
 800315a:	430b      	orrs	r3, r1
 800315c:	d120      	bne.n	80031a0 <_dtoa_r+0xa78>
 800315e:	2a00      	cmp	r2, #0
 8003160:	dded      	ble.n	800313e <_dtoa_r+0xa16>
 8003162:	4649      	mov	r1, r9
 8003164:	2201      	movs	r2, #1
 8003166:	4658      	mov	r0, fp
 8003168:	f000 fbb0 	bl	80038cc <__lshift>
 800316c:	4621      	mov	r1, r4
 800316e:	4681      	mov	r9, r0
 8003170:	f000 fc18 	bl	80039a4 <__mcmp>
 8003174:	2800      	cmp	r0, #0
 8003176:	dc03      	bgt.n	8003180 <_dtoa_r+0xa58>
 8003178:	d1e1      	bne.n	800313e <_dtoa_r+0xa16>
 800317a:	f018 0f01 	tst.w	r8, #1
 800317e:	d0de      	beq.n	800313e <_dtoa_r+0xa16>
 8003180:	f1b8 0f39 	cmp.w	r8, #57	@ 0x39
 8003184:	d1d8      	bne.n	8003138 <_dtoa_r+0xa10>
 8003186:	2339      	movs	r3, #57	@ 0x39
 8003188:	9a02      	ldr	r2, [sp, #8]
 800318a:	7013      	strb	r3, [r2, #0]
 800318c:	4633      	mov	r3, r6
 800318e:	461e      	mov	r6, r3
 8003190:	f816 2c01 	ldrb.w	r2, [r6, #-1]
 8003194:	3b01      	subs	r3, #1
 8003196:	2a39      	cmp	r2, #57	@ 0x39
 8003198:	d052      	beq.n	8003240 <_dtoa_r+0xb18>
 800319a:	3201      	adds	r2, #1
 800319c:	701a      	strb	r2, [r3, #0]
 800319e:	e60e      	b.n	8002dbe <_dtoa_r+0x696>
 80031a0:	2a00      	cmp	r2, #0
 80031a2:	dd07      	ble.n	80031b4 <_dtoa_r+0xa8c>
 80031a4:	f1b8 0f39 	cmp.w	r8, #57	@ 0x39
 80031a8:	d0ed      	beq.n	8003186 <_dtoa_r+0xa5e>
 80031aa:	9a02      	ldr	r2, [sp, #8]
 80031ac:	f108 0301 	add.w	r3, r8, #1
 80031b0:	7013      	strb	r3, [r2, #0]
 80031b2:	e604      	b.n	8002dbe <_dtoa_r+0x696>
 80031b4:	9b07      	ldr	r3, [sp, #28]
 80031b6:	9a07      	ldr	r2, [sp, #28]
 80031b8:	f803 8c01 	strb.w	r8, [r3, #-1]
 80031bc:	9b0b      	ldr	r3, [sp, #44]	@ 0x2c
 80031be:	4293      	cmp	r3, r2
 80031c0:	d028      	beq.n	8003214 <_dtoa_r+0xaec>
 80031c2:	4649      	mov	r1, r9
 80031c4:	2300      	movs	r3, #0
 80031c6:	220a      	movs	r2, #10
 80031c8:	4658      	mov	r0, fp
 80031ca:	f000 f9d5 	bl	8003578 <__multadd>
 80031ce:	42af      	cmp	r7, r5
 80031d0:	4681      	mov	r9, r0
 80031d2:	f04f 0300 	mov.w	r3, #0
 80031d6:	f04f 020a 	mov.w	r2, #10
 80031da:	4639      	mov	r1, r7
 80031dc:	4658      	mov	r0, fp
 80031de:	d107      	bne.n	80031f0 <_dtoa_r+0xac8>
 80031e0:	f000 f9ca 	bl	8003578 <__multadd>
 80031e4:	4607      	mov	r7, r0
 80031e6:	4605      	mov	r5, r0
 80031e8:	9b07      	ldr	r3, [sp, #28]
 80031ea:	3301      	adds	r3, #1
 80031ec:	9307      	str	r3, [sp, #28]
 80031ee:	e774      	b.n	80030da <_dtoa_r+0x9b2>
 80031f0:	f000 f9c2 	bl	8003578 <__multadd>
 80031f4:	4629      	mov	r1, r5
 80031f6:	4607      	mov	r7, r0
 80031f8:	2300      	movs	r3, #0
 80031fa:	220a      	movs	r2, #10
 80031fc:	4658      	mov	r0, fp
 80031fe:	f000 f9bb 	bl	8003578 <__multadd>
 8003202:	4605      	mov	r5, r0
 8003204:	e7f0      	b.n	80031e8 <_dtoa_r+0xac0>
 8003206:	9b08      	ldr	r3, [sp, #32]
 8003208:	2700      	movs	r7, #0
 800320a:	2b00      	cmp	r3, #0
 800320c:	bfcc      	ite	gt
 800320e:	461e      	movgt	r6, r3
 8003210:	2601      	movle	r6, #1
 8003212:	4456      	add	r6, sl
 8003214:	4649      	mov	r1, r9
 8003216:	2201      	movs	r2, #1
 8003218:	4658      	mov	r0, fp
 800321a:	f000 fb57 	bl	80038cc <__lshift>
 800321e:	4621      	mov	r1, r4
 8003220:	4681      	mov	r9, r0
 8003222:	f000 fbbf 	bl	80039a4 <__mcmp>
 8003226:	2800      	cmp	r0, #0
 8003228:	dcb0      	bgt.n	800318c <_dtoa_r+0xa64>
 800322a:	d102      	bne.n	8003232 <_dtoa_r+0xb0a>
 800322c:	f018 0f01 	tst.w	r8, #1
 8003230:	d1ac      	bne.n	800318c <_dtoa_r+0xa64>
 8003232:	4633      	mov	r3, r6
 8003234:	461e      	mov	r6, r3
 8003236:	f813 2d01 	ldrb.w	r2, [r3, #-1]!
 800323a:	2a30      	cmp	r2, #48	@ 0x30
 800323c:	d0fa      	beq.n	8003234 <_dtoa_r+0xb0c>
 800323e:	e5be      	b.n	8002dbe <_dtoa_r+0x696>
 8003240:	459a      	cmp	sl, r3
 8003242:	d1a4      	bne.n	800318e <_dtoa_r+0xa66>
 8003244:	9b04      	ldr	r3, [sp, #16]
 8003246:	3301      	adds	r3, #1
 8003248:	9304      	str	r3, [sp, #16]
 800324a:	2331      	movs	r3, #49	@ 0x31
 800324c:	f88a 3000 	strb.w	r3, [sl]
 8003250:	e5b5      	b.n	8002dbe <_dtoa_r+0x696>
 8003252:	9b24      	ldr	r3, [sp, #144]	@ 0x90
 8003254:	f8df a05c 	ldr.w	sl, [pc, #92]	@ 80032b4 <_dtoa_r+0xb8c>
 8003258:	b11b      	cbz	r3, 8003262 <_dtoa_r+0xb3a>
 800325a:	f10a 0308 	add.w	r3, sl, #8
 800325e:	9a24      	ldr	r2, [sp, #144]	@ 0x90
 8003260:	6013      	str	r3, [r2, #0]
 8003262:	4650      	mov	r0, sl
 8003264:	b017      	add	sp, #92	@ 0x5c
 8003266:	e8bd 8ff0 	ldmia.w	sp!, {r4, r5, r6, r7, r8, r9, sl, fp, pc}
 800326a:	9b20      	ldr	r3, [sp, #128]	@ 0x80
 800326c:	2b01      	cmp	r3, #1
 800326e:	f77f ae3d 	ble.w	8002eec <_dtoa_r+0x7c4>
 8003272:	9b0e      	ldr	r3, [sp, #56]	@ 0x38
 8003274:	930a      	str	r3, [sp, #40]	@ 0x28
 8003276:	2001      	movs	r0, #1
 8003278:	e65b      	b.n	8002f32 <_dtoa_r+0x80a>
 800327a:	9b08      	ldr	r3, [sp, #32]
 800327c:	2b00      	cmp	r3, #0
 800327e:	f77f aed6 	ble.w	800302e <_dtoa_r+0x906>
 8003282:	4656      	mov	r6, sl
 8003284:	4621      	mov	r1, r4
 8003286:	4648      	mov	r0, r9
 8003288:	f7ff f9c5 	bl	8002616 <quorem>
 800328c:	f100 0830 	add.w	r8, r0, #48	@ 0x30
 8003290:	9b08      	ldr	r3, [sp, #32]
 8003292:	f806 8b01 	strb.w	r8, [r6], #1
 8003296:	eba6 020a 	sub.w	r2, r6, sl
 800329a:	4293      	cmp	r3, r2
 800329c:	ddb3      	ble.n	8003206 <_dtoa_r+0xade>
 800329e:	4649      	mov	r1, r9
 80032a0:	2300      	movs	r3, #0
 80032a2:	220a      	movs	r2, #10
 80032a4:	4658      	mov	r0, fp
 80032a6:	f000 f967 	bl	8003578 <__multadd>
 80032aa:	4681      	mov	r9, r0
 80032ac:	e7ea      	b.n	8003284 <_dtoa_r+0xb5c>
 80032ae:	bf00      	nop
 80032b0:	08004418 	.word	0x08004418
 80032b4:	0800439c 	.word	0x0800439c

080032b8 <_free_r>:
 80032b8:	b538      	push	{r3, r4, r5, lr}
 80032ba:	4605      	mov	r5, r0
 80032bc:	2900      	cmp	r1, #0
 80032be:	d040      	beq.n	8003342 <_free_r+0x8a>
 80032c0:	f851 3c04 	ldr.w	r3, [r1, #-4]
 80032c4:	1f0c      	subs	r4, r1, #4
 80032c6:	2b00      	cmp	r3, #0
 80032c8:	bfb8      	it	lt
 80032ca:	18e4      	addlt	r4, r4, r3
 80032cc:	f000 f8e6 	bl	800349c <__malloc_lock>
 80032d0:	4a1c      	ldr	r2, [pc, #112]	@ (8003344 <_free_r+0x8c>)
 80032d2:	6813      	ldr	r3, [r2, #0]
 80032d4:	b933      	cbnz	r3, 80032e4 <_free_r+0x2c>
 80032d6:	6063      	str	r3, [r4, #4]
 80032d8:	6014      	str	r4, [r2, #0]
 80032da:	4628      	mov	r0, r5
 80032dc:	e8bd 4038 	ldmia.w	sp!, {r3, r4, r5, lr}
 80032e0:	f000 b8e2 	b.w	80034a8 <__malloc_unlock>
 80032e4:	42a3      	cmp	r3, r4
 80032e6:	d908      	bls.n	80032fa <_free_r+0x42>
 80032e8:	6820      	ldr	r0, [r4, #0]
 80032ea:	1821      	adds	r1, r4, r0
 80032ec:	428b      	cmp	r3, r1
 80032ee:	bf01      	itttt	eq
 80032f0:	6819      	ldreq	r1, [r3, #0]
 80032f2:	685b      	ldreq	r3, [r3, #4]
 80032f4:	1809      	addeq	r1, r1, r0
 80032f6:	6021      	streq	r1, [r4, #0]
 80032f8:	e7ed      	b.n	80032d6 <_free_r+0x1e>
 80032fa:	461a      	mov	r2, r3
 80032fc:	685b      	ldr	r3, [r3, #4]
 80032fe:	b10b      	cbz	r3, 8003304 <_free_r+0x4c>
 8003300:	42a3      	cmp	r3, r4
 8003302:	d9fa      	bls.n	80032fa <_free_r+0x42>
 8003304:	6811      	ldr	r1, [r2, #0]
 8003306:	1850      	adds	r0, r2, r1
 8003308:	42a0      	cmp	r0, r4
 800330a:	d10b      	bne.n	8003324 <_free_r+0x6c>
 800330c:	6820      	ldr	r0, [r4, #0]
 800330e:	4401      	add	r1, r0
 8003310:	1850      	adds	r0, r2, r1
 8003312:	4283      	cmp	r3, r0
 8003314:	6011      	str	r1, [r2, #0]
 8003316:	d1e0      	bne.n	80032da <_free_r+0x22>
 8003318:	6818      	ldr	r0, [r3, #0]
 800331a:	685b      	ldr	r3, [r3, #4]
 800331c:	4408      	add	r0, r1
 800331e:	6010      	str	r0, [r2, #0]
 8003320:	6053      	str	r3, [r2, #4]
 8003322:	e7da      	b.n	80032da <_free_r+0x22>
 8003324:	d902      	bls.n	800332c <_free_r+0x74>
 8003326:	230c      	movs	r3, #12
 8003328:	602b      	str	r3, [r5, #0]
 800332a:	e7d6      	b.n	80032da <_free_r+0x22>
 800332c:	6820      	ldr	r0, [r4, #0]
 800332e:	1821      	adds	r1, r4, r0
 8003330:	428b      	cmp	r3, r1
 8003332:	bf01      	itttt	eq
 8003334:	6819      	ldreq	r1, [r3, #0]
 8003336:	685b      	ldreq	r3, [r3, #4]
 8003338:	1809      	addeq	r1, r1, r0
 800333a:	6021      	streq	r1, [r4, #0]
 800333c:	6063      	str	r3, [r4, #4]
 800333e:	6054      	str	r4, [r2, #4]
 8003340:	e7cb      	b.n	80032da <_free_r+0x22>
 8003342:	bd38      	pop	{r3, r4, r5, pc}
 8003344:	2000035c 	.word	0x2000035c

08003348 <malloc>:
 8003348:	4b02      	ldr	r3, [pc, #8]	@ (8003354 <malloc+0xc>)
 800334a:	4601      	mov	r1, r0
 800334c:	6818      	ldr	r0, [r3, #0]
 800334e:	f000 b825 	b.w	800339c <_malloc_r>
 8003352:	bf00      	nop
 8003354:	2000001c 	.word	0x2000001c

08003358 <sbrk_aligned>:
 8003358:	b570      	push	{r4, r5, r6, lr}
 800335a:	4e0f      	ldr	r6, [pc, #60]	@ (8003398 <sbrk_aligned+0x40>)
 800335c:	460c      	mov	r4, r1
 800335e:	6831      	ldr	r1, [r6, #0]
 8003360:	4605      	mov	r5, r0
 8003362:	b911      	cbnz	r1, 800336a <sbrk_aligned+0x12>
 8003364:	f000 fcce 	bl	8003d04 <_sbrk_r>
 8003368:	6030      	str	r0, [r6, #0]
 800336a:	4621      	mov	r1, r4
 800336c:	4628      	mov	r0, r5
 800336e:	f000 fcc9 	bl	8003d04 <_sbrk_r>
 8003372:	1c43      	adds	r3, r0, #1
 8003374:	d103      	bne.n	800337e <sbrk_aligned+0x26>
 8003376:	f04f 34ff 	mov.w	r4, #4294967295
 800337a:	4620      	mov	r0, r4
 800337c:	bd70      	pop	{r4, r5, r6, pc}
 800337e:	1cc4      	adds	r4, r0, #3
 8003380:	f024 0403 	bic.w	r4, r4, #3
 8003384:	42a0      	cmp	r0, r4
 8003386:	d0f8      	beq.n	800337a <sbrk_aligned+0x22>
 8003388:	1a21      	subs	r1, r4, r0
 800338a:	4628      	mov	r0, r5
 800338c:	f000 fcba 	bl	8003d04 <_sbrk_r>
 8003390:	3001      	adds	r0, #1
 8003392:	d1f2      	bne.n	800337a <sbrk_aligned+0x22>
 8003394:	e7ef      	b.n	8003376 <sbrk_aligned+0x1e>
 8003396:	bf00      	nop
 8003398:	20000358 	.word	0x20000358

0800339c <_malloc_r>:
 800339c:	e92d 43f8 	stmdb	sp!, {r3, r4, r5, r6, r7, r8, r9, lr}
 80033a0:	1ccd      	adds	r5, r1, #3
 80033a2:	f025 0503 	bic.w	r5, r5, #3
 80033a6:	3508      	adds	r5, #8
 80033a8:	2d0c      	cmp	r5, #12
 80033aa:	bf38      	it	cc
 80033ac:	250c      	movcc	r5, #12
 80033ae:	2d00      	cmp	r5, #0
 80033b0:	4606      	mov	r6, r0
 80033b2:	db01      	blt.n	80033b8 <_malloc_r+0x1c>
 80033b4:	42a9      	cmp	r1, r5
 80033b6:	d904      	bls.n	80033c2 <_malloc_r+0x26>
 80033b8:	230c      	movs	r3, #12
 80033ba:	6033      	str	r3, [r6, #0]
 80033bc:	2000      	movs	r0, #0
 80033be:	e8bd 83f8 	ldmia.w	sp!, {r3, r4, r5, r6, r7, r8, r9, pc}
 80033c2:	f8df 80d4 	ldr.w	r8, [pc, #212]	@ 8003498 <_malloc_r+0xfc>
 80033c6:	f000 f869 	bl	800349c <__malloc_lock>
 80033ca:	f8d8 3000 	ldr.w	r3, [r8]
 80033ce:	461c      	mov	r4, r3
 80033d0:	bb44      	cbnz	r4, 8003424 <_malloc_r+0x88>
 80033d2:	4629      	mov	r1, r5
 80033d4:	4630      	mov	r0, r6
 80033d6:	f7ff ffbf 	bl	8003358 <sbrk_aligned>
 80033da:	1c43      	adds	r3, r0, #1
 80033dc:	4604      	mov	r4, r0
 80033de:	d158      	bne.n	8003492 <_malloc_r+0xf6>
 80033e0:	f8d8 4000 	ldr.w	r4, [r8]
 80033e4:	4627      	mov	r7, r4
 80033e6:	2f00      	cmp	r7, #0
 80033e8:	d143      	bne.n	8003472 <_malloc_r+0xd6>
 80033ea:	2c00      	cmp	r4, #0
 80033ec:	d04b      	beq.n	8003486 <_malloc_r+0xea>
 80033ee:	6823      	ldr	r3, [r4, #0]
 80033f0:	4639      	mov	r1, r7
 80033f2:	4630      	mov	r0, r6
 80033f4:	eb04 0903 	add.w	r9, r4, r3
 80033f8:	f000 fc84 	bl	8003d04 <_sbrk_r>
 80033fc:	4581      	cmp	r9, r0
 80033fe:	d142      	bne.n	8003486 <_malloc_r+0xea>
 8003400:	6821      	ldr	r1, [r4, #0]
 8003402:	4630      	mov	r0, r6
 8003404:	1a6d      	subs	r5, r5, r1
 8003406:	4629      	mov	r1, r5
 8003408:	f7ff ffa6 	bl	8003358 <sbrk_aligned>
 800340c:	3001      	adds	r0, #1
 800340e:	d03a      	beq.n	8003486 <_malloc_r+0xea>
 8003410:	6823      	ldr	r3, [r4, #0]
 8003412:	442b      	add	r3, r5
 8003414:	6023      	str	r3, [r4, #0]
 8003416:	f8d8 3000 	ldr.w	r3, [r8]
 800341a:	685a      	ldr	r2, [r3, #4]
 800341c:	bb62      	cbnz	r2, 8003478 <_malloc_r+0xdc>
 800341e:	f8c8 7000 	str.w	r7, [r8]
 8003422:	e00f      	b.n	8003444 <_malloc_r+0xa8>
 8003424:	6822      	ldr	r2, [r4, #0]
 8003426:	1b52      	subs	r2, r2, r5
 8003428:	d420      	bmi.n	800346c <_malloc_r+0xd0>
 800342a:	2a0b      	cmp	r2, #11
 800342c:	d917      	bls.n	800345e <_malloc_r+0xc2>
 800342e:	1961      	adds	r1, r4, r5
 8003430:	42a3      	cmp	r3, r4
 8003432:	6025      	str	r5, [r4, #0]
 8003434:	bf18      	it	ne
 8003436:	6059      	strne	r1, [r3, #4]
 8003438:	6863      	ldr	r3, [r4, #4]
 800343a:	bf08      	it	eq
 800343c:	f8c8 1000 	streq.w	r1, [r8]
 8003440:	5162      	str	r2, [r4, r5]
 8003442:	604b      	str	r3, [r1, #4]
 8003444:	4630      	mov	r0, r6
 8003446:	f000 f82f 	bl	80034a8 <__malloc_unlock>
 800344a:	f104 000b 	add.w	r0, r4, #11
 800344e:	1d23      	adds	r3, r4, #4
 8003450:	f020 0007 	bic.w	r0, r0, #7
 8003454:	1ac2      	subs	r2, r0, r3
 8003456:	bf1c      	itt	ne
 8003458:	1a1b      	subne	r3, r3, r0
 800345a:	50a3      	strne	r3, [r4, r2]
 800345c:	e7af      	b.n	80033be <_malloc_r+0x22>
 800345e:	6862      	ldr	r2, [r4, #4]
 8003460:	42a3      	cmp	r3, r4
 8003462:	bf0c      	ite	eq
 8003464:	f8c8 2000 	streq.w	r2, [r8]
 8003468:	605a      	strne	r2, [r3, #4]
 800346a:	e7eb      	b.n	8003444 <_malloc_r+0xa8>
 800346c:	4623      	mov	r3, r4
 800346e:	6864      	ldr	r4, [r4, #4]
 8003470:	e7ae      	b.n	80033d0 <_malloc_r+0x34>
 8003472:	463c      	mov	r4, r7
 8003474:	687f      	ldr	r7, [r7, #4]
 8003476:	e7b6      	b.n	80033e6 <_malloc_r+0x4a>
 8003478:	461a      	mov	r2, r3
 800347a:	685b      	ldr	r3, [r3, #4]
 800347c:	42a3      	cmp	r3, r4
 800347e:	d1fb      	bne.n	8003478 <_malloc_r+0xdc>
 8003480:	2300      	movs	r3, #0
 8003482:	6053      	str	r3, [r2, #4]
 8003484:	e7de      	b.n	8003444 <_malloc_r+0xa8>
 8003486:	230c      	movs	r3, #12
 8003488:	4630      	mov	r0, r6
 800348a:	6033      	str	r3, [r6, #0]
 800348c:	f000 f80c 	bl	80034a8 <__malloc_unlock>
 8003490:	e794      	b.n	80033bc <_malloc_r+0x20>
 8003492:	6005      	str	r5, [r0, #0]
 8003494:	e7d6      	b.n	8003444 <_malloc_r+0xa8>
 8003496:	bf00      	nop
 8003498:	2000035c 	.word	0x2000035c

0800349c <__malloc_lock>:
 800349c:	4801      	ldr	r0, [pc, #4]	@ (80034a4 <__malloc_lock+0x8>)
 800349e:	f7ff b8aa 	b.w	80025f6 <__retarget_lock_acquire_recursive>
 80034a2:	bf00      	nop
 80034a4:	20000354 	.word	0x20000354

080034a8 <__malloc_unlock>:
 80034a8:	4801      	ldr	r0, [pc, #4]	@ (80034b0 <__malloc_unlock+0x8>)
 80034aa:	f7ff b8a5 	b.w	80025f8 <__retarget_lock_release_recursive>
 80034ae:	bf00      	nop
 80034b0:	20000354 	.word	0x20000354

080034b4 <_Balloc>:
 80034b4:	b570      	push	{r4, r5, r6, lr}
 80034b6:	69c6      	ldr	r6, [r0, #28]
 80034b8:	4604      	mov	r4, r0
 80034ba:	460d      	mov	r5, r1
 80034bc:	b976      	cbnz	r6, 80034dc <_Balloc+0x28>
 80034be:	2010      	movs	r0, #16
 80034c0:	f7ff ff42 	bl	8003348 <malloc>
 80034c4:	4602      	mov	r2, r0
 80034c6:	61e0      	str	r0, [r4, #28]
 80034c8:	b920      	cbnz	r0, 80034d4 <_Balloc+0x20>
 80034ca:	216b      	movs	r1, #107	@ 0x6b
 80034cc:	4b17      	ldr	r3, [pc, #92]	@ (800352c <_Balloc+0x78>)
 80034ce:	4818      	ldr	r0, [pc, #96]	@ (8003530 <_Balloc+0x7c>)
 80034d0:	f000 fc36 	bl	8003d40 <__assert_func>
 80034d4:	e9c0 6601 	strd	r6, r6, [r0, #4]
 80034d8:	6006      	str	r6, [r0, #0]
 80034da:	60c6      	str	r6, [r0, #12]
 80034dc:	69e6      	ldr	r6, [r4, #28]
 80034de:	68f3      	ldr	r3, [r6, #12]
 80034e0:	b183      	cbz	r3, 8003504 <_Balloc+0x50>
 80034e2:	69e3      	ldr	r3, [r4, #28]
 80034e4:	68db      	ldr	r3, [r3, #12]
 80034e6:	f853 0025 	ldr.w	r0, [r3, r5, lsl #2]
 80034ea:	b9b8      	cbnz	r0, 800351c <_Balloc+0x68>
 80034ec:	2101      	movs	r1, #1
 80034ee:	fa01 f605 	lsl.w	r6, r1, r5
 80034f2:	1d72      	adds	r2, r6, #5
 80034f4:	4620      	mov	r0, r4
 80034f6:	0092      	lsls	r2, r2, #2
 80034f8:	f000 fc40 	bl	8003d7c <_calloc_r>
 80034fc:	b160      	cbz	r0, 8003518 <_Balloc+0x64>
 80034fe:	e9c0 5601 	strd	r5, r6, [r0, #4]
 8003502:	e00e      	b.n	8003522 <_Balloc+0x6e>
 8003504:	2221      	movs	r2, #33	@ 0x21
 8003506:	2104      	movs	r1, #4
 8003508:	4620      	mov	r0, r4
 800350a:	f000 fc37 	bl	8003d7c <_calloc_r>
 800350e:	69e3      	ldr	r3, [r4, #28]
 8003510:	60f0      	str	r0, [r6, #12]
 8003512:	68db      	ldr	r3, [r3, #12]
 8003514:	2b00      	cmp	r3, #0
 8003516:	d1e4      	bne.n	80034e2 <_Balloc+0x2e>
 8003518:	2000      	movs	r0, #0
 800351a:	bd70      	pop	{r4, r5, r6, pc}
 800351c:	6802      	ldr	r2, [r0, #0]
 800351e:	f843 2025 	str.w	r2, [r3, r5, lsl #2]
 8003522:	2300      	movs	r3, #0
 8003524:	e9c0 3303 	strd	r3, r3, [r0, #12]
 8003528:	e7f7      	b.n	800351a <_Balloc+0x66>
 800352a:	bf00      	nop
 800352c:	080043a9 	.word	0x080043a9
 8003530:	08004429 	.word	0x08004429

08003534 <_Bfree>:
 8003534:	b570      	push	{r4, r5, r6, lr}
 8003536:	69c6      	ldr	r6, [r0, #28]
 8003538:	4605      	mov	r5, r0
 800353a:	460c      	mov	r4, r1
 800353c:	b976      	cbnz	r6, 800355c <_Bfree+0x28>
 800353e:	2010      	movs	r0, #16
 8003540:	f7ff ff02 	bl	8003348 <malloc>
 8003544:	4602      	mov	r2, r0
 8003546:	61e8      	str	r0, [r5, #28]
 8003548:	b920      	cbnz	r0, 8003554 <_Bfree+0x20>
 800354a:	218f      	movs	r1, #143	@ 0x8f
 800354c:	4b08      	ldr	r3, [pc, #32]	@ (8003570 <_Bfree+0x3c>)
 800354e:	4809      	ldr	r0, [pc, #36]	@ (8003574 <_Bfree+0x40>)
 8003550:	f000 fbf6 	bl	8003d40 <__assert_func>
 8003554:	e9c0 6601 	strd	r6, r6, [r0, #4]
 8003558:	6006      	str	r6, [r0, #0]
 800355a:	60c6      	str	r6, [r0, #12]
 800355c:	b13c      	cbz	r4, 800356e <_Bfree+0x3a>
 800355e:	69eb      	ldr	r3, [r5, #28]
 8003560:	6862      	ldr	r2, [r4, #4]
 8003562:	68db      	ldr	r3, [r3, #12]
 8003564:	f853 1022 	ldr.w	r1, [r3, r2, lsl #2]
 8003568:	6021      	str	r1, [r4, #0]
 800356a:	f843 4022 	str.w	r4, [r3, r2, lsl #2]
 800356e:	bd70      	pop	{r4, r5, r6, pc}
 8003570:	080043a9 	.word	0x080043a9
 8003574:	08004429 	.word	0x08004429

08003578 <__multadd>:
 8003578:	e92d 41f0 	stmdb	sp!, {r4, r5, r6, r7, r8, lr}
 800357c:	4607      	mov	r7, r0
 800357e:	460c      	mov	r4, r1
 8003580:	461e      	mov	r6, r3
 8003582:	2000      	movs	r0, #0
 8003584:	690d      	ldr	r5, [r1, #16]
 8003586:	f101 0c14 	add.w	ip, r1, #20
 800358a:	f8dc 3000 	ldr.w	r3, [ip]
 800358e:	3001      	adds	r0, #1
 8003590:	b299      	uxth	r1, r3
 8003592:	fb02 6101 	mla	r1, r2, r1, r6
 8003596:	0c1e      	lsrs	r6, r3, #16
 8003598:	0c0b      	lsrs	r3, r1, #16
 800359a:	fb02 3306 	mla	r3, r2, r6, r3
 800359e:	b289      	uxth	r1, r1
 80035a0:	eb01 4103 	add.w	r1, r1, r3, lsl #16
 80035a4:	4285      	cmp	r5, r0
 80035a6:	ea4f 4613 	mov.w	r6, r3, lsr #16
 80035aa:	f84c 1b04 	str.w	r1, [ip], #4
 80035ae:	dcec      	bgt.n	800358a <__multadd+0x12>
 80035b0:	b30e      	cbz	r6, 80035f6 <__multadd+0x7e>
 80035b2:	68a3      	ldr	r3, [r4, #8]
 80035b4:	42ab      	cmp	r3, r5
 80035b6:	dc19      	bgt.n	80035ec <__multadd+0x74>
 80035b8:	6861      	ldr	r1, [r4, #4]
 80035ba:	4638      	mov	r0, r7
 80035bc:	3101      	adds	r1, #1
 80035be:	f7ff ff79 	bl	80034b4 <_Balloc>
 80035c2:	4680      	mov	r8, r0
 80035c4:	b928      	cbnz	r0, 80035d2 <__multadd+0x5a>
 80035c6:	4602      	mov	r2, r0
 80035c8:	21ba      	movs	r1, #186	@ 0xba
 80035ca:	4b0c      	ldr	r3, [pc, #48]	@ (80035fc <__multadd+0x84>)
 80035cc:	480c      	ldr	r0, [pc, #48]	@ (8003600 <__multadd+0x88>)
 80035ce:	f000 fbb7 	bl	8003d40 <__assert_func>
 80035d2:	6922      	ldr	r2, [r4, #16]
 80035d4:	f104 010c 	add.w	r1, r4, #12
 80035d8:	3202      	adds	r2, #2
 80035da:	0092      	lsls	r2, r2, #2
 80035dc:	300c      	adds	r0, #12
 80035de:	f000 fba1 	bl	8003d24 <memcpy>
 80035e2:	4621      	mov	r1, r4
 80035e4:	4638      	mov	r0, r7
 80035e6:	f7ff ffa5 	bl	8003534 <_Bfree>
 80035ea:	4644      	mov	r4, r8
 80035ec:	eb04 0385 	add.w	r3, r4, r5, lsl #2
 80035f0:	3501      	adds	r5, #1
 80035f2:	615e      	str	r6, [r3, #20]
 80035f4:	6125      	str	r5, [r4, #16]
 80035f6:	4620      	mov	r0, r4
 80035f8:	e8bd 81f0 	ldmia.w	sp!, {r4, r5, r6, r7, r8, pc}
 80035fc:	08004418 	.word	0x08004418
 8003600:	08004429 	.word	0x08004429

08003604 <__hi0bits>:
 8003604:	4603      	mov	r3, r0
 8003606:	f5b0 3f80 	cmp.w	r0, #65536	@ 0x10000
 800360a:	bf3a      	itte	cc
 800360c:	0403      	lslcc	r3, r0, #16
 800360e:	2010      	movcc	r0, #16
 8003610:	2000      	movcs	r0, #0
 8003612:	f1b3 7f80 	cmp.w	r3, #16777216	@ 0x1000000
 8003616:	bf3c      	itt	cc
 8003618:	021b      	lslcc	r3, r3, #8
 800361a:	3008      	addcc	r0, #8
 800361c:	f1b3 5f80 	cmp.w	r3, #268435456	@ 0x10000000
 8003620:	bf3c      	itt	cc
 8003622:	011b      	lslcc	r3, r3, #4
 8003624:	3004      	addcc	r0, #4
 8003626:	f1b3 4f80 	cmp.w	r3, #1073741824	@ 0x40000000
 800362a:	bf3c      	itt	cc
 800362c:	009b      	lslcc	r3, r3, #2
 800362e:	3002      	addcc	r0, #2
 8003630:	2b00      	cmp	r3, #0
 8003632:	db05      	blt.n	8003640 <__hi0bits+0x3c>
 8003634:	f013 4f80 	tst.w	r3, #1073741824	@ 0x40000000
 8003638:	f100 0001 	add.w	r0, r0, #1
 800363c:	bf08      	it	eq
 800363e:	2020      	moveq	r0, #32
 8003640:	4770      	bx	lr

08003642 <__lo0bits>:
 8003642:	6803      	ldr	r3, [r0, #0]
 8003644:	4602      	mov	r2, r0
 8003646:	f013 0007 	ands.w	r0, r3, #7
 800364a:	d00b      	beq.n	8003664 <__lo0bits+0x22>
 800364c:	07d9      	lsls	r1, r3, #31
 800364e:	d421      	bmi.n	8003694 <__lo0bits+0x52>
 8003650:	0798      	lsls	r0, r3, #30
 8003652:	bf49      	itett	mi
 8003654:	085b      	lsrmi	r3, r3, #1
 8003656:	089b      	lsrpl	r3, r3, #2
 8003658:	2001      	movmi	r0, #1
 800365a:	6013      	strmi	r3, [r2, #0]
 800365c:	bf5c      	itt	pl
 800365e:	2002      	movpl	r0, #2
 8003660:	6013      	strpl	r3, [r2, #0]
 8003662:	4770      	bx	lr
 8003664:	b299      	uxth	r1, r3
 8003666:	b909      	cbnz	r1, 800366c <__lo0bits+0x2a>
 8003668:	2010      	movs	r0, #16
 800366a:	0c1b      	lsrs	r3, r3, #16
 800366c:	b2d9      	uxtb	r1, r3
 800366e:	b909      	cbnz	r1, 8003674 <__lo0bits+0x32>
 8003670:	3008      	adds	r0, #8
 8003672:	0a1b      	lsrs	r3, r3, #8
 8003674:	0719      	lsls	r1, r3, #28
 8003676:	bf04      	itt	eq
 8003678:	091b      	lsreq	r3, r3, #4
 800367a:	3004      	addeq	r0, #4
 800367c:	0799      	lsls	r1, r3, #30
 800367e:	bf04      	itt	eq
 8003680:	089b      	lsreq	r3, r3, #2
 8003682:	3002      	addeq	r0, #2
 8003684:	07d9      	lsls	r1, r3, #31
 8003686:	d403      	bmi.n	8003690 <__lo0bits+0x4e>
 8003688:	085b      	lsrs	r3, r3, #1
 800368a:	f100 0001 	add.w	r0, r0, #1
 800368e:	d003      	beq.n	8003698 <__lo0bits+0x56>
 8003690:	6013      	str	r3, [r2, #0]
 8003692:	4770      	bx	lr
 8003694:	2000      	movs	r0, #0
 8003696:	4770      	bx	lr
 8003698:	2020      	movs	r0, #32
 800369a:	4770      	bx	lr

0800369c <__i2b>:
 800369c:	b510      	push	{r4, lr}
 800369e:	460c      	mov	r4, r1
 80036a0:	2101      	movs	r1, #1
 80036a2:	f7ff ff07 	bl	80034b4 <_Balloc>
 80036a6:	4602      	mov	r2, r0
 80036a8:	b928      	cbnz	r0, 80036b6 <__i2b+0x1a>
 80036aa:	f240 1145 	movw	r1, #325	@ 0x145
 80036ae:	4b04      	ldr	r3, [pc, #16]	@ (80036c0 <__i2b+0x24>)
 80036b0:	4804      	ldr	r0, [pc, #16]	@ (80036c4 <__i2b+0x28>)
 80036b2:	f000 fb45 	bl	8003d40 <__assert_func>
 80036b6:	2301      	movs	r3, #1
 80036b8:	6144      	str	r4, [r0, #20]
 80036ba:	6103      	str	r3, [r0, #16]
 80036bc:	bd10      	pop	{r4, pc}
 80036be:	bf00      	nop
 80036c0:	08004418 	.word	0x08004418
 80036c4:	08004429 	.word	0x08004429

080036c8 <__multiply>:
 80036c8:	e92d 4ff0 	stmdb	sp!, {r4, r5, r6, r7, r8, r9, sl, fp, lr}
 80036cc:	4614      	mov	r4, r2
 80036ce:	690a      	ldr	r2, [r1, #16]
 80036d0:	6923      	ldr	r3, [r4, #16]
 80036d2:	460f      	mov	r7, r1
 80036d4:	429a      	cmp	r2, r3
 80036d6:	bfa2      	ittt	ge
 80036d8:	4623      	movge	r3, r4
 80036da:	460c      	movge	r4, r1
 80036dc:	461f      	movge	r7, r3
 80036de:	f8d4 a010 	ldr.w	sl, [r4, #16]
 80036e2:	f8d7 9010 	ldr.w	r9, [r7, #16]
 80036e6:	68a3      	ldr	r3, [r4, #8]
 80036e8:	6861      	ldr	r1, [r4, #4]
 80036ea:	eb0a 0609 	add.w	r6, sl, r9
 80036ee:	42b3      	cmp	r3, r6
 80036f0:	b085      	sub	sp, #20
 80036f2:	bfb8      	it	lt
 80036f4:	3101      	addlt	r1, #1
 80036f6:	f7ff fedd 	bl	80034b4 <_Balloc>
 80036fa:	b930      	cbnz	r0, 800370a <__multiply+0x42>
 80036fc:	4602      	mov	r2, r0
 80036fe:	f44f 71b1 	mov.w	r1, #354	@ 0x162
 8003702:	4b43      	ldr	r3, [pc, #268]	@ (8003810 <__multiply+0x148>)
 8003704:	4843      	ldr	r0, [pc, #268]	@ (8003814 <__multiply+0x14c>)
 8003706:	f000 fb1b 	bl	8003d40 <__assert_func>
 800370a:	f100 0514 	add.w	r5, r0, #20
 800370e:	462b      	mov	r3, r5
 8003710:	2200      	movs	r2, #0
 8003712:	eb05 0886 	add.w	r8, r5, r6, lsl #2
 8003716:	4543      	cmp	r3, r8
 8003718:	d321      	bcc.n	800375e <__multiply+0x96>
 800371a:	f107 0114 	add.w	r1, r7, #20
 800371e:	f104 0214 	add.w	r2, r4, #20
 8003722:	eb02 028a 	add.w	r2, r2, sl, lsl #2
 8003726:	eb01 0389 	add.w	r3, r1, r9, lsl #2
 800372a:	9302      	str	r3, [sp, #8]
 800372c:	1b13      	subs	r3, r2, r4
 800372e:	3b15      	subs	r3, #21
 8003730:	f023 0303 	bic.w	r3, r3, #3
 8003734:	3304      	adds	r3, #4
 8003736:	f104 0715 	add.w	r7, r4, #21
 800373a:	42ba      	cmp	r2, r7
 800373c:	bf38      	it	cc
 800373e:	2304      	movcc	r3, #4
 8003740:	9301      	str	r3, [sp, #4]
 8003742:	9b02      	ldr	r3, [sp, #8]
 8003744:	9103      	str	r1, [sp, #12]
 8003746:	428b      	cmp	r3, r1
 8003748:	d80c      	bhi.n	8003764 <__multiply+0x9c>
 800374a:	2e00      	cmp	r6, #0
 800374c:	dd03      	ble.n	8003756 <__multiply+0x8e>
 800374e:	f858 3d04 	ldr.w	r3, [r8, #-4]!
 8003752:	2b00      	cmp	r3, #0
 8003754:	d05a      	beq.n	800380c <__multiply+0x144>
 8003756:	6106      	str	r6, [r0, #16]
 8003758:	b005      	add	sp, #20
 800375a:	e8bd 8ff0 	ldmia.w	sp!, {r4, r5, r6, r7, r8, r9, sl, fp, pc}
 800375e:	f843 2b04 	str.w	r2, [r3], #4
 8003762:	e7d8      	b.n	8003716 <__multiply+0x4e>
 8003764:	f8b1 a000 	ldrh.w	sl, [r1]
 8003768:	f1ba 0f00 	cmp.w	sl, #0
 800376c:	d023      	beq.n	80037b6 <__multiply+0xee>
 800376e:	46a9      	mov	r9, r5
 8003770:	f04f 0c00 	mov.w	ip, #0
 8003774:	f104 0e14 	add.w	lr, r4, #20
 8003778:	f85e 7b04 	ldr.w	r7, [lr], #4
 800377c:	f8d9 3000 	ldr.w	r3, [r9]
 8003780:	fa1f fb87 	uxth.w	fp, r7
 8003784:	b29b      	uxth	r3, r3
 8003786:	fb0a 330b 	mla	r3, sl, fp, r3
 800378a:	4463      	add	r3, ip
 800378c:	f8d9 c000 	ldr.w	ip, [r9]
 8003790:	0c3f      	lsrs	r7, r7, #16
 8003792:	ea4f 4c1c 	mov.w	ip, ip, lsr #16
 8003796:	fb0a c707 	mla	r7, sl, r7, ip
 800379a:	eb07 4713 	add.w	r7, r7, r3, lsr #16
 800379e:	b29b      	uxth	r3, r3
 80037a0:	ea43 4307 	orr.w	r3, r3, r7, lsl #16
 80037a4:	4572      	cmp	r2, lr
 80037a6:	ea4f 4c17 	mov.w	ip, r7, lsr #16
 80037aa:	f849 3b04 	str.w	r3, [r9], #4
 80037ae:	d8e3      	bhi.n	8003778 <__multiply+0xb0>
 80037b0:	9b01      	ldr	r3, [sp, #4]
 80037b2:	f845 c003 	str.w	ip, [r5, r3]
 80037b6:	9b03      	ldr	r3, [sp, #12]
 80037b8:	3104      	adds	r1, #4
 80037ba:	f8b3 9002 	ldrh.w	r9, [r3, #2]
 80037be:	f1b9 0f00 	cmp.w	r9, #0
 80037c2:	d021      	beq.n	8003808 <__multiply+0x140>
 80037c4:	46ae      	mov	lr, r5
 80037c6:	f04f 0a00 	mov.w	sl, #0
 80037ca:	682b      	ldr	r3, [r5, #0]
 80037cc:	f104 0c14 	add.w	ip, r4, #20
 80037d0:	f8bc b000 	ldrh.w	fp, [ip]
 80037d4:	f8be 7002 	ldrh.w	r7, [lr, #2]
 80037d8:	b29b      	uxth	r3, r3
 80037da:	fb09 770b 	mla	r7, r9, fp, r7
 80037de:	4457      	add	r7, sl
 80037e0:	ea43 4307 	orr.w	r3, r3, r7, lsl #16
 80037e4:	f84e 3b04 	str.w	r3, [lr], #4
 80037e8:	f85c 3b04 	ldr.w	r3, [ip], #4
 80037ec:	ea4f 4a13 	mov.w	sl, r3, lsr #16
 80037f0:	f8be 3000 	ldrh.w	r3, [lr]
 80037f4:	4562      	cmp	r2, ip
 80037f6:	fb09 330a 	mla	r3, r9, sl, r3
 80037fa:	eb03 4317 	add.w	r3, r3, r7, lsr #16
 80037fe:	ea4f 4a13 	mov.w	sl, r3, lsr #16
 8003802:	d8e5      	bhi.n	80037d0 <__multiply+0x108>
 8003804:	9f01      	ldr	r7, [sp, #4]
 8003806:	51eb      	str	r3, [r5, r7]
 8003808:	3504      	adds	r5, #4
 800380a:	e79a      	b.n	8003742 <__multiply+0x7a>
 800380c:	3e01      	subs	r6, #1
 800380e:	e79c      	b.n	800374a <__multiply+0x82>
 8003810:	08004418 	.word	0x08004418
 8003814:	08004429 	.word	0x08004429

08003818 <__pow5mult>:
 8003818:	e92d 43f8 	stmdb	sp!, {r3, r4, r5, r6, r7, r8, r9, lr}
 800381c:	4615      	mov	r5, r2
 800381e:	f012 0203 	ands.w	r2, r2, #3
 8003822:	4607      	mov	r7, r0
 8003824:	460e      	mov	r6, r1
 8003826:	d007      	beq.n	8003838 <__pow5mult+0x20>
 8003828:	4c25      	ldr	r4, [pc, #148]	@ (80038c0 <__pow5mult+0xa8>)
 800382a:	3a01      	subs	r2, #1
 800382c:	2300      	movs	r3, #0
 800382e:	f854 2022 	ldr.w	r2, [r4, r2, lsl #2]
 8003832:	f7ff fea1 	bl	8003578 <__multadd>
 8003836:	4606      	mov	r6, r0
 8003838:	10ad      	asrs	r5, r5, #2
 800383a:	d03d      	beq.n	80038b8 <__pow5mult+0xa0>
 800383c:	69fc      	ldr	r4, [r7, #28]
 800383e:	b97c      	cbnz	r4, 8003860 <__pow5mult+0x48>
 8003840:	2010      	movs	r0, #16
 8003842:	f7ff fd81 	bl	8003348 <malloc>
 8003846:	4602      	mov	r2, r0
 8003848:	61f8      	str	r0, [r7, #28]
 800384a:	b928      	cbnz	r0, 8003858 <__pow5mult+0x40>
 800384c:	f240 11b3 	movw	r1, #435	@ 0x1b3
 8003850:	4b1c      	ldr	r3, [pc, #112]	@ (80038c4 <__pow5mult+0xac>)
 8003852:	481d      	ldr	r0, [pc, #116]	@ (80038c8 <__pow5mult+0xb0>)
 8003854:	f000 fa74 	bl	8003d40 <__assert_func>
 8003858:	e9c0 4401 	strd	r4, r4, [r0, #4]
 800385c:	6004      	str	r4, [r0, #0]
 800385e:	60c4      	str	r4, [r0, #12]
 8003860:	f8d7 801c 	ldr.w	r8, [r7, #28]
 8003864:	f8d8 4008 	ldr.w	r4, [r8, #8]
 8003868:	b94c      	cbnz	r4, 800387e <__pow5mult+0x66>
 800386a:	f240 2171 	movw	r1, #625	@ 0x271
 800386e:	4638      	mov	r0, r7
 8003870:	f7ff ff14 	bl	800369c <__i2b>
 8003874:	2300      	movs	r3, #0
 8003876:	4604      	mov	r4, r0
 8003878:	f8c8 0008 	str.w	r0, [r8, #8]
 800387c:	6003      	str	r3, [r0, #0]
 800387e:	f04f 0900 	mov.w	r9, #0
 8003882:	07eb      	lsls	r3, r5, #31
 8003884:	d50a      	bpl.n	800389c <__pow5mult+0x84>
 8003886:	4631      	mov	r1, r6
 8003888:	4622      	mov	r2, r4
 800388a:	4638      	mov	r0, r7
 800388c:	f7ff ff1c 	bl	80036c8 <__multiply>
 8003890:	4680      	mov	r8, r0
 8003892:	4631      	mov	r1, r6
 8003894:	4638      	mov	r0, r7
 8003896:	f7ff fe4d 	bl	8003534 <_Bfree>
 800389a:	4646      	mov	r6, r8
 800389c:	106d      	asrs	r5, r5, #1
 800389e:	d00b      	beq.n	80038b8 <__pow5mult+0xa0>
 80038a0:	6820      	ldr	r0, [r4, #0]
 80038a2:	b938      	cbnz	r0, 80038b4 <__pow5mult+0x9c>
 80038a4:	4622      	mov	r2, r4
 80038a6:	4621      	mov	r1, r4
 80038a8:	4638      	mov	r0, r7
 80038aa:	f7ff ff0d 	bl	80036c8 <__multiply>
 80038ae:	6020      	str	r0, [r4, #0]
 80038b0:	f8c0 9000 	str.w	r9, [r0]
 80038b4:	4604      	mov	r4, r0
 80038b6:	e7e4      	b.n	8003882 <__pow5mult+0x6a>
 80038b8:	4630      	mov	r0, r6
 80038ba:	e8bd 83f8 	ldmia.w	sp!, {r3, r4, r5, r6, r7, r8, r9, pc}
 80038be:	bf00      	nop
 80038c0:	08004484 	.word	0x08004484
 80038c4:	080043a9 	.word	0x080043a9
 80038c8:	08004429 	.word	0x08004429

080038cc <__lshift>:
 80038cc:	e92d 47f0 	stmdb	sp!, {r4, r5, r6, r7, r8, r9, sl, lr}
 80038d0:	460c      	mov	r4, r1
 80038d2:	4607      	mov	r7, r0
 80038d4:	4691      	mov	r9, r2
 80038d6:	6923      	ldr	r3, [r4, #16]
 80038d8:	6849      	ldr	r1, [r1, #4]
 80038da:	eb03 1862 	add.w	r8, r3, r2, asr #5
 80038de:	68a3      	ldr	r3, [r4, #8]
 80038e0:	ea4f 1a62 	mov.w	sl, r2, asr #5
 80038e4:	f108 0601 	add.w	r6, r8, #1
 80038e8:	42b3      	cmp	r3, r6
 80038ea:	db0b      	blt.n	8003904 <__lshift+0x38>
 80038ec:	4638      	mov	r0, r7
 80038ee:	f7ff fde1 	bl	80034b4 <_Balloc>
 80038f2:	4605      	mov	r5, r0
 80038f4:	b948      	cbnz	r0, 800390a <__lshift+0x3e>
 80038f6:	4602      	mov	r2, r0
 80038f8:	f44f 71ef 	mov.w	r1, #478	@ 0x1de
 80038fc:	4b27      	ldr	r3, [pc, #156]	@ (800399c <__lshift+0xd0>)
 80038fe:	4828      	ldr	r0, [pc, #160]	@ (80039a0 <__lshift+0xd4>)
 8003900:	f000 fa1e 	bl	8003d40 <__assert_func>
 8003904:	3101      	adds	r1, #1
 8003906:	005b      	lsls	r3, r3, #1
 8003908:	e7ee      	b.n	80038e8 <__lshift+0x1c>
 800390a:	2300      	movs	r3, #0
 800390c:	f100 0114 	add.w	r1, r0, #20
 8003910:	f100 0210 	add.w	r2, r0, #16
 8003914:	4618      	mov	r0, r3
 8003916:	4553      	cmp	r3, sl
 8003918:	db33      	blt.n	8003982 <__lshift+0xb6>
 800391a:	6920      	ldr	r0, [r4, #16]
 800391c:	ea2a 7aea 	bic.w	sl, sl, sl, asr #31
 8003920:	f104 0314 	add.w	r3, r4, #20
 8003924:	f019 091f 	ands.w	r9, r9, #31
 8003928:	eb01 018a 	add.w	r1, r1, sl, lsl #2
 800392c:	eb03 0c80 	add.w	ip, r3, r0, lsl #2
 8003930:	d02b      	beq.n	800398a <__lshift+0xbe>
 8003932:	468a      	mov	sl, r1
 8003934:	2200      	movs	r2, #0
 8003936:	f1c9 0e20 	rsb	lr, r9, #32
 800393a:	6818      	ldr	r0, [r3, #0]
 800393c:	fa00 f009 	lsl.w	r0, r0, r9
 8003940:	4310      	orrs	r0, r2
 8003942:	f84a 0b04 	str.w	r0, [sl], #4
 8003946:	f853 2b04 	ldr.w	r2, [r3], #4
 800394a:	459c      	cmp	ip, r3
 800394c:	fa22 f20e 	lsr.w	r2, r2, lr
 8003950:	d8f3      	bhi.n	800393a <__lshift+0x6e>
 8003952:	ebac 0304 	sub.w	r3, ip, r4
 8003956:	3b15      	subs	r3, #21
 8003958:	f023 0303 	bic.w	r3, r3, #3
 800395c:	3304      	adds	r3, #4
 800395e:	f104 0015 	add.w	r0, r4, #21
 8003962:	4584      	cmp	ip, r0
 8003964:	bf38      	it	cc
 8003966:	2304      	movcc	r3, #4
 8003968:	50ca      	str	r2, [r1, r3]
 800396a:	b10a      	cbz	r2, 8003970 <__lshift+0xa4>
 800396c:	f108 0602 	add.w	r6, r8, #2
 8003970:	3e01      	subs	r6, #1
 8003972:	4638      	mov	r0, r7
 8003974:	4621      	mov	r1, r4
 8003976:	612e      	str	r6, [r5, #16]
 8003978:	f7ff fddc 	bl	8003534 <_Bfree>
 800397c:	4628      	mov	r0, r5
 800397e:	e8bd 87f0 	ldmia.w	sp!, {r4, r5, r6, r7, r8, r9, sl, pc}
 8003982:	f842 0f04 	str.w	r0, [r2, #4]!
 8003986:	3301      	adds	r3, #1
 8003988:	e7c5      	b.n	8003916 <__lshift+0x4a>
 800398a:	3904      	subs	r1, #4
 800398c:	f853 2b04 	ldr.w	r2, [r3], #4
 8003990:	459c      	cmp	ip, r3
 8003992:	f841 2f04 	str.w	r2, [r1, #4]!
 8003996:	d8f9      	bhi.n	800398c <__lshift+0xc0>
 8003998:	e7ea      	b.n	8003970 <__lshift+0xa4>
 800399a:	bf00      	nop
 800399c:	08004418 	.word	0x08004418
 80039a0:	08004429 	.word	0x08004429

080039a4 <__mcmp>:
 80039a4:	4603      	mov	r3, r0
 80039a6:	690a      	ldr	r2, [r1, #16]
 80039a8:	6900      	ldr	r0, [r0, #16]
 80039aa:	b530      	push	{r4, r5, lr}
 80039ac:	1a80      	subs	r0, r0, r2
 80039ae:	d10e      	bne.n	80039ce <__mcmp+0x2a>
 80039b0:	3314      	adds	r3, #20
 80039b2:	3114      	adds	r1, #20
 80039b4:	eb03 0482 	add.w	r4, r3, r2, lsl #2
 80039b8:	eb01 0182 	add.w	r1, r1, r2, lsl #2
 80039bc:	f854 5d04 	ldr.w	r5, [r4, #-4]!
 80039c0:	f851 2d04 	ldr.w	r2, [r1, #-4]!
 80039c4:	4295      	cmp	r5, r2
 80039c6:	d003      	beq.n	80039d0 <__mcmp+0x2c>
 80039c8:	d205      	bcs.n	80039d6 <__mcmp+0x32>
 80039ca:	f04f 30ff 	mov.w	r0, #4294967295
 80039ce:	bd30      	pop	{r4, r5, pc}
 80039d0:	42a3      	cmp	r3, r4
 80039d2:	d3f3      	bcc.n	80039bc <__mcmp+0x18>
 80039d4:	e7fb      	b.n	80039ce <__mcmp+0x2a>
 80039d6:	2001      	movs	r0, #1
 80039d8:	e7f9      	b.n	80039ce <__mcmp+0x2a>
	...

080039dc <__mdiff>:
 80039dc:	e92d 4ff7 	stmdb	sp!, {r0, r1, r2, r4, r5, r6, r7, r8, r9, sl, fp, lr}
 80039e0:	4689      	mov	r9, r1
 80039e2:	4606      	mov	r6, r0
 80039e4:	4611      	mov	r1, r2
 80039e6:	4648      	mov	r0, r9
 80039e8:	4614      	mov	r4, r2
 80039ea:	f7ff ffdb 	bl	80039a4 <__mcmp>
 80039ee:	1e05      	subs	r5, r0, #0
 80039f0:	d112      	bne.n	8003a18 <__mdiff+0x3c>
 80039f2:	4629      	mov	r1, r5
 80039f4:	4630      	mov	r0, r6
 80039f6:	f7ff fd5d 	bl	80034b4 <_Balloc>
 80039fa:	4602      	mov	r2, r0
 80039fc:	b928      	cbnz	r0, 8003a0a <__mdiff+0x2e>
 80039fe:	f240 2137 	movw	r1, #567	@ 0x237
 8003a02:	4b3e      	ldr	r3, [pc, #248]	@ (8003afc <__mdiff+0x120>)
 8003a04:	483e      	ldr	r0, [pc, #248]	@ (8003b00 <__mdiff+0x124>)
 8003a06:	f000 f99b 	bl	8003d40 <__assert_func>
 8003a0a:	2301      	movs	r3, #1
 8003a0c:	e9c0 3504 	strd	r3, r5, [r0, #16]
 8003a10:	4610      	mov	r0, r2
 8003a12:	b003      	add	sp, #12
 8003a14:	e8bd 8ff0 	ldmia.w	sp!, {r4, r5, r6, r7, r8, r9, sl, fp, pc}
 8003a18:	bfbc      	itt	lt
 8003a1a:	464b      	movlt	r3, r9
 8003a1c:	46a1      	movlt	r9, r4
 8003a1e:	4630      	mov	r0, r6
 8003a20:	f8d9 1004 	ldr.w	r1, [r9, #4]
 8003a24:	bfba      	itte	lt
 8003a26:	461c      	movlt	r4, r3
 8003a28:	2501      	movlt	r5, #1
 8003a2a:	2500      	movge	r5, #0
 8003a2c:	f7ff fd42 	bl	80034b4 <_Balloc>
 8003a30:	4602      	mov	r2, r0
 8003a32:	b918      	cbnz	r0, 8003a3c <__mdiff+0x60>
 8003a34:	f240 2145 	movw	r1, #581	@ 0x245
 8003a38:	4b30      	ldr	r3, [pc, #192]	@ (8003afc <__mdiff+0x120>)
 8003a3a:	e7e3      	b.n	8003a04 <__mdiff+0x28>
 8003a3c:	f100 0b14 	add.w	fp, r0, #20
 8003a40:	f8d9 7010 	ldr.w	r7, [r9, #16]
 8003a44:	f109 0310 	add.w	r3, r9, #16
 8003a48:	60c5      	str	r5, [r0, #12]
 8003a4a:	f04f 0c00 	mov.w	ip, #0
 8003a4e:	f109 0514 	add.w	r5, r9, #20
 8003a52:	46d9      	mov	r9, fp
 8003a54:	6926      	ldr	r6, [r4, #16]
 8003a56:	f104 0e14 	add.w	lr, r4, #20
 8003a5a:	eb05 0887 	add.w	r8, r5, r7, lsl #2
 8003a5e:	eb0e 0686 	add.w	r6, lr, r6, lsl #2
 8003a62:	9301      	str	r3, [sp, #4]
 8003a64:	9b01      	ldr	r3, [sp, #4]
 8003a66:	f85e 0b04 	ldr.w	r0, [lr], #4
 8003a6a:	f853 af04 	ldr.w	sl, [r3, #4]!
 8003a6e:	b281      	uxth	r1, r0
 8003a70:	9301      	str	r3, [sp, #4]
 8003a72:	fa1f f38a 	uxth.w	r3, sl
 8003a76:	1a5b      	subs	r3, r3, r1
 8003a78:	0c00      	lsrs	r0, r0, #16
 8003a7a:	4463      	add	r3, ip
 8003a7c:	ebc0 401a 	rsb	r0, r0, sl, lsr #16
 8003a80:	eb00 4023 	add.w	r0, r0, r3, asr #16
 8003a84:	b29b      	uxth	r3, r3
 8003a86:	ea43 4300 	orr.w	r3, r3, r0, lsl #16
 8003a8a:	4576      	cmp	r6, lr
 8003a8c:	ea4f 4c20 	mov.w	ip, r0, asr #16
 8003a90:	f849 3b04 	str.w	r3, [r9], #4
 8003a94:	d8e6      	bhi.n	8003a64 <__mdiff+0x88>
 8003a96:	1b33      	subs	r3, r6, r4
 8003a98:	3b15      	subs	r3, #21
 8003a9a:	f023 0303 	bic.w	r3, r3, #3
 8003a9e:	3415      	adds	r4, #21
 8003aa0:	3304      	adds	r3, #4
 8003aa2:	42a6      	cmp	r6, r4
 8003aa4:	bf38      	it	cc
 8003aa6:	2304      	movcc	r3, #4
 8003aa8:	441d      	add	r5, r3
 8003aaa:	445b      	add	r3, fp
 8003aac:	461e      	mov	r6, r3
 8003aae:	462c      	mov	r4, r5
 8003ab0:	4544      	cmp	r4, r8
 8003ab2:	d30e      	bcc.n	8003ad2 <__mdiff+0xf6>
 8003ab4:	f108 0103 	add.w	r1, r8, #3
 8003ab8:	1b49      	subs	r1, r1, r5
 8003aba:	f021 0103 	bic.w	r1, r1, #3
 8003abe:	3d03      	subs	r5, #3
 8003ac0:	45a8      	cmp	r8, r5
 8003ac2:	bf38      	it	cc
 8003ac4:	2100      	movcc	r1, #0
 8003ac6:	440b      	add	r3, r1
 8003ac8:	f853 1d04 	ldr.w	r1, [r3, #-4]!
 8003acc:	b199      	cbz	r1, 8003af6 <__mdiff+0x11a>
 8003ace:	6117      	str	r7, [r2, #16]
 8003ad0:	e79e      	b.n	8003a10 <__mdiff+0x34>
 8003ad2:	46e6      	mov	lr, ip
 8003ad4:	f854 1b04 	ldr.w	r1, [r4], #4
 8003ad8:	fa1f fc81 	uxth.w	ip, r1
 8003adc:	44f4      	add	ip, lr
 8003ade:	0c08      	lsrs	r0, r1, #16
 8003ae0:	4471      	add	r1, lr
 8003ae2:	eb00 402c 	add.w	r0, r0, ip, asr #16
 8003ae6:	b289      	uxth	r1, r1
 8003ae8:	ea41 4100 	orr.w	r1, r1, r0, lsl #16
 8003aec:	ea4f 4c20 	mov.w	ip, r0, asr #16
 8003af0:	f846 1b04 	str.w	r1, [r6], #4
 8003af4:	e7dc      	b.n	8003ab0 <__mdiff+0xd4>
 8003af6:	3f01      	subs	r7, #1
 8003af8:	e7e6      	b.n	8003ac8 <__mdiff+0xec>
 8003afa:	bf00      	nop
 8003afc:	08004418 	.word	0x08004418
 8003b00:	08004429 	.word	0x08004429

08003b04 <__d2b>:
 8003b04:	e92d 4373 	stmdb	sp!, {r0, r1, r4, r5, r6, r8, r9, lr}
 8003b08:	2101      	movs	r1, #1
 8003b0a:	4690      	mov	r8, r2
 8003b0c:	4699      	mov	r9, r3
 8003b0e:	9e08      	ldr	r6, [sp, #32]
 8003b10:	f7ff fcd0 	bl	80034b4 <_Balloc>
 8003b14:	4604      	mov	r4, r0
 8003b16:	b930      	cbnz	r0, 8003b26 <__d2b+0x22>
 8003b18:	4602      	mov	r2, r0
 8003b1a:	f240 310f 	movw	r1, #783	@ 0x30f
 8003b1e:	4b23      	ldr	r3, [pc, #140]	@ (8003bac <__d2b+0xa8>)
 8003b20:	4823      	ldr	r0, [pc, #140]	@ (8003bb0 <__d2b+0xac>)
 8003b22:	f000 f90d 	bl	8003d40 <__assert_func>
 8003b26:	f3c9 550a 	ubfx	r5, r9, #20, #11
 8003b2a:	f3c9 0313 	ubfx	r3, r9, #0, #20
 8003b2e:	b10d      	cbz	r5, 8003b34 <__d2b+0x30>
 8003b30:	f443 1380 	orr.w	r3, r3, #1048576	@ 0x100000
 8003b34:	9301      	str	r3, [sp, #4]
 8003b36:	f1b8 0300 	subs.w	r3, r8, #0
 8003b3a:	d024      	beq.n	8003b86 <__d2b+0x82>
 8003b3c:	4668      	mov	r0, sp
 8003b3e:	9300      	str	r3, [sp, #0]
 8003b40:	f7ff fd7f 	bl	8003642 <__lo0bits>
 8003b44:	e9dd 1200 	ldrd	r1, r2, [sp]
 8003b48:	b1d8      	cbz	r0, 8003b82 <__d2b+0x7e>
 8003b4a:	f1c0 0320 	rsb	r3, r0, #32
 8003b4e:	fa02 f303 	lsl.w	r3, r2, r3
 8003b52:	430b      	orrs	r3, r1
 8003b54:	40c2      	lsrs	r2, r0
 8003b56:	6163      	str	r3, [r4, #20]
 8003b58:	9201      	str	r2, [sp, #4]
 8003b5a:	9b01      	ldr	r3, [sp, #4]
 8003b5c:	2b00      	cmp	r3, #0
 8003b5e:	bf0c      	ite	eq
 8003b60:	2201      	moveq	r2, #1
 8003b62:	2202      	movne	r2, #2
 8003b64:	61a3      	str	r3, [r4, #24]
 8003b66:	6122      	str	r2, [r4, #16]
 8003b68:	b1ad      	cbz	r5, 8003b96 <__d2b+0x92>
 8003b6a:	f2a5 4533 	subw	r5, r5, #1075	@ 0x433
 8003b6e:	4405      	add	r5, r0
 8003b70:	6035      	str	r5, [r6, #0]
 8003b72:	f1c0 0035 	rsb	r0, r0, #53	@ 0x35
 8003b76:	9b09      	ldr	r3, [sp, #36]	@ 0x24
 8003b78:	6018      	str	r0, [r3, #0]
 8003b7a:	4620      	mov	r0, r4
 8003b7c:	b002      	add	sp, #8
 8003b7e:	e8bd 8370 	ldmia.w	sp!, {r4, r5, r6, r8, r9, pc}
 8003b82:	6161      	str	r1, [r4, #20]
 8003b84:	e7e9      	b.n	8003b5a <__d2b+0x56>
 8003b86:	a801      	add	r0, sp, #4
 8003b88:	f7ff fd5b 	bl	8003642 <__lo0bits>
 8003b8c:	9b01      	ldr	r3, [sp, #4]
 8003b8e:	2201      	movs	r2, #1
 8003b90:	6163      	str	r3, [r4, #20]
 8003b92:	3020      	adds	r0, #32
 8003b94:	e7e7      	b.n	8003b66 <__d2b+0x62>
 8003b96:	f2a0 4032 	subw	r0, r0, #1074	@ 0x432
 8003b9a:	eb04 0382 	add.w	r3, r4, r2, lsl #2
 8003b9e:	6030      	str	r0, [r6, #0]
 8003ba0:	6918      	ldr	r0, [r3, #16]
 8003ba2:	f7ff fd2f 	bl	8003604 <__hi0bits>
 8003ba6:	ebc0 1042 	rsb	r0, r0, r2, lsl #5
 8003baa:	e7e4      	b.n	8003b76 <__d2b+0x72>
 8003bac:	08004418 	.word	0x08004418
 8003bb0:	08004429 	.word	0x08004429

08003bb4 <__sflush_r>:
 8003bb4:	f9b1 200c 	ldrsh.w	r2, [r1, #12]
 8003bb8:	b5f8      	push	{r3, r4, r5, r6, r7, lr}
 8003bba:	0716      	lsls	r6, r2, #28
 8003bbc:	4605      	mov	r5, r0
 8003bbe:	460c      	mov	r4, r1
 8003bc0:	d454      	bmi.n	8003c6c <__sflush_r+0xb8>
 8003bc2:	684b      	ldr	r3, [r1, #4]
 8003bc4:	2b00      	cmp	r3, #0
 8003bc6:	dc02      	bgt.n	8003bce <__sflush_r+0x1a>
 8003bc8:	6c0b      	ldr	r3, [r1, #64]	@ 0x40
 8003bca:	2b00      	cmp	r3, #0
 8003bcc:	dd48      	ble.n	8003c60 <__sflush_r+0xac>
 8003bce:	6ae6      	ldr	r6, [r4, #44]	@ 0x2c
 8003bd0:	2e00      	cmp	r6, #0
 8003bd2:	d045      	beq.n	8003c60 <__sflush_r+0xac>
 8003bd4:	2300      	movs	r3, #0
 8003bd6:	f412 5280 	ands.w	r2, r2, #4096	@ 0x1000
 8003bda:	682f      	ldr	r7, [r5, #0]
 8003bdc:	6a21      	ldr	r1, [r4, #32]
 8003bde:	602b      	str	r3, [r5, #0]
 8003be0:	d030      	beq.n	8003c44 <__sflush_r+0x90>
 8003be2:	6d62      	ldr	r2, [r4, #84]	@ 0x54
 8003be4:	89a3      	ldrh	r3, [r4, #12]
 8003be6:	0759      	lsls	r1, r3, #29
 8003be8:	d505      	bpl.n	8003bf6 <__sflush_r+0x42>
 8003bea:	6863      	ldr	r3, [r4, #4]
 8003bec:	1ad2      	subs	r2, r2, r3
 8003bee:	6b63      	ldr	r3, [r4, #52]	@ 0x34
 8003bf0:	b10b      	cbz	r3, 8003bf6 <__sflush_r+0x42>
 8003bf2:	6c23      	ldr	r3, [r4, #64]	@ 0x40
 8003bf4:	1ad2      	subs	r2, r2, r3
 8003bf6:	2300      	movs	r3, #0
 8003bf8:	4628      	mov	r0, r5
 8003bfa:	6ae6      	ldr	r6, [r4, #44]	@ 0x2c
 8003bfc:	6a21      	ldr	r1, [r4, #32]
 8003bfe:	47b0      	blx	r6
 8003c00:	1c43      	adds	r3, r0, #1
 8003c02:	89a3      	ldrh	r3, [r4, #12]
 8003c04:	d106      	bne.n	8003c14 <__sflush_r+0x60>
 8003c06:	6829      	ldr	r1, [r5, #0]
 8003c08:	291d      	cmp	r1, #29
 8003c0a:	d82b      	bhi.n	8003c64 <__sflush_r+0xb0>
 8003c0c:	4a28      	ldr	r2, [pc, #160]	@ (8003cb0 <__sflush_r+0xfc>)
 8003c0e:	410a      	asrs	r2, r1
 8003c10:	07d6      	lsls	r6, r2, #31
 8003c12:	d427      	bmi.n	8003c64 <__sflush_r+0xb0>
 8003c14:	2200      	movs	r2, #0
 8003c16:	6062      	str	r2, [r4, #4]
 8003c18:	6922      	ldr	r2, [r4, #16]
 8003c1a:	04d9      	lsls	r1, r3, #19
 8003c1c:	6022      	str	r2, [r4, #0]
 8003c1e:	d504      	bpl.n	8003c2a <__sflush_r+0x76>
 8003c20:	1c42      	adds	r2, r0, #1
 8003c22:	d101      	bne.n	8003c28 <__sflush_r+0x74>
 8003c24:	682b      	ldr	r3, [r5, #0]
 8003c26:	b903      	cbnz	r3, 8003c2a <__sflush_r+0x76>
 8003c28:	6560      	str	r0, [r4, #84]	@ 0x54
 8003c2a:	6b61      	ldr	r1, [r4, #52]	@ 0x34
 8003c2c:	602f      	str	r7, [r5, #0]
 8003c2e:	b1b9      	cbz	r1, 8003c60 <__sflush_r+0xac>
 8003c30:	f104 0344 	add.w	r3, r4, #68	@ 0x44
 8003c34:	4299      	cmp	r1, r3
 8003c36:	d002      	beq.n	8003c3e <__sflush_r+0x8a>
 8003c38:	4628      	mov	r0, r5
 8003c3a:	f7ff fb3d 	bl	80032b8 <_free_r>
 8003c3e:	2300      	movs	r3, #0
 8003c40:	6363      	str	r3, [r4, #52]	@ 0x34
 8003c42:	e00d      	b.n	8003c60 <__sflush_r+0xac>
 8003c44:	2301      	movs	r3, #1
 8003c46:	4628      	mov	r0, r5
 8003c48:	47b0      	blx	r6
 8003c4a:	4602      	mov	r2, r0
 8003c4c:	1c50      	adds	r0, r2, #1
 8003c4e:	d1c9      	bne.n	8003be4 <__sflush_r+0x30>
 8003c50:	682b      	ldr	r3, [r5, #0]
 8003c52:	2b00      	cmp	r3, #0
 8003c54:	d0c6      	beq.n	8003be4 <__sflush_r+0x30>
 8003c56:	2b1d      	cmp	r3, #29
 8003c58:	d001      	beq.n	8003c5e <__sflush_r+0xaa>
 8003c5a:	2b16      	cmp	r3, #22
 8003c5c:	d11d      	bne.n	8003c9a <__sflush_r+0xe6>
 8003c5e:	602f      	str	r7, [r5, #0]
 8003c60:	2000      	movs	r0, #0
 8003c62:	e021      	b.n	8003ca8 <__sflush_r+0xf4>
 8003c64:	f043 0340 	orr.w	r3, r3, #64	@ 0x40
 8003c68:	b21b      	sxth	r3, r3
 8003c6a:	e01a      	b.n	8003ca2 <__sflush_r+0xee>
 8003c6c:	690f      	ldr	r7, [r1, #16]
 8003c6e:	2f00      	cmp	r7, #0
 8003c70:	d0f6      	beq.n	8003c60 <__sflush_r+0xac>
 8003c72:	0793      	lsls	r3, r2, #30
 8003c74:	bf18      	it	ne
 8003c76:	2300      	movne	r3, #0
 8003c78:	680e      	ldr	r6, [r1, #0]
 8003c7a:	bf08      	it	eq
 8003c7c:	694b      	ldreq	r3, [r1, #20]
 8003c7e:	1bf6      	subs	r6, r6, r7
 8003c80:	600f      	str	r7, [r1, #0]
 8003c82:	608b      	str	r3, [r1, #8]
 8003c84:	2e00      	cmp	r6, #0
 8003c86:	ddeb      	ble.n	8003c60 <__sflush_r+0xac>
 8003c88:	4633      	mov	r3, r6
 8003c8a:	463a      	mov	r2, r7
 8003c8c:	4628      	mov	r0, r5
 8003c8e:	6a21      	ldr	r1, [r4, #32]
 8003c90:	f8d4 c028 	ldr.w	ip, [r4, #40]	@ 0x28
 8003c94:	47e0      	blx	ip
 8003c96:	2800      	cmp	r0, #0
 8003c98:	dc07      	bgt.n	8003caa <__sflush_r+0xf6>
 8003c9a:	f9b4 300c 	ldrsh.w	r3, [r4, #12]
 8003c9e:	f043 0340 	orr.w	r3, r3, #64	@ 0x40
 8003ca2:	f04f 30ff 	mov.w	r0, #4294967295
 8003ca6:	81a3      	strh	r3, [r4, #12]
 8003ca8:	bdf8      	pop	{r3, r4, r5, r6, r7, pc}
 8003caa:	4407      	add	r7, r0
 8003cac:	1a36      	subs	r6, r6, r0
 8003cae:	e7e9      	b.n	8003c84 <__sflush_r+0xd0>
 8003cb0:	dfbffffe 	.word	0xdfbffffe

08003cb4 <_fflush_r>:
 8003cb4:	b538      	push	{r3, r4, r5, lr}
 8003cb6:	690b      	ldr	r3, [r1, #16]
 8003cb8:	4605      	mov	r5, r0
 8003cba:	460c      	mov	r4, r1
 8003cbc:	b913      	cbnz	r3, 8003cc4 <_fflush_r+0x10>
 8003cbe:	2500      	movs	r5, #0
 8003cc0:	4628      	mov	r0, r5
 8003cc2:	bd38      	pop	{r3, r4, r5, pc}
 8003cc4:	b118      	cbz	r0, 8003cce <_fflush_r+0x1a>
 8003cc6:	6a03      	ldr	r3, [r0, #32]
 8003cc8:	b90b      	cbnz	r3, 8003cce <_fflush_r+0x1a>
 8003cca:	f7fe fb9d 	bl	8002408 <__sinit>
 8003cce:	f9b4 300c 	ldrsh.w	r3, [r4, #12]
 8003cd2:	2b00      	cmp	r3, #0
 8003cd4:	d0f3      	beq.n	8003cbe <_fflush_r+0xa>
 8003cd6:	6e62      	ldr	r2, [r4, #100]	@ 0x64
 8003cd8:	07d0      	lsls	r0, r2, #31
 8003cda:	d404      	bmi.n	8003ce6 <_fflush_r+0x32>
 8003cdc:	0599      	lsls	r1, r3, #22
 8003cde:	d402      	bmi.n	8003ce6 <_fflush_r+0x32>
 8003ce0:	6da0      	ldr	r0, [r4, #88]	@ 0x58
 8003ce2:	f7fe fc88 	bl	80025f6 <__retarget_lock_acquire_recursive>
 8003ce6:	4628      	mov	r0, r5
 8003ce8:	4621      	mov	r1, r4
 8003cea:	f7ff ff63 	bl	8003bb4 <__sflush_r>
 8003cee:	6e63      	ldr	r3, [r4, #100]	@ 0x64
 8003cf0:	4605      	mov	r5, r0
 8003cf2:	07da      	lsls	r2, r3, #31
 8003cf4:	d4e4      	bmi.n	8003cc0 <_fflush_r+0xc>
 8003cf6:	89a3      	ldrh	r3, [r4, #12]
 8003cf8:	059b      	lsls	r3, r3, #22
 8003cfa:	d4e1      	bmi.n	8003cc0 <_fflush_r+0xc>
 8003cfc:	6da0      	ldr	r0, [r4, #88]	@ 0x58
 8003cfe:	f7fe fc7b 	bl	80025f8 <__retarget_lock_release_recursive>
 8003d02:	e7dd      	b.n	8003cc0 <_fflush_r+0xc>

08003d04 <_sbrk_r>:
 8003d04:	b538      	push	{r3, r4, r5, lr}
 8003d06:	2300      	movs	r3, #0
 8003d08:	4d05      	ldr	r5, [pc, #20]	@ (8003d20 <_sbrk_r+0x1c>)
 8003d0a:	4604      	mov	r4, r0
 8003d0c:	4608      	mov	r0, r1
 8003d0e:	602b      	str	r3, [r5, #0]
 8003d10:	f7fd fe32 	bl	8001978 <_sbrk>
 8003d14:	1c43      	adds	r3, r0, #1
 8003d16:	d102      	bne.n	8003d1e <_sbrk_r+0x1a>
 8003d18:	682b      	ldr	r3, [r5, #0]
 8003d1a:	b103      	cbz	r3, 8003d1e <_sbrk_r+0x1a>
 8003d1c:	6023      	str	r3, [r4, #0]
 8003d1e:	bd38      	pop	{r3, r4, r5, pc}
 8003d20:	20000350 	.word	0x20000350

08003d24 <memcpy>:
 8003d24:	440a      	add	r2, r1
 8003d26:	4291      	cmp	r1, r2
 8003d28:	f100 33ff 	add.w	r3, r0, #4294967295
 8003d2c:	d100      	bne.n	8003d30 <memcpy+0xc>
 8003d2e:	4770      	bx	lr
 8003d30:	b510      	push	{r4, lr}
 8003d32:	f811 4b01 	ldrb.w	r4, [r1], #1
 8003d36:	4291      	cmp	r1, r2
 8003d38:	f803 4f01 	strb.w	r4, [r3, #1]!
 8003d3c:	d1f9      	bne.n	8003d32 <memcpy+0xe>
 8003d3e:	bd10      	pop	{r4, pc}

08003d40 <__assert_func>:
 8003d40:	b51f      	push	{r0, r1, r2, r3, r4, lr}
 8003d42:	4614      	mov	r4, r2
 8003d44:	461a      	mov	r2, r3
 8003d46:	4b09      	ldr	r3, [pc, #36]	@ (8003d6c <__assert_func+0x2c>)
 8003d48:	4605      	mov	r5, r0
 8003d4a:	681b      	ldr	r3, [r3, #0]
 8003d4c:	68d8      	ldr	r0, [r3, #12]
 8003d4e:	b954      	cbnz	r4, 8003d66 <__assert_func+0x26>
 8003d50:	4b07      	ldr	r3, [pc, #28]	@ (8003d70 <__assert_func+0x30>)
 8003d52:	461c      	mov	r4, r3
 8003d54:	e9cd 3401 	strd	r3, r4, [sp, #4]
 8003d58:	9100      	str	r1, [sp, #0]
 8003d5a:	462b      	mov	r3, r5
 8003d5c:	4905      	ldr	r1, [pc, #20]	@ (8003d74 <__assert_func+0x34>)
 8003d5e:	f000 f841 	bl	8003de4 <fiprintf>
 8003d62:	f000 f851 	bl	8003e08 <abort>
 8003d66:	4b04      	ldr	r3, [pc, #16]	@ (8003d78 <__assert_func+0x38>)
 8003d68:	e7f4      	b.n	8003d54 <__assert_func+0x14>
 8003d6a:	bf00      	nop
 8003d6c:	2000001c 	.word	0x2000001c
 8003d70:	080045c5 	.word	0x080045c5
 8003d74:	08004597 	.word	0x08004597
 8003d78:	0800458a 	.word	0x0800458a

08003d7c <_calloc_r>:
 8003d7c:	b570      	push	{r4, r5, r6, lr}
 8003d7e:	fba1 5402 	umull	r5, r4, r1, r2
 8003d82:	b93c      	cbnz	r4, 8003d94 <_calloc_r+0x18>
 8003d84:	4629      	mov	r1, r5
 8003d86:	f7ff fb09 	bl	800339c <_malloc_r>
 8003d8a:	4606      	mov	r6, r0
 8003d8c:	b928      	cbnz	r0, 8003d9a <_calloc_r+0x1e>
 8003d8e:	2600      	movs	r6, #0
 8003d90:	4630      	mov	r0, r6
 8003d92:	bd70      	pop	{r4, r5, r6, pc}
 8003d94:	220c      	movs	r2, #12
 8003d96:	6002      	str	r2, [r0, #0]
 8003d98:	e7f9      	b.n	8003d8e <_calloc_r+0x12>
 8003d9a:	462a      	mov	r2, r5
 8003d9c:	4621      	mov	r1, r4
 8003d9e:	f7fe fbac 	bl	80024fa <memset>
 8003da2:	e7f5      	b.n	8003d90 <_calloc_r+0x14>

08003da4 <__ascii_mbtowc>:
 8003da4:	b082      	sub	sp, #8
 8003da6:	b901      	cbnz	r1, 8003daa <__ascii_mbtowc+0x6>
 8003da8:	a901      	add	r1, sp, #4
 8003daa:	b142      	cbz	r2, 8003dbe <__ascii_mbtowc+0x1a>
 8003dac:	b14b      	cbz	r3, 8003dc2 <__ascii_mbtowc+0x1e>
 8003dae:	7813      	ldrb	r3, [r2, #0]
 8003db0:	600b      	str	r3, [r1, #0]
 8003db2:	7812      	ldrb	r2, [r2, #0]
 8003db4:	1e10      	subs	r0, r2, #0
 8003db6:	bf18      	it	ne
 8003db8:	2001      	movne	r0, #1
 8003dba:	b002      	add	sp, #8
 8003dbc:	4770      	bx	lr
 8003dbe:	4610      	mov	r0, r2
 8003dc0:	e7fb      	b.n	8003dba <__ascii_mbtowc+0x16>
 8003dc2:	f06f 0001 	mvn.w	r0, #1
 8003dc6:	e7f8      	b.n	8003dba <__ascii_mbtowc+0x16>

08003dc8 <__ascii_wctomb>:
 8003dc8:	4603      	mov	r3, r0
 8003dca:	4608      	mov	r0, r1
 8003dcc:	b141      	cbz	r1, 8003de0 <__ascii_wctomb+0x18>
 8003dce:	2aff      	cmp	r2, #255	@ 0xff
 8003dd0:	d904      	bls.n	8003ddc <__ascii_wctomb+0x14>
 8003dd2:	228a      	movs	r2, #138	@ 0x8a
 8003dd4:	f04f 30ff 	mov.w	r0, #4294967295
 8003dd8:	601a      	str	r2, [r3, #0]
 8003dda:	4770      	bx	lr
 8003ddc:	2001      	movs	r0, #1
 8003dde:	700a      	strb	r2, [r1, #0]
 8003de0:	4770      	bx	lr
	...

08003de4 <fiprintf>:
 8003de4:	b40e      	push	{r1, r2, r3}
 8003de6:	b503      	push	{r0, r1, lr}
 8003de8:	4601      	mov	r1, r0
 8003dea:	ab03      	add	r3, sp, #12
 8003dec:	4805      	ldr	r0, [pc, #20]	@ (8003e04 <fiprintf+0x20>)
 8003dee:	f853 2b04 	ldr.w	r2, [r3], #4
 8003df2:	6800      	ldr	r0, [r0, #0]
 8003df4:	9301      	str	r3, [sp, #4]
 8003df6:	f000 f835 	bl	8003e64 <_vfiprintf_r>
 8003dfa:	b002      	add	sp, #8
 8003dfc:	f85d eb04 	ldr.w	lr, [sp], #4
 8003e00:	b003      	add	sp, #12
 8003e02:	4770      	bx	lr
 8003e04:	2000001c 	.word	0x2000001c

08003e08 <abort>:
 8003e08:	2006      	movs	r0, #6
 8003e0a:	b508      	push	{r3, lr}
 8003e0c:	f000 f9fe 	bl	800420c <raise>
 8003e10:	2001      	movs	r0, #1
 8003e12:	f7fd fd3c 	bl	800188e <_exit>

08003e16 <__sfputc_r>:
 8003e16:	6893      	ldr	r3, [r2, #8]
 8003e18:	b410      	push	{r4}
 8003e1a:	3b01      	subs	r3, #1
 8003e1c:	2b00      	cmp	r3, #0
 8003e1e:	6093      	str	r3, [r2, #8]
 8003e20:	da07      	bge.n	8003e32 <__sfputc_r+0x1c>
 8003e22:	6994      	ldr	r4, [r2, #24]
 8003e24:	42a3      	cmp	r3, r4
 8003e26:	db01      	blt.n	8003e2c <__sfputc_r+0x16>
 8003e28:	290a      	cmp	r1, #10
 8003e2a:	d102      	bne.n	8003e32 <__sfputc_r+0x1c>
 8003e2c:	bc10      	pop	{r4}
 8003e2e:	f000 b931 	b.w	8004094 <__swbuf_r>
 8003e32:	6813      	ldr	r3, [r2, #0]
 8003e34:	1c58      	adds	r0, r3, #1
 8003e36:	6010      	str	r0, [r2, #0]
 8003e38:	7019      	strb	r1, [r3, #0]
 8003e3a:	4608      	mov	r0, r1
 8003e3c:	bc10      	pop	{r4}
 8003e3e:	4770      	bx	lr

08003e40 <__sfputs_r>:
 8003e40:	b5f8      	push	{r3, r4, r5, r6, r7, lr}
 8003e42:	4606      	mov	r6, r0
 8003e44:	460f      	mov	r7, r1
 8003e46:	4614      	mov	r4, r2
 8003e48:	18d5      	adds	r5, r2, r3
 8003e4a:	42ac      	cmp	r4, r5
 8003e4c:	d101      	bne.n	8003e52 <__sfputs_r+0x12>
 8003e4e:	2000      	movs	r0, #0
 8003e50:	e007      	b.n	8003e62 <__sfputs_r+0x22>
 8003e52:	463a      	mov	r2, r7
 8003e54:	4630      	mov	r0, r6
 8003e56:	f814 1b01 	ldrb.w	r1, [r4], #1
 8003e5a:	f7ff ffdc 	bl	8003e16 <__sfputc_r>
 8003e5e:	1c43      	adds	r3, r0, #1
 8003e60:	d1f3      	bne.n	8003e4a <__sfputs_r+0xa>
 8003e62:	bdf8      	pop	{r3, r4, r5, r6, r7, pc}

08003e64 <_vfiprintf_r>:
 8003e64:	e92d 4ff0 	stmdb	sp!, {r4, r5, r6, r7, r8, r9, sl, fp, lr}
 8003e68:	460d      	mov	r5, r1
 8003e6a:	4614      	mov	r4, r2
 8003e6c:	4698      	mov	r8, r3
 8003e6e:	4606      	mov	r6, r0
 8003e70:	b09d      	sub	sp, #116	@ 0x74
 8003e72:	b118      	cbz	r0, 8003e7c <_vfiprintf_r+0x18>
 8003e74:	6a03      	ldr	r3, [r0, #32]
 8003e76:	b90b      	cbnz	r3, 8003e7c <_vfiprintf_r+0x18>
 8003e78:	f7fe fac6 	bl	8002408 <__sinit>
 8003e7c:	6e6b      	ldr	r3, [r5, #100]	@ 0x64
 8003e7e:	07d9      	lsls	r1, r3, #31
 8003e80:	d405      	bmi.n	8003e8e <_vfiprintf_r+0x2a>
 8003e82:	89ab      	ldrh	r3, [r5, #12]
 8003e84:	059a      	lsls	r2, r3, #22
 8003e86:	d402      	bmi.n	8003e8e <_vfiprintf_r+0x2a>
 8003e88:	6da8      	ldr	r0, [r5, #88]	@ 0x58
 8003e8a:	f7fe fbb4 	bl	80025f6 <__retarget_lock_acquire_recursive>
 8003e8e:	89ab      	ldrh	r3, [r5, #12]
 8003e90:	071b      	lsls	r3, r3, #28
 8003e92:	d501      	bpl.n	8003e98 <_vfiprintf_r+0x34>
 8003e94:	692b      	ldr	r3, [r5, #16]
 8003e96:	b99b      	cbnz	r3, 8003ec0 <_vfiprintf_r+0x5c>
 8003e98:	4629      	mov	r1, r5
 8003e9a:	4630      	mov	r0, r6
 8003e9c:	f000 f938 	bl	8004110 <__swsetup_r>
 8003ea0:	b170      	cbz	r0, 8003ec0 <_vfiprintf_r+0x5c>
 8003ea2:	6e6b      	ldr	r3, [r5, #100]	@ 0x64
 8003ea4:	07dc      	lsls	r4, r3, #31
 8003ea6:	d504      	bpl.n	8003eb2 <_vfiprintf_r+0x4e>
 8003ea8:	f04f 30ff 	mov.w	r0, #4294967295
 8003eac:	b01d      	add	sp, #116	@ 0x74
 8003eae:	e8bd 8ff0 	ldmia.w	sp!, {r4, r5, r6, r7, r8, r9, sl, fp, pc}
 8003eb2:	89ab      	ldrh	r3, [r5, #12]
 8003eb4:	0598      	lsls	r0, r3, #22
 8003eb6:	d4f7      	bmi.n	8003ea8 <_vfiprintf_r+0x44>
 8003eb8:	6da8      	ldr	r0, [r5, #88]	@ 0x58
 8003eba:	f7fe fb9d 	bl	80025f8 <__retarget_lock_release_recursive>
 8003ebe:	e7f3      	b.n	8003ea8 <_vfiprintf_r+0x44>
 8003ec0:	2300      	movs	r3, #0
 8003ec2:	9309      	str	r3, [sp, #36]	@ 0x24
 8003ec4:	2320      	movs	r3, #32
 8003ec6:	f88d 3029 	strb.w	r3, [sp, #41]	@ 0x29
 8003eca:	2330      	movs	r3, #48	@ 0x30
 8003ecc:	f04f 0901 	mov.w	r9, #1
 8003ed0:	f8cd 800c 	str.w	r8, [sp, #12]
 8003ed4:	f8df 81a8 	ldr.w	r8, [pc, #424]	@ 8004080 <_vfiprintf_r+0x21c>
 8003ed8:	f88d 302a 	strb.w	r3, [sp, #42]	@ 0x2a
 8003edc:	4623      	mov	r3, r4
 8003ede:	469a      	mov	sl, r3
 8003ee0:	f813 2b01 	ldrb.w	r2, [r3], #1
 8003ee4:	b10a      	cbz	r2, 8003eea <_vfiprintf_r+0x86>
 8003ee6:	2a25      	cmp	r2, #37	@ 0x25
 8003ee8:	d1f9      	bne.n	8003ede <_vfiprintf_r+0x7a>
 8003eea:	ebba 0b04 	subs.w	fp, sl, r4
 8003eee:	d00b      	beq.n	8003f08 <_vfiprintf_r+0xa4>
 8003ef0:	465b      	mov	r3, fp
 8003ef2:	4622      	mov	r2, r4
 8003ef4:	4629      	mov	r1, r5
 8003ef6:	4630      	mov	r0, r6
 8003ef8:	f7ff ffa2 	bl	8003e40 <__sfputs_r>
 8003efc:	3001      	adds	r0, #1
 8003efe:	f000 80a7 	beq.w	8004050 <_vfiprintf_r+0x1ec>
 8003f02:	9a09      	ldr	r2, [sp, #36]	@ 0x24
 8003f04:	445a      	add	r2, fp
 8003f06:	9209      	str	r2, [sp, #36]	@ 0x24
 8003f08:	f89a 3000 	ldrb.w	r3, [sl]
 8003f0c:	2b00      	cmp	r3, #0
 8003f0e:	f000 809f 	beq.w	8004050 <_vfiprintf_r+0x1ec>
 8003f12:	2300      	movs	r3, #0
 8003f14:	f04f 32ff 	mov.w	r2, #4294967295
 8003f18:	e9cd 2305 	strd	r2, r3, [sp, #20]
 8003f1c:	f10a 0a01 	add.w	sl, sl, #1
 8003f20:	9304      	str	r3, [sp, #16]
 8003f22:	9307      	str	r3, [sp, #28]
 8003f24:	f88d 3053 	strb.w	r3, [sp, #83]	@ 0x53
 8003f28:	931a      	str	r3, [sp, #104]	@ 0x68
 8003f2a:	4654      	mov	r4, sl
 8003f2c:	2205      	movs	r2, #5
 8003f2e:	f814 1b01 	ldrb.w	r1, [r4], #1
 8003f32:	4853      	ldr	r0, [pc, #332]	@ (8004080 <_vfiprintf_r+0x21c>)
 8003f34:	f7fe fb61 	bl	80025fa <memchr>
 8003f38:	9a04      	ldr	r2, [sp, #16]
 8003f3a:	b9d8      	cbnz	r0, 8003f74 <_vfiprintf_r+0x110>
 8003f3c:	06d1      	lsls	r1, r2, #27
 8003f3e:	bf44      	itt	mi
 8003f40:	2320      	movmi	r3, #32
 8003f42:	f88d 3053 	strbmi.w	r3, [sp, #83]	@ 0x53
 8003f46:	0713      	lsls	r3, r2, #28
 8003f48:	bf44      	itt	mi
 8003f4a:	232b      	movmi	r3, #43	@ 0x2b
 8003f4c:	f88d 3053 	strbmi.w	r3, [sp, #83]	@ 0x53
 8003f50:	f89a 3000 	ldrb.w	r3, [sl]
 8003f54:	2b2a      	cmp	r3, #42	@ 0x2a
 8003f56:	d015      	beq.n	8003f84 <_vfiprintf_r+0x120>
 8003f58:	4654      	mov	r4, sl
 8003f5a:	2000      	movs	r0, #0
 8003f5c:	f04f 0c0a 	mov.w	ip, #10
 8003f60:	9a07      	ldr	r2, [sp, #28]
 8003f62:	4621      	mov	r1, r4
 8003f64:	f811 3b01 	ldrb.w	r3, [r1], #1
 8003f68:	3b30      	subs	r3, #48	@ 0x30
 8003f6a:	2b09      	cmp	r3, #9
 8003f6c:	d94b      	bls.n	8004006 <_vfiprintf_r+0x1a2>
 8003f6e:	b1b0      	cbz	r0, 8003f9e <_vfiprintf_r+0x13a>
 8003f70:	9207      	str	r2, [sp, #28]
 8003f72:	e014      	b.n	8003f9e <_vfiprintf_r+0x13a>
 8003f74:	eba0 0308 	sub.w	r3, r0, r8
 8003f78:	fa09 f303 	lsl.w	r3, r9, r3
 8003f7c:	4313      	orrs	r3, r2
 8003f7e:	46a2      	mov	sl, r4
 8003f80:	9304      	str	r3, [sp, #16]
 8003f82:	e7d2      	b.n	8003f2a <_vfiprintf_r+0xc6>
 8003f84:	9b03      	ldr	r3, [sp, #12]
 8003f86:	1d19      	adds	r1, r3, #4
 8003f88:	681b      	ldr	r3, [r3, #0]
 8003f8a:	9103      	str	r1, [sp, #12]
 8003f8c:	2b00      	cmp	r3, #0
 8003f8e:	bfbb      	ittet	lt
 8003f90:	425b      	neglt	r3, r3
 8003f92:	f042 0202 	orrlt.w	r2, r2, #2
 8003f96:	9307      	strge	r3, [sp, #28]
 8003f98:	9307      	strlt	r3, [sp, #28]
 8003f9a:	bfb8      	it	lt
 8003f9c:	9204      	strlt	r2, [sp, #16]
 8003f9e:	7823      	ldrb	r3, [r4, #0]
 8003fa0:	2b2e      	cmp	r3, #46	@ 0x2e
 8003fa2:	d10a      	bne.n	8003fba <_vfiprintf_r+0x156>
 8003fa4:	7863      	ldrb	r3, [r4, #1]
 8003fa6:	2b2a      	cmp	r3, #42	@ 0x2a
 8003fa8:	d132      	bne.n	8004010 <_vfiprintf_r+0x1ac>
 8003faa:	9b03      	ldr	r3, [sp, #12]
 8003fac:	3402      	adds	r4, #2
 8003fae:	1d1a      	adds	r2, r3, #4
 8003fb0:	681b      	ldr	r3, [r3, #0]
 8003fb2:	9203      	str	r2, [sp, #12]
 8003fb4:	ea43 73e3 	orr.w	r3, r3, r3, asr #31
 8003fb8:	9305      	str	r3, [sp, #20]
 8003fba:	f8df a0c8 	ldr.w	sl, [pc, #200]	@ 8004084 <_vfiprintf_r+0x220>
 8003fbe:	2203      	movs	r2, #3
 8003fc0:	4650      	mov	r0, sl
 8003fc2:	7821      	ldrb	r1, [r4, #0]
 8003fc4:	f7fe fb19 	bl	80025fa <memchr>
 8003fc8:	b138      	cbz	r0, 8003fda <_vfiprintf_r+0x176>
 8003fca:	2240      	movs	r2, #64	@ 0x40
 8003fcc:	9b04      	ldr	r3, [sp, #16]
 8003fce:	eba0 000a 	sub.w	r0, r0, sl
 8003fd2:	4082      	lsls	r2, r0
 8003fd4:	4313      	orrs	r3, r2
 8003fd6:	3401      	adds	r4, #1
 8003fd8:	9304      	str	r3, [sp, #16]
 8003fda:	f814 1b01 	ldrb.w	r1, [r4], #1
 8003fde:	2206      	movs	r2, #6
 8003fe0:	4829      	ldr	r0, [pc, #164]	@ (8004088 <_vfiprintf_r+0x224>)
 8003fe2:	f88d 1028 	strb.w	r1, [sp, #40]	@ 0x28
 8003fe6:	f7fe fb08 	bl	80025fa <memchr>
 8003fea:	2800      	cmp	r0, #0
 8003fec:	d03f      	beq.n	800406e <_vfiprintf_r+0x20a>
 8003fee:	4b27      	ldr	r3, [pc, #156]	@ (800408c <_vfiprintf_r+0x228>)
 8003ff0:	bb1b      	cbnz	r3, 800403a <_vfiprintf_r+0x1d6>
 8003ff2:	9b03      	ldr	r3, [sp, #12]
 8003ff4:	3307      	adds	r3, #7
 8003ff6:	f023 0307 	bic.w	r3, r3, #7
 8003ffa:	3308      	adds	r3, #8
 8003ffc:	9303      	str	r3, [sp, #12]
 8003ffe:	9b09      	ldr	r3, [sp, #36]	@ 0x24
 8004000:	443b      	add	r3, r7
 8004002:	9309      	str	r3, [sp, #36]	@ 0x24
 8004004:	e76a      	b.n	8003edc <_vfiprintf_r+0x78>
 8004006:	460c      	mov	r4, r1
 8004008:	2001      	movs	r0, #1
 800400a:	fb0c 3202 	mla	r2, ip, r2, r3
 800400e:	e7a8      	b.n	8003f62 <_vfiprintf_r+0xfe>
 8004010:	2300      	movs	r3, #0
 8004012:	f04f 0c0a 	mov.w	ip, #10
 8004016:	4619      	mov	r1, r3
 8004018:	3401      	adds	r4, #1
 800401a:	9305      	str	r3, [sp, #20]
 800401c:	4620      	mov	r0, r4
 800401e:	f810 2b01 	ldrb.w	r2, [r0], #1
 8004022:	3a30      	subs	r2, #48	@ 0x30
 8004024:	2a09      	cmp	r2, #9
 8004026:	d903      	bls.n	8004030 <_vfiprintf_r+0x1cc>
 8004028:	2b00      	cmp	r3, #0
 800402a:	d0c6      	beq.n	8003fba <_vfiprintf_r+0x156>
 800402c:	9105      	str	r1, [sp, #20]
 800402e:	e7c4      	b.n	8003fba <_vfiprintf_r+0x156>
 8004030:	4604      	mov	r4, r0
 8004032:	2301      	movs	r3, #1
 8004034:	fb0c 2101 	mla	r1, ip, r1, r2
 8004038:	e7f0      	b.n	800401c <_vfiprintf_r+0x1b8>
 800403a:	ab03      	add	r3, sp, #12
 800403c:	9300      	str	r3, [sp, #0]
 800403e:	462a      	mov	r2, r5
 8004040:	4630      	mov	r0, r6
 8004042:	4b13      	ldr	r3, [pc, #76]	@ (8004090 <_vfiprintf_r+0x22c>)
 8004044:	a904      	add	r1, sp, #16
 8004046:	f7fd fd95 	bl	8001b74 <_printf_float>
 800404a:	4607      	mov	r7, r0
 800404c:	1c78      	adds	r0, r7, #1
 800404e:	d1d6      	bne.n	8003ffe <_vfiprintf_r+0x19a>
 8004050:	6e6b      	ldr	r3, [r5, #100]	@ 0x64
 8004052:	07d9      	lsls	r1, r3, #31
 8004054:	d405      	bmi.n	8004062 <_vfiprintf_r+0x1fe>
 8004056:	89ab      	ldrh	r3, [r5, #12]
 8004058:	059a      	lsls	r2, r3, #22
 800405a:	d402      	bmi.n	8004062 <_vfiprintf_r+0x1fe>
 800405c:	6da8      	ldr	r0, [r5, #88]	@ 0x58
 800405e:	f7fe facb 	bl	80025f8 <__retarget_lock_release_recursive>
 8004062:	89ab      	ldrh	r3, [r5, #12]
 8004064:	065b      	lsls	r3, r3, #25
 8004066:	f53f af1f 	bmi.w	8003ea8 <_vfiprintf_r+0x44>
 800406a:	9809      	ldr	r0, [sp, #36]	@ 0x24
 800406c:	e71e      	b.n	8003eac <_vfiprintf_r+0x48>
 800406e:	ab03      	add	r3, sp, #12
 8004070:	9300      	str	r3, [sp, #0]
 8004072:	462a      	mov	r2, r5
 8004074:	4630      	mov	r0, r6
 8004076:	4b06      	ldr	r3, [pc, #24]	@ (8004090 <_vfiprintf_r+0x22c>)
 8004078:	a904      	add	r1, sp, #16
 800407a:	f7fe f819 	bl	80020b0 <_printf_i>
 800407e:	e7e4      	b.n	800404a <_vfiprintf_r+0x1e6>
 8004080:	080046c7 	.word	0x080046c7
 8004084:	080046cd 	.word	0x080046cd
 8004088:	080046d1 	.word	0x080046d1
 800408c:	08001b75 	.word	0x08001b75
 8004090:	08003e41 	.word	0x08003e41

08004094 <__swbuf_r>:
 8004094:	b5f8      	push	{r3, r4, r5, r6, r7, lr}
 8004096:	460e      	mov	r6, r1
 8004098:	4614      	mov	r4, r2
 800409a:	4605      	mov	r5, r0
 800409c:	b118      	cbz	r0, 80040a6 <__swbuf_r+0x12>
 800409e:	6a03      	ldr	r3, [r0, #32]
 80040a0:	b90b      	cbnz	r3, 80040a6 <__swbuf_r+0x12>
 80040a2:	f7fe f9b1 	bl	8002408 <__sinit>
 80040a6:	69a3      	ldr	r3, [r4, #24]
 80040a8:	60a3      	str	r3, [r4, #8]
 80040aa:	89a3      	ldrh	r3, [r4, #12]
 80040ac:	071a      	lsls	r2, r3, #28
 80040ae:	d501      	bpl.n	80040b4 <__swbuf_r+0x20>
 80040b0:	6923      	ldr	r3, [r4, #16]
 80040b2:	b943      	cbnz	r3, 80040c6 <__swbuf_r+0x32>
 80040b4:	4621      	mov	r1, r4
 80040b6:	4628      	mov	r0, r5
 80040b8:	f000 f82a 	bl	8004110 <__swsetup_r>
 80040bc:	b118      	cbz	r0, 80040c6 <__swbuf_r+0x32>
 80040be:	f04f 37ff 	mov.w	r7, #4294967295
 80040c2:	4638      	mov	r0, r7
 80040c4:	bdf8      	pop	{r3, r4, r5, r6, r7, pc}
 80040c6:	6823      	ldr	r3, [r4, #0]
 80040c8:	6922      	ldr	r2, [r4, #16]
 80040ca:	b2f6      	uxtb	r6, r6
 80040cc:	1a98      	subs	r0, r3, r2
 80040ce:	6963      	ldr	r3, [r4, #20]
 80040d0:	4637      	mov	r7, r6
 80040d2:	4283      	cmp	r3, r0
 80040d4:	dc05      	bgt.n	80040e2 <__swbuf_r+0x4e>
 80040d6:	4621      	mov	r1, r4
 80040d8:	4628      	mov	r0, r5
 80040da:	f7ff fdeb 	bl	8003cb4 <_fflush_r>
 80040de:	2800      	cmp	r0, #0
 80040e0:	d1ed      	bne.n	80040be <__swbuf_r+0x2a>
 80040e2:	68a3      	ldr	r3, [r4, #8]
 80040e4:	3b01      	subs	r3, #1
 80040e6:	60a3      	str	r3, [r4, #8]
 80040e8:	6823      	ldr	r3, [r4, #0]
 80040ea:	1c5a      	adds	r2, r3, #1
 80040ec:	6022      	str	r2, [r4, #0]
 80040ee:	701e      	strb	r6, [r3, #0]
 80040f0:	6962      	ldr	r2, [r4, #20]
 80040f2:	1c43      	adds	r3, r0, #1
 80040f4:	429a      	cmp	r2, r3
 80040f6:	d004      	beq.n	8004102 <__swbuf_r+0x6e>
 80040f8:	89a3      	ldrh	r3, [r4, #12]
 80040fa:	07db      	lsls	r3, r3, #31
 80040fc:	d5e1      	bpl.n	80040c2 <__swbuf_r+0x2e>
 80040fe:	2e0a      	cmp	r6, #10
 8004100:	d1df      	bne.n	80040c2 <__swbuf_r+0x2e>
 8004102:	4621      	mov	r1, r4
 8004104:	4628      	mov	r0, r5
 8004106:	f7ff fdd5 	bl	8003cb4 <_fflush_r>
 800410a:	2800      	cmp	r0, #0
 800410c:	d0d9      	beq.n	80040c2 <__swbuf_r+0x2e>
 800410e:	e7d6      	b.n	80040be <__swbuf_r+0x2a>

08004110 <__swsetup_r>:
 8004110:	b538      	push	{r3, r4, r5, lr}
 8004112:	4b29      	ldr	r3, [pc, #164]	@ (80041b8 <__swsetup_r+0xa8>)
 8004114:	4605      	mov	r5, r0
 8004116:	6818      	ldr	r0, [r3, #0]
 8004118:	460c      	mov	r4, r1
 800411a:	b118      	cbz	r0, 8004124 <__swsetup_r+0x14>
 800411c:	6a03      	ldr	r3, [r0, #32]
 800411e:	b90b      	cbnz	r3, 8004124 <__swsetup_r+0x14>
 8004120:	f7fe f972 	bl	8002408 <__sinit>
 8004124:	f9b4 300c 	ldrsh.w	r3, [r4, #12]
 8004128:	0719      	lsls	r1, r3, #28
 800412a:	d422      	bmi.n	8004172 <__swsetup_r+0x62>
 800412c:	06da      	lsls	r2, r3, #27
 800412e:	d407      	bmi.n	8004140 <__swsetup_r+0x30>
 8004130:	2209      	movs	r2, #9
 8004132:	602a      	str	r2, [r5, #0]
 8004134:	f043 0340 	orr.w	r3, r3, #64	@ 0x40
 8004138:	f04f 30ff 	mov.w	r0, #4294967295
 800413c:	81a3      	strh	r3, [r4, #12]
 800413e:	e033      	b.n	80041a8 <__swsetup_r+0x98>
 8004140:	0758      	lsls	r0, r3, #29
 8004142:	d512      	bpl.n	800416a <__swsetup_r+0x5a>
 8004144:	6b61      	ldr	r1, [r4, #52]	@ 0x34
 8004146:	b141      	cbz	r1, 800415a <__swsetup_r+0x4a>
 8004148:	f104 0344 	add.w	r3, r4, #68	@ 0x44
 800414c:	4299      	cmp	r1, r3
 800414e:	d002      	beq.n	8004156 <__swsetup_r+0x46>
 8004150:	4628      	mov	r0, r5
 8004152:	f7ff f8b1 	bl	80032b8 <_free_r>
 8004156:	2300      	movs	r3, #0
 8004158:	6363      	str	r3, [r4, #52]	@ 0x34
 800415a:	89a3      	ldrh	r3, [r4, #12]
 800415c:	f023 0324 	bic.w	r3, r3, #36	@ 0x24
 8004160:	81a3      	strh	r3, [r4, #12]
 8004162:	2300      	movs	r3, #0
 8004164:	6063      	str	r3, [r4, #4]
 8004166:	6923      	ldr	r3, [r4, #16]
 8004168:	6023      	str	r3, [r4, #0]
 800416a:	89a3      	ldrh	r3, [r4, #12]
 800416c:	f043 0308 	orr.w	r3, r3, #8
 8004170:	81a3      	strh	r3, [r4, #12]
 8004172:	6923      	ldr	r3, [r4, #16]
 8004174:	b94b      	cbnz	r3, 800418a <__swsetup_r+0x7a>
 8004176:	89a3      	ldrh	r3, [r4, #12]
 8004178:	f403 7320 	and.w	r3, r3, #640	@ 0x280
 800417c:	f5b3 7f00 	cmp.w	r3, #512	@ 0x200
 8004180:	d003      	beq.n	800418a <__swsetup_r+0x7a>
 8004182:	4621      	mov	r1, r4
 8004184:	4628      	mov	r0, r5
 8004186:	f000 f882 	bl	800428e <__smakebuf_r>
 800418a:	f9b4 300c 	ldrsh.w	r3, [r4, #12]
 800418e:	f013 0201 	ands.w	r2, r3, #1
 8004192:	d00a      	beq.n	80041aa <__swsetup_r+0x9a>
 8004194:	2200      	movs	r2, #0
 8004196:	60a2      	str	r2, [r4, #8]
 8004198:	6962      	ldr	r2, [r4, #20]
 800419a:	4252      	negs	r2, r2
 800419c:	61a2      	str	r2, [r4, #24]
 800419e:	6922      	ldr	r2, [r4, #16]
 80041a0:	b942      	cbnz	r2, 80041b4 <__swsetup_r+0xa4>
 80041a2:	f013 0080 	ands.w	r0, r3, #128	@ 0x80
 80041a6:	d1c5      	bne.n	8004134 <__swsetup_r+0x24>
 80041a8:	bd38      	pop	{r3, r4, r5, pc}
 80041aa:	0799      	lsls	r1, r3, #30
 80041ac:	bf58      	it	pl
 80041ae:	6962      	ldrpl	r2, [r4, #20]
 80041b0:	60a2      	str	r2, [r4, #8]
 80041b2:	e7f4      	b.n	800419e <__swsetup_r+0x8e>
 80041b4:	2000      	movs	r0, #0
 80041b6:	e7f7      	b.n	80041a8 <__swsetup_r+0x98>
 80041b8:	2000001c 	.word	0x2000001c

080041bc <_raise_r>:
 80041bc:	291f      	cmp	r1, #31
 80041be:	b538      	push	{r3, r4, r5, lr}
 80041c0:	4605      	mov	r5, r0
 80041c2:	460c      	mov	r4, r1
 80041c4:	d904      	bls.n	80041d0 <_raise_r+0x14>
 80041c6:	2316      	movs	r3, #22
 80041c8:	6003      	str	r3, [r0, #0]
 80041ca:	f04f 30ff 	mov.w	r0, #4294967295
 80041ce:	bd38      	pop	{r3, r4, r5, pc}
 80041d0:	6bc2      	ldr	r2, [r0, #60]	@ 0x3c
 80041d2:	b112      	cbz	r2, 80041da <_raise_r+0x1e>
 80041d4:	f852 3021 	ldr.w	r3, [r2, r1, lsl #2]
 80041d8:	b94b      	cbnz	r3, 80041ee <_raise_r+0x32>
 80041da:	4628      	mov	r0, r5
 80041dc:	f000 f830 	bl	8004240 <_getpid_r>
 80041e0:	4622      	mov	r2, r4
 80041e2:	4601      	mov	r1, r0
 80041e4:	4628      	mov	r0, r5
 80041e6:	e8bd 4038 	ldmia.w	sp!, {r3, r4, r5, lr}
 80041ea:	f000 b817 	b.w	800421c <_kill_r>
 80041ee:	2b01      	cmp	r3, #1
 80041f0:	d00a      	beq.n	8004208 <_raise_r+0x4c>
 80041f2:	1c59      	adds	r1, r3, #1
 80041f4:	d103      	bne.n	80041fe <_raise_r+0x42>
 80041f6:	2316      	movs	r3, #22
 80041f8:	6003      	str	r3, [r0, #0]
 80041fa:	2001      	movs	r0, #1
 80041fc:	e7e7      	b.n	80041ce <_raise_r+0x12>
 80041fe:	2100      	movs	r1, #0
 8004200:	4620      	mov	r0, r4
 8004202:	f842 1024 	str.w	r1, [r2, r4, lsl #2]
 8004206:	4798      	blx	r3
 8004208:	2000      	movs	r0, #0
 800420a:	e7e0      	b.n	80041ce <_raise_r+0x12>

0800420c <raise>:
 800420c:	4b02      	ldr	r3, [pc, #8]	@ (8004218 <raise+0xc>)
 800420e:	4601      	mov	r1, r0
 8004210:	6818      	ldr	r0, [r3, #0]
 8004212:	f7ff bfd3 	b.w	80041bc <_raise_r>
 8004216:	bf00      	nop
 8004218:	2000001c 	.word	0x2000001c

0800421c <_kill_r>:
 800421c:	b538      	push	{r3, r4, r5, lr}
 800421e:	2300      	movs	r3, #0
 8004220:	4d06      	ldr	r5, [pc, #24]	@ (800423c <_kill_r+0x20>)
 8004222:	4604      	mov	r4, r0
 8004224:	4608      	mov	r0, r1
 8004226:	4611      	mov	r1, r2
 8004228:	602b      	str	r3, [r5, #0]
 800422a:	f7fd fb20 	bl	800186e <_kill>
 800422e:	1c43      	adds	r3, r0, #1
 8004230:	d102      	bne.n	8004238 <_kill_r+0x1c>
 8004232:	682b      	ldr	r3, [r5, #0]
 8004234:	b103      	cbz	r3, 8004238 <_kill_r+0x1c>
 8004236:	6023      	str	r3, [r4, #0]
 8004238:	bd38      	pop	{r3, r4, r5, pc}
 800423a:	bf00      	nop
 800423c:	20000350 	.word	0x20000350

08004240 <_getpid_r>:
 8004240:	f7fd bb0e 	b.w	8001860 <_getpid>

08004244 <__swhatbuf_r>:
 8004244:	b570      	push	{r4, r5, r6, lr}
 8004246:	460c      	mov	r4, r1
 8004248:	f9b1 100e 	ldrsh.w	r1, [r1, #14]
 800424c:	4615      	mov	r5, r2
 800424e:	2900      	cmp	r1, #0
 8004250:	461e      	mov	r6, r3
 8004252:	b096      	sub	sp, #88	@ 0x58
 8004254:	da0c      	bge.n	8004270 <__swhatbuf_r+0x2c>
 8004256:	89a3      	ldrh	r3, [r4, #12]
 8004258:	2100      	movs	r1, #0
 800425a:	f013 0f80 	tst.w	r3, #128	@ 0x80
 800425e:	bf14      	ite	ne
 8004260:	2340      	movne	r3, #64	@ 0x40
 8004262:	f44f 6380 	moveq.w	r3, #1024	@ 0x400
 8004266:	2000      	movs	r0, #0
 8004268:	6031      	str	r1, [r6, #0]
 800426a:	602b      	str	r3, [r5, #0]
 800426c:	b016      	add	sp, #88	@ 0x58
 800426e:	bd70      	pop	{r4, r5, r6, pc}
 8004270:	466a      	mov	r2, sp
 8004272:	f000 f849 	bl	8004308 <_fstat_r>
 8004276:	2800      	cmp	r0, #0
 8004278:	dbed      	blt.n	8004256 <__swhatbuf_r+0x12>
 800427a:	9901      	ldr	r1, [sp, #4]
 800427c:	f401 4170 	and.w	r1, r1, #61440	@ 0xf000
 8004280:	f5a1 5300 	sub.w	r3, r1, #8192	@ 0x2000
 8004284:	4259      	negs	r1, r3
 8004286:	4159      	adcs	r1, r3
 8004288:	f44f 6380 	mov.w	r3, #1024	@ 0x400
 800428c:	e7eb      	b.n	8004266 <__swhatbuf_r+0x22>

0800428e <__smakebuf_r>:
 800428e:	898b      	ldrh	r3, [r1, #12]
 8004290:	b5f7      	push	{r0, r1, r2, r4, r5, r6, r7, lr}
 8004292:	079d      	lsls	r5, r3, #30
 8004294:	4606      	mov	r6, r0
 8004296:	460c      	mov	r4, r1
 8004298:	d507      	bpl.n	80042aa <__smakebuf_r+0x1c>
 800429a:	f104 0347 	add.w	r3, r4, #71	@ 0x47
 800429e:	6023      	str	r3, [r4, #0]
 80042a0:	6123      	str	r3, [r4, #16]
 80042a2:	2301      	movs	r3, #1
 80042a4:	6163      	str	r3, [r4, #20]
 80042a6:	b003      	add	sp, #12
 80042a8:	bdf0      	pop	{r4, r5, r6, r7, pc}
 80042aa:	466a      	mov	r2, sp
 80042ac:	ab01      	add	r3, sp, #4
 80042ae:	f7ff ffc9 	bl	8004244 <__swhatbuf_r>
 80042b2:	9f00      	ldr	r7, [sp, #0]
 80042b4:	4605      	mov	r5, r0
 80042b6:	4639      	mov	r1, r7
 80042b8:	4630      	mov	r0, r6
 80042ba:	f7ff f86f 	bl	800339c <_malloc_r>
 80042be:	b948      	cbnz	r0, 80042d4 <__smakebuf_r+0x46>
 80042c0:	f9b4 300c 	ldrsh.w	r3, [r4, #12]
 80042c4:	059a      	lsls	r2, r3, #22
 80042c6:	d4ee      	bmi.n	80042a6 <__smakebuf_r+0x18>
 80042c8:	f023 0303 	bic.w	r3, r3, #3
 80042cc:	f043 0302 	orr.w	r3, r3, #2
 80042d0:	81a3      	strh	r3, [r4, #12]
 80042d2:	e7e2      	b.n	800429a <__smakebuf_r+0xc>
 80042d4:	89a3      	ldrh	r3, [r4, #12]
 80042d6:	e9c4 0704 	strd	r0, r7, [r4, #16]
 80042da:	f043 0380 	orr.w	r3, r3, #128	@ 0x80
 80042de:	81a3      	strh	r3, [r4, #12]
 80042e0:	9b01      	ldr	r3, [sp, #4]
 80042e2:	6020      	str	r0, [r4, #0]
 80042e4:	b15b      	cbz	r3, 80042fe <__smakebuf_r+0x70>
 80042e6:	4630      	mov	r0, r6
 80042e8:	f9b4 100e 	ldrsh.w	r1, [r4, #14]
 80042ec:	f000 f81e 	bl	800432c <_isatty_r>
 80042f0:	b128      	cbz	r0, 80042fe <__smakebuf_r+0x70>
 80042f2:	89a3      	ldrh	r3, [r4, #12]
 80042f4:	f023 0303 	bic.w	r3, r3, #3
 80042f8:	f043 0301 	orr.w	r3, r3, #1
 80042fc:	81a3      	strh	r3, [r4, #12]
 80042fe:	89a3      	ldrh	r3, [r4, #12]
 8004300:	431d      	orrs	r5, r3
 8004302:	81a5      	strh	r5, [r4, #12]
 8004304:	e7cf      	b.n	80042a6 <__smakebuf_r+0x18>
	...

08004308 <_fstat_r>:
 8004308:	b538      	push	{r3, r4, r5, lr}
 800430a:	2300      	movs	r3, #0
 800430c:	4d06      	ldr	r5, [pc, #24]	@ (8004328 <_fstat_r+0x20>)
 800430e:	4604      	mov	r4, r0
 8004310:	4608      	mov	r0, r1
 8004312:	4611      	mov	r1, r2
 8004314:	602b      	str	r3, [r5, #0]
 8004316:	f7fd fb09 	bl	800192c <_fstat>
 800431a:	1c43      	adds	r3, r0, #1
 800431c:	d102      	bne.n	8004324 <_fstat_r+0x1c>
 800431e:	682b      	ldr	r3, [r5, #0]
 8004320:	b103      	cbz	r3, 8004324 <_fstat_r+0x1c>
 8004322:	6023      	str	r3, [r4, #0]
 8004324:	bd38      	pop	{r3, r4, r5, pc}
 8004326:	bf00      	nop
 8004328:	20000350 	.word	0x20000350

0800432c <_isatty_r>:
 800432c:	b538      	push	{r3, r4, r5, lr}
 800432e:	2300      	movs	r3, #0
 8004330:	4d05      	ldr	r5, [pc, #20]	@ (8004348 <_isatty_r+0x1c>)
 8004332:	4604      	mov	r4, r0
 8004334:	4608      	mov	r0, r1
 8004336:	602b      	str	r3, [r5, #0]
 8004338:	f7fd fb07 	bl	800194a <_isatty>
 800433c:	1c43      	adds	r3, r0, #1
 800433e:	d102      	bne.n	8004346 <_isatty_r+0x1a>
 8004340:	682b      	ldr	r3, [r5, #0]
 8004342:	b103      	cbz	r3, 8004346 <_isatty_r+0x1a>
 8004344:	6023      	str	r3, [r4, #0]
 8004346:	bd38      	pop	{r3, r4, r5, pc}
 8004348:	20000350 	.word	0x20000350

0800434c <_init>:
 800434c:	b5f8      	push	{r3, r4, r5, r6, r7, lr}
 800434e:	bf00      	nop
 8004350:	bcf8      	pop	{r3, r4, r5, r6, r7}
 8004352:	bc08      	pop	{r3}
 8004354:	469e      	mov	lr, r3
 8004356:	4770      	bx	lr

08004358 <_fini>:
 8004358:	b5f8      	push	{r3, r4, r5, r6, r7, lr}
 800435a:	bf00      	nop
 800435c:	bcf8      	pop	{r3, r4, r5, r6, r7}
 800435e:	bc08      	pop	{r3}
 8004360:	469e      	mov	lr, r3
 8004362:	4770      	bx	lr
