
Comitas_hackathon_CMSIS.elf:     file format elf32-littlearm

Sections:
Idx Name          Size      VMA       LMA       File off  Algn
  0 .isr_vector   00000130  08000000  08000000  00001000  2**0
                  CONTENTS, ALLOC, LOAD, READONLY, DATA
  1 .text         00004608  08000130  08000130  00001130  2**3
                  CONTENTS, ALLOC, LOAD, READONLY, CODE
  2 .rodata       000003b8  08004738  08004738  00005738  2**3
                  CONTENTS, ALLOC, LOAD, READONLY, DATA
  3 .ARM.extab    00000000  08004af0  08004af0  000061cc  2**0
                  CONTENTS
  4 .ARM          00000008  08004af0  08004af0  00005af0  2**2
                  CONTENTS, ALLOC, LOAD, READONLY, DATA
  5 .preinit_array 00000000  08004af8  08004af8  000061cc  2**0
                  CONTENTS, ALLOC, LOAD, DATA
  6 .init_array   00000004  08004af8  08004af8  00005af8  2**2
                  CONTENTS, ALLOC, LOAD, READONLY, DATA
  7 .fini_array   00000004  08004afc  08004afc  00005afc  2**2
                  CONTENTS, ALLOC, LOAD, READONLY, DATA
  8 .data         000001cc  20000000  08004b00  00006000  2**2
                  CONTENTS, ALLOC, LOAD, DATA
  9 .bss          0000039c  200001cc  08004ccc  000061cc  2**2
                  ALLOC
 10 ._user_heap_stack 00000600  20000568  08004ccc  00006568  2**0
                  ALLOC
 11 .ARM.attributes 00000029  00000000  00000000  000061cc  2**0
                  CONTENTS, READONLY
 12 .debug_info   00002d1d  00000000  00000000  000061f5  2**0
                  CONTENTS, READONLY, DEBUGGING, OCTETS
 13 .debug_abbrev 00000e1d  00000000  00000000  00008f12  2**0
                  CONTENTS, READONLY, DEBUGGING, OCTETS
 14 .debug_aranges 00000308  00000000  00000000  00009d30  2**3
                  CONTENTS, READONLY, DEBUGGING, OCTETS
 15 .debug_rnglists 0000021e  00000000  00000000  0000a038  2**0
                  CONTENTS, READONLY, DEBUGGING, OCTETS
 16 .debug_macro  000122b5  00000000  00000000  0000a256  2**0
                  CONTENTS, READONLY, DEBUGGING, OCTETS
 17 .debug_line   00004825  00000000  00000000  0001c50b  2**0
                  CONTENTS, READONLY, DEBUGGING, OCTETS
 18 .debug_str    00059892  00000000  00000000  00020d30  2**0
                  CONTENTS, READONLY, DEBUGGING, OCTETS
 19 .comment      00000043  00000000  00000000  0007a5c2  2**0
                  CONTENTS, READONLY
 20 .debug_frame  00001a94  00000000  00000000  0007a608  2**2
                  CONTENTS, READONLY, DEBUGGING, OCTETS
 21 .debug_line_str 0000007c  00000000  00000000  0007c09c  2**0
                  CONTENTS, READONLY, DEBUGGING, OCTETS

Disassembly of section .text:

08000130 <__do_global_dtors_aux>:
 8000130:	b510      	push	{r4, lr}
 8000132:	4c05      	ldr	r4, [pc, #20]	@ (8000148 <__do_global_dtors_aux+0x18>)
 8000134:	7823      	ldrb	r3, [r4, #0]
 8000136:	b933      	cbnz	r3, 8000146 <__do_global_dtors_aux+0x16>
 8000138:	4b04      	ldr	r3, [pc, #16]	@ (800014c <__do_global_dtors_aux+0x1c>)
 800013a:	b113      	cbz	r3, 8000142 <__do_global_dtors_aux+0x12>
 800013c:	4804      	ldr	r0, [pc, #16]	@ (8000150 <__do_global_dtors_aux+0x20>)
 800013e:	f3af 8000 	nop.w
 8000142:	2301      	movs	r3, #1
 8000144:	7023      	strb	r3, [r4, #0]
 8000146:	bd10      	pop	{r4, pc}
 8000148:	200001cc 	.word	0x200001cc
 800014c:	00000000 	.word	0x00000000
 8000150:	08004720 	.word	0x08004720

08000154 <frame_dummy>:
 8000154:	b508      	push	{r3, lr}
 8000156:	4b03      	ldr	r3, [pc, #12]	@ (8000164 <frame_dummy+0x10>)
 8000158:	b11b      	cbz	r3, 8000162 <frame_dummy+0xe>
 800015a:	4903      	ldr	r1, [pc, #12]	@ (8000168 <frame_dummy+0x14>)
 800015c:	4803      	ldr	r0, [pc, #12]	@ (800016c <frame_dummy+0x18>)
 800015e:	f3af 8000 	nop.w
 8000162:	bd08      	pop	{r3, pc}
 8000164:	00000000 	.word	0x00000000
 8000168:	200001d0 	.word	0x200001d0
 800016c:	08004720 	.word	0x08004720

08000170 <strlen>:
 8000170:	4603      	mov	r3, r0
 8000172:	f813 2b01 	ldrb.w	r2, [r3], #1
 8000176:	2a00      	cmp	r2, #0
 8000178:	d1fb      	bne.n	8000172 <strlen+0x2>
 800017a:	1a18      	subs	r0, r3, r0
 800017c:	3801      	subs	r0, #1
 800017e:	4770      	bx	lr

08000180 <__aeabi_fmul>:
 8000180:	f04f 0cff 	mov.w	ip, #255	@ 0xff
 8000184:	ea1c 52d0 	ands.w	r2, ip, r0, lsr #23
 8000188:	bf1e      	ittt	ne
 800018a:	ea1c 53d1 	andsne.w	r3, ip, r1, lsr #23
 800018e:	ea92 0f0c 	teqne	r2, ip
 8000192:	ea93 0f0c 	teqne	r3, ip
 8000196:	d06f      	beq.n	8000278 <__aeabi_fmul+0xf8>
 8000198:	441a      	add	r2, r3
 800019a:	ea80 0c01 	eor.w	ip, r0, r1
 800019e:	0240      	lsls	r0, r0, #9
 80001a0:	bf18      	it	ne
 80001a2:	ea5f 2141 	movsne.w	r1, r1, lsl #9
 80001a6:	d01e      	beq.n	80001e6 <__aeabi_fmul+0x66>
 80001a8:	f04f 6300 	mov.w	r3, #134217728	@ 0x8000000
 80001ac:	ea43 1050 	orr.w	r0, r3, r0, lsr #5
 80001b0:	ea43 1151 	orr.w	r1, r3, r1, lsr #5
 80001b4:	fba0 3101 	umull	r3, r1, r0, r1
 80001b8:	f00c 4000 	and.w	r0, ip, #2147483648	@ 0x80000000
 80001bc:	f5b1 0f00 	cmp.w	r1, #8388608	@ 0x800000
 80001c0:	bf3e      	ittt	cc
 80001c2:	0049      	lslcc	r1, r1, #1
 80001c4:	ea41 71d3 	orrcc.w	r1, r1, r3, lsr #31
 80001c8:	005b      	lslcc	r3, r3, #1
 80001ca:	ea40 0001 	orr.w	r0, r0, r1
 80001ce:	f162 027f 	sbc.w	r2, r2, #127	@ 0x7f
 80001d2:	2afd      	cmp	r2, #253	@ 0xfd
 80001d4:	d81d      	bhi.n	8000212 <__aeabi_fmul+0x92>
 80001d6:	f1b3 4f00 	cmp.w	r3, #2147483648	@ 0x80000000
 80001da:	eb40 50c2 	adc.w	r0, r0, r2, lsl #23
 80001de:	bf08      	it	eq
 80001e0:	f020 0001 	biceq.w	r0, r0, #1
 80001e4:	4770      	bx	lr
 80001e6:	f090 0f00 	teq	r0, #0
 80001ea:	f00c 4c00 	and.w	ip, ip, #2147483648	@ 0x80000000
 80001ee:	bf08      	it	eq
 80001f0:	0249      	lsleq	r1, r1, #9
 80001f2:	ea4c 2050 	orr.w	r0, ip, r0, lsr #9
 80001f6:	ea40 2051 	orr.w	r0, r0, r1, lsr #9
 80001fa:	3a7f      	subs	r2, #127	@ 0x7f
 80001fc:	bfc2      	ittt	gt
 80001fe:	f1d2 03ff 	rsbsgt	r3, r2, #255	@ 0xff
 8000202:	ea40 50c2 	orrgt.w	r0, r0, r2, lsl #23
 8000206:	4770      	bxgt	lr
 8000208:	f440 0000 	orr.w	r0, r0, #8388608	@ 0x800000
 800020c:	f04f 0300 	mov.w	r3, #0
 8000210:	3a01      	subs	r2, #1
 8000212:	dc5d      	bgt.n	80002d0 <__aeabi_fmul+0x150>
 8000214:	f112 0f19 	cmn.w	r2, #25
 8000218:	bfdc      	itt	le
 800021a:	f000 4000 	andle.w	r0, r0, #2147483648	@ 0x80000000
 800021e:	4770      	bxle	lr
 8000220:	f1c2 0200 	rsb	r2, r2, #0
 8000224:	0041      	lsls	r1, r0, #1
 8000226:	fa21 f102 	lsr.w	r1, r1, r2
 800022a:	f1c2 0220 	rsb	r2, r2, #32
 800022e:	fa00 fc02 	lsl.w	ip, r0, r2
 8000232:	ea5f 0031 	movs.w	r0, r1, rrx
 8000236:	f140 0000 	adc.w	r0, r0, #0
 800023a:	ea53 034c 	orrs.w	r3, r3, ip, lsl #1
 800023e:	bf08      	it	eq
 8000240:	ea20 70dc 	biceq.w	r0, r0, ip, lsr #31
 8000244:	4770      	bx	lr
 8000246:	f092 0f00 	teq	r2, #0
 800024a:	f000 4c00 	and.w	ip, r0, #2147483648	@ 0x80000000
 800024e:	bf02      	ittt	eq
 8000250:	0040      	lsleq	r0, r0, #1
 8000252:	f410 0f00 	tsteq.w	r0, #8388608	@ 0x800000
 8000256:	3a01      	subeq	r2, #1
 8000258:	d0f9      	beq.n	800024e <__aeabi_fmul+0xce>
 800025a:	ea40 000c 	orr.w	r0, r0, ip
 800025e:	f093 0f00 	teq	r3, #0
 8000262:	f001 4c00 	and.w	ip, r1, #2147483648	@ 0x80000000
 8000266:	bf02      	ittt	eq
 8000268:	0049      	lsleq	r1, r1, #1
 800026a:	f411 0f00 	tsteq.w	r1, #8388608	@ 0x800000
 800026e:	3b01      	subeq	r3, #1
 8000270:	d0f9      	beq.n	8000266 <__aeabi_fmul+0xe6>
 8000272:	ea41 010c 	orr.w	r1, r1, ip
 8000276:	e78f      	b.n	8000198 <__aeabi_fmul+0x18>
 8000278:	ea0c 53d1 	and.w	r3, ip, r1, lsr #23
 800027c:	ea92 0f0c 	teq	r2, ip
 8000280:	bf18      	it	ne
 8000282:	ea93 0f0c 	teqne	r3, ip
 8000286:	d00a      	beq.n	800029e <__aeabi_fmul+0x11e>
 8000288:	f030 4c00 	bics.w	ip, r0, #2147483648	@ 0x80000000
 800028c:	bf18      	it	ne
 800028e:	f031 4c00 	bicsne.w	ip, r1, #2147483648	@ 0x80000000
 8000292:	d1d8      	bne.n	8000246 <__aeabi_fmul+0xc6>
 8000294:	ea80 0001 	eor.w	r0, r0, r1
 8000298:	f000 4000 	and.w	r0, r0, #2147483648	@ 0x80000000
 800029c:	4770      	bx	lr
 800029e:	f090 0f00 	teq	r0, #0
 80002a2:	bf17      	itett	ne
 80002a4:	f090 4f00 	teqne	r0, #2147483648	@ 0x80000000
 80002a8:	4608      	moveq	r0, r1
 80002aa:	f091 0f00 	teqne	r1, #0
 80002ae:	f091 4f00 	teqne	r1, #2147483648	@ 0x80000000
 80002b2:	d014      	beq.n	80002de <__aeabi_fmul+0x15e>
 80002b4:	ea92 0f0c 	teq	r2, ip
 80002b8:	d101      	bne.n	80002be <__aeabi_fmul+0x13e>
 80002ba:	0242      	lsls	r2, r0, #9
 80002bc:	d10f      	bne.n	80002de <__aeabi_fmul+0x15e>
 80002be:	ea93 0f0c 	teq	r3, ip
 80002c2:	d103      	bne.n	80002cc <__aeabi_fmul+0x14c>
 80002c4:	024b      	lsls	r3, r1, #9
 80002c6:	bf18      	it	ne
 80002c8:	4608      	movne	r0, r1
 80002ca:	d108      	bne.n	80002de <__aeabi_fmul+0x15e>
 80002cc:	ea80 0001 	eor.w	r0, r0, r1
 80002d0:	f000 4000 	and.w	r0, r0, #2147483648	@ 0x80000000
 80002d4:	f040 40fe 	orr.w	r0, r0, #2130706432	@ 0x7f000000
 80002d8:	f440 0000 	orr.w	r0, r0, #8388608	@ 0x800000
 80002dc:	4770      	bx	lr
 80002de:	f040 40fe 	orr.w	r0, r0, #2130706432	@ 0x7f000000
 80002e2:	f440 0040 	orr.w	r0, r0, #12582912	@ 0xc00000
 80002e6:	4770      	bx	lr

080002e8 <__aeabi_drsub>:
 80002e8:	f081 4100 	eor.w	r1, r1, #2147483648	@ 0x80000000
 80002ec:	e002      	b.n	80002f4 <__adddf3>
 80002ee:	bf00      	nop

080002f0 <__aeabi_dsub>:
 80002f0:	f083 4300 	eor.w	r3, r3, #2147483648	@ 0x80000000

080002f4 <__adddf3>:
 80002f4:	b530      	push	{r4, r5, lr}
 80002f6:	ea4f 0441 	mov.w	r4, r1, lsl #1
 80002fa:	ea4f 0543 	mov.w	r5, r3, lsl #1
 80002fe:	ea94 0f05 	teq	r4, r5
 8000302:	bf08      	it	eq
 8000304:	ea90 0f02 	teqeq	r0, r2
 8000308:	bf1f      	itttt	ne
 800030a:	ea54 0c00 	orrsne.w	ip, r4, r0
 800030e:	ea55 0c02 	orrsne.w	ip, r5, r2
 8000312:	ea7f 5c64 	mvnsne.w	ip, r4, asr #21
 8000316:	ea7f 5c65 	mvnsne.w	ip, r5, asr #21
 800031a:	f000 80e2 	beq.w	80004e2 <__adddf3+0x1ee>
 800031e:	ea4f 5454 	mov.w	r4, r4, lsr #21
 8000322:	ebd4 5555 	rsbs	r5, r4, r5, lsr #21
 8000326:	bfb8      	it	lt
 8000328:	426d      	neglt	r5, r5
 800032a:	dd0c      	ble.n	8000346 <__adddf3+0x52>
 800032c:	442c      	add	r4, r5
 800032e:	ea80 0202 	eor.w	r2, r0, r2
 8000332:	ea81 0303 	eor.w	r3, r1, r3
 8000336:	ea82 0000 	eor.w	r0, r2, r0
 800033a:	ea83 0101 	eor.w	r1, r3, r1
 800033e:	ea80 0202 	eor.w	r2, r0, r2
 8000342:	ea81 0303 	eor.w	r3, r1, r3
 8000346:	2d36      	cmp	r5, #54	@ 0x36
 8000348:	bf88      	it	hi
 800034a:	bd30      	pophi	{r4, r5, pc}
 800034c:	f011 4f00 	tst.w	r1, #2147483648	@ 0x80000000
 8000350:	ea4f 3101 	mov.w	r1, r1, lsl #12
 8000354:	f44f 1c80 	mov.w	ip, #1048576	@ 0x100000
 8000358:	ea4c 3111 	orr.w	r1, ip, r1, lsr #12
 800035c:	d002      	beq.n	8000364 <__adddf3+0x70>
 800035e:	4240      	negs	r0, r0
 8000360:	eb61 0141 	sbc.w	r1, r1, r1, lsl #1
 8000364:	f013 4f00 	tst.w	r3, #2147483648	@ 0x80000000
 8000368:	ea4f 3303 	mov.w	r3, r3, lsl #12
 800036c:	ea4c 3313 	orr.w	r3, ip, r3, lsr #12
 8000370:	d002      	beq.n	8000378 <__adddf3+0x84>
 8000372:	4252      	negs	r2, r2
 8000374:	eb63 0343 	sbc.w	r3, r3, r3, lsl #1
 8000378:	ea94 0f05 	teq	r4, r5
 800037c:	f000 80a7 	beq.w	80004ce <__adddf3+0x1da>
 8000380:	f1a4 0401 	sub.w	r4, r4, #1
 8000384:	f1d5 0e20 	rsbs	lr, r5, #32
 8000388:	db0d      	blt.n	80003a6 <__adddf3+0xb2>
 800038a:	fa02 fc0e 	lsl.w	ip, r2, lr
 800038e:	fa22 f205 	lsr.w	r2, r2, r5
 8000392:	1880      	adds	r0, r0, r2
 8000394:	f141 0100 	adc.w	r1, r1, #0
 8000398:	fa03 f20e 	lsl.w	r2, r3, lr
 800039c:	1880      	adds	r0, r0, r2
 800039e:	fa43 f305 	asr.w	r3, r3, r5
 80003a2:	4159      	adcs	r1, r3
 80003a4:	e00e      	b.n	80003c4 <__adddf3+0xd0>
 80003a6:	f1a5 0520 	sub.w	r5, r5, #32
 80003aa:	f10e 0e20 	add.w	lr, lr, #32
 80003ae:	2a01      	cmp	r2, #1
 80003b0:	fa03 fc0e 	lsl.w	ip, r3, lr
 80003b4:	bf28      	it	cs
 80003b6:	f04c 0c02 	orrcs.w	ip, ip, #2
 80003ba:	fa43 f305 	asr.w	r3, r3, r5
 80003be:	18c0      	adds	r0, r0, r3
 80003c0:	eb51 71e3 	adcs.w	r1, r1, r3, asr #31
 80003c4:	f001 4500 	and.w	r5, r1, #2147483648	@ 0x80000000
 80003c8:	d507      	bpl.n	80003da <__adddf3+0xe6>
 80003ca:	f04f 0e00 	mov.w	lr, #0
 80003ce:	f1dc 0c00 	rsbs	ip, ip, #0
 80003d2:	eb7e 0000 	sbcs.w	r0, lr, r0
 80003d6:	eb6e 0101 	sbc.w	r1, lr, r1
 80003da:	f5b1 1f80 	cmp.w	r1, #1048576	@ 0x100000
 80003de:	d31b      	bcc.n	8000418 <__adddf3+0x124>
 80003e0:	f5b1 1f00 	cmp.w	r1, #2097152	@ 0x200000
 80003e4:	d30c      	bcc.n	8000400 <__adddf3+0x10c>
 80003e6:	0849      	lsrs	r1, r1, #1
 80003e8:	ea5f 0030 	movs.w	r0, r0, rrx
 80003ec:	ea4f 0c3c 	mov.w	ip, ip, rrx
 80003f0:	f104 0401 	add.w	r4, r4, #1
 80003f4:	ea4f 5244 	mov.w	r2, r4, lsl #21
 80003f8:	f512 0f80 	cmn.w	r2, #4194304	@ 0x400000
 80003fc:	f080 809a 	bcs.w	8000534 <__adddf3+0x240>
 8000400:	f1bc 4f00 	cmp.w	ip, #2147483648	@ 0x80000000
 8000404:	bf08      	it	eq
 8000406:	ea5f 0c50 	movseq.w	ip, r0, lsr #1
 800040a:	f150 0000 	adcs.w	r0, r0, #0
 800040e:	eb41 5104 	adc.w	r1, r1, r4, lsl #20
 8000412:	ea41 0105 	orr.w	r1, r1, r5
 8000416:	bd30      	pop	{r4, r5, pc}
 8000418:	ea5f 0c4c 	movs.w	ip, ip, lsl #1
 800041c:	4140      	adcs	r0, r0
 800041e:	eb41 0101 	adc.w	r1, r1, r1
 8000422:	3c01      	subs	r4, #1
 8000424:	bf28      	it	cs
 8000426:	f5b1 1f80 	cmpcs.w	r1, #1048576	@ 0x100000
 800042a:	d2e9      	bcs.n	8000400 <__adddf3+0x10c>
 800042c:	f091 0f00 	teq	r1, #0
 8000430:	bf04      	itt	eq
 8000432:	4601      	moveq	r1, r0
 8000434:	2000      	moveq	r0, #0
 8000436:	fab1 f381 	clz	r3, r1
 800043a:	bf08      	it	eq
 800043c:	3320      	addeq	r3, #32
 800043e:	f1a3 030b 	sub.w	r3, r3, #11
 8000442:	f1b3 0220 	subs.w	r2, r3, #32
 8000446:	da0c      	bge.n	8000462 <__adddf3+0x16e>
 8000448:	320c      	adds	r2, #12
 800044a:	dd08      	ble.n	800045e <__adddf3+0x16a>
 800044c:	f102 0c14 	add.w	ip, r2, #20
 8000450:	f1c2 020c 	rsb	r2, r2, #12
 8000454:	fa01 f00c 	lsl.w	r0, r1, ip
 8000458:	fa21 f102 	lsr.w	r1, r1, r2
 800045c:	e00c      	b.n	8000478 <__adddf3+0x184>
 800045e:	f102 0214 	add.w	r2, r2, #20
 8000462:	bfd8      	it	le
 8000464:	f1c2 0c20 	rsble	ip, r2, #32
 8000468:	fa01 f102 	lsl.w	r1, r1, r2
 800046c:	fa20 fc0c 	lsr.w	ip, r0, ip
 8000470:	bfdc      	itt	le
 8000472:	ea41 010c 	orrle.w	r1, r1, ip
 8000476:	4090      	lslle	r0, r2
 8000478:	1ae4      	subs	r4, r4, r3
 800047a:	bfa2      	ittt	ge
 800047c:	eb01 5104 	addge.w	r1, r1, r4, lsl #20
 8000480:	4329      	orrge	r1, r5
 8000482:	bd30      	popge	{r4, r5, pc}
 8000484:	ea6f 0404 	mvn.w	r4, r4
 8000488:	3c1f      	subs	r4, #31
 800048a:	da1c      	bge.n	80004c6 <__adddf3+0x1d2>
 800048c:	340c      	adds	r4, #12
 800048e:	dc0e      	bgt.n	80004ae <__adddf3+0x1ba>
 8000490:	f104 0414 	add.w	r4, r4, #20
 8000494:	f1c4 0220 	rsb	r2, r4, #32
 8000498:	fa20 f004 	lsr.w	r0, r0, r4
 800049c:	fa01 f302 	lsl.w	r3, r1, r2
 80004a0:	ea40 0003 	orr.w	r0, r0, r3
 80004a4:	fa21 f304 	lsr.w	r3, r1, r4
 80004a8:	ea45 0103 	orr.w	r1, r5, r3
 80004ac:	bd30      	pop	{r4, r5, pc}
 80004ae:	f1c4 040c 	rsb	r4, r4, #12
 80004b2:	f1c4 0220 	rsb	r2, r4, #32
 80004b6:	fa20 f002 	lsr.w	r0, r0, r2
 80004ba:	fa01 f304 	lsl.w	r3, r1, r4
 80004be:	ea40 0003 	orr.w	r0, r0, r3
 80004c2:	4629      	mov	r1, r5
 80004c4:	bd30      	pop	{r4, r5, pc}
 80004c6:	fa21 f004 	lsr.w	r0, r1, r4
 80004ca:	4629      	mov	r1, r5
 80004cc:	bd30      	pop	{r4, r5, pc}
 80004ce:	f094 0f00 	teq	r4, #0
 80004d2:	f483 1380 	eor.w	r3, r3, #1048576	@ 0x100000
 80004d6:	bf06      	itte	eq
 80004d8:	f481 1180 	eoreq.w	r1, r1, #1048576	@ 0x100000
 80004dc:	3401      	addeq	r4, #1
 80004de:	3d01      	subne	r5, #1
 80004e0:	e74e      	b.n	8000380 <__adddf3+0x8c>
 80004e2:	ea7f 5c64 	mvns.w	ip, r4, asr #21
 80004e6:	bf18      	it	ne
 80004e8:	ea7f 5c65 	mvnsne.w	ip, r5, asr #21
 80004ec:	d029      	beq.n	8000542 <__adddf3+0x24e>
 80004ee:	ea94 0f05 	teq	r4, r5
 80004f2:	bf08      	it	eq
 80004f4:	ea90 0f02 	teqeq	r0, r2
 80004f8:	d005      	beq.n	8000506 <__adddf3+0x212>
 80004fa:	ea54 0c00 	orrs.w	ip, r4, r0
 80004fe:	bf04      	itt	eq
 8000500:	4619      	moveq	r1, r3
 8000502:	4610      	moveq	r0, r2
 8000504:	bd30      	pop	{r4, r5, pc}
 8000506:	ea91 0f03 	teq	r1, r3
 800050a:	bf1e      	ittt	ne
 800050c:	2100      	movne	r1, #0
 800050e:	2000      	movne	r0, #0
 8000510:	bd30      	popne	{r4, r5, pc}
 8000512:	ea5f 5c54 	movs.w	ip, r4, lsr #21
 8000516:	d105      	bne.n	8000524 <__adddf3+0x230>
 8000518:	0040      	lsls	r0, r0, #1
 800051a:	4149      	adcs	r1, r1
 800051c:	bf28      	it	cs
 800051e:	f041 4100 	orrcs.w	r1, r1, #2147483648	@ 0x80000000
 8000522:	bd30      	pop	{r4, r5, pc}
 8000524:	f514 0480 	adds.w	r4, r4, #4194304	@ 0x400000
 8000528:	bf3c      	itt	cc
 800052a:	f501 1180 	addcc.w	r1, r1, #1048576	@ 0x100000
 800052e:	bd30      	popcc	{r4, r5, pc}
 8000530:	f001 4500 	and.w	r5, r1, #2147483648	@ 0x80000000
 8000534:	f045 41fe 	orr.w	r1, r5, #2130706432	@ 0x7f000000
 8000538:	f441 0170 	orr.w	r1, r1, #15728640	@ 0xf00000
 800053c:	f04f 0000 	mov.w	r0, #0
 8000540:	bd30      	pop	{r4, r5, pc}
 8000542:	ea7f 5c64 	mvns.w	ip, r4, asr #21
 8000546:	bf1a      	itte	ne
 8000548:	4619      	movne	r1, r3
 800054a:	4610      	movne	r0, r2
 800054c:	ea7f 5c65 	mvnseq.w	ip, r5, asr #21
 8000550:	bf1c      	itt	ne
 8000552:	460b      	movne	r3, r1
 8000554:	4602      	movne	r2, r0
 8000556:	ea50 3401 	orrs.w	r4, r0, r1, lsl #12
 800055a:	bf06      	itte	eq
 800055c:	ea52 3503 	orrseq.w	r5, r2, r3, lsl #12
 8000560:	ea91 0f03 	teqeq	r1, r3
 8000564:	f441 2100 	orrne.w	r1, r1, #524288	@ 0x80000
 8000568:	bd30      	pop	{r4, r5, pc}
 800056a:	bf00      	nop

0800056c <__aeabi_ui2d>:
 800056c:	f090 0f00 	teq	r0, #0
 8000570:	bf04      	itt	eq
 8000572:	2100      	moveq	r1, #0
 8000574:	4770      	bxeq	lr
 8000576:	b530      	push	{r4, r5, lr}
 8000578:	f44f 6480 	mov.w	r4, #1024	@ 0x400
 800057c:	f104 0432 	add.w	r4, r4, #50	@ 0x32
 8000580:	f04f 0500 	mov.w	r5, #0
 8000584:	f04f 0100 	mov.w	r1, #0
 8000588:	e750      	b.n	800042c <__adddf3+0x138>
 800058a:	bf00      	nop

0800058c <__aeabi_i2d>:
 800058c:	f090 0f00 	teq	r0, #0
 8000590:	bf04      	itt	eq
 8000592:	2100      	moveq	r1, #0
 8000594:	4770      	bxeq	lr
 8000596:	b530      	push	{r4, r5, lr}
 8000598:	f44f 6480 	mov.w	r4, #1024	@ 0x400
 800059c:	f104 0432 	add.w	r4, r4, #50	@ 0x32
 80005a0:	f010 4500 	ands.w	r5, r0, #2147483648	@ 0x80000000
 80005a4:	bf48      	it	mi
 80005a6:	4240      	negmi	r0, r0
 80005a8:	f04f 0100 	mov.w	r1, #0
 80005ac:	e73e      	b.n	800042c <__adddf3+0x138>
 80005ae:	bf00      	nop

080005b0 <__aeabi_f2d>:
 80005b0:	0042      	lsls	r2, r0, #1
 80005b2:	ea4f 01e2 	mov.w	r1, r2, asr #3
 80005b6:	ea4f 0131 	mov.w	r1, r1, rrx
 80005ba:	ea4f 7002 	mov.w	r0, r2, lsl #28
 80005be:	bf1f      	itttt	ne
 80005c0:	f012 437f 	andsne.w	r3, r2, #4278190080	@ 0xff000000
 80005c4:	f093 4f7f 	teqne	r3, #4278190080	@ 0xff000000
 80005c8:	f081 5160 	eorne.w	r1, r1, #939524096	@ 0x38000000
 80005cc:	4770      	bxne	lr
 80005ce:	f032 427f 	bics.w	r2, r2, #4278190080	@ 0xff000000
 80005d2:	bf08      	it	eq
 80005d4:	4770      	bxeq	lr
 80005d6:	f093 4f7f 	teq	r3, #4278190080	@ 0xff000000
 80005da:	bf04      	itt	eq
 80005dc:	f441 2100 	orreq.w	r1, r1, #524288	@ 0x80000
 80005e0:	4770      	bxeq	lr
 80005e2:	b530      	push	{r4, r5, lr}
 80005e4:	f44f 7460 	mov.w	r4, #896	@ 0x380
 80005e8:	f001 4500 	and.w	r5, r1, #2147483648	@ 0x80000000
 80005ec:	f021 4100 	bic.w	r1, r1, #2147483648	@ 0x80000000
 80005f0:	e71c      	b.n	800042c <__adddf3+0x138>
 80005f2:	bf00      	nop

080005f4 <__aeabi_ul2d>:
 80005f4:	ea50 0201 	orrs.w	r2, r0, r1
 80005f8:	bf08      	it	eq
 80005fa:	4770      	bxeq	lr
 80005fc:	b530      	push	{r4, r5, lr}
 80005fe:	f04f 0500 	mov.w	r5, #0
 8000602:	e00a      	b.n	800061a <__aeabi_l2d+0x16>

08000604 <__aeabi_l2d>:
 8000604:	ea50 0201 	orrs.w	r2, r0, r1
 8000608:	bf08      	it	eq
 800060a:	4770      	bxeq	lr
 800060c:	b530      	push	{r4, r5, lr}
 800060e:	f011 4500 	ands.w	r5, r1, #2147483648	@ 0x80000000
 8000612:	d502      	bpl.n	800061a <__aeabi_l2d+0x16>
 8000614:	4240      	negs	r0, r0
 8000616:	eb61 0141 	sbc.w	r1, r1, r1, lsl #1
 800061a:	f44f 6480 	mov.w	r4, #1024	@ 0x400
 800061e:	f104 0432 	add.w	r4, r4, #50	@ 0x32
 8000622:	ea5f 5c91 	movs.w	ip, r1, lsr #22
 8000626:	f43f aed8 	beq.w	80003da <__adddf3+0xe6>
 800062a:	f04f 0203 	mov.w	r2, #3
 800062e:	ea5f 0cdc 	movs.w	ip, ip, lsr #3
 8000632:	bf18      	it	ne
 8000634:	3203      	addne	r2, #3
 8000636:	ea5f 0cdc 	movs.w	ip, ip, lsr #3
 800063a:	bf18      	it	ne
 800063c:	3203      	addne	r2, #3
 800063e:	eb02 02dc 	add.w	r2, r2, ip, lsr #3
 8000642:	f1c2 0320 	rsb	r3, r2, #32
 8000646:	fa00 fc03 	lsl.w	ip, r0, r3
 800064a:	fa20 f002 	lsr.w	r0, r0, r2
 800064e:	fa01 fe03 	lsl.w	lr, r1, r3
 8000652:	ea40 000e 	orr.w	r0, r0, lr
 8000656:	fa21 f102 	lsr.w	r1, r1, r2
 800065a:	4414      	add	r4, r2
 800065c:	e6bd      	b.n	80003da <__adddf3+0xe6>
 800065e:	bf00      	nop

08000660 <__aeabi_dmul>:
 8000660:	b570      	push	{r4, r5, r6, lr}
 8000662:	f04f 0cff 	mov.w	ip, #255	@ 0xff
 8000666:	f44c 6ce0 	orr.w	ip, ip, #1792	@ 0x700
 800066a:	ea1c 5411 	ands.w	r4, ip, r1, lsr #20
 800066e:	bf1d      	ittte	ne
 8000670:	ea1c 5513 	andsne.w	r5, ip, r3, lsr #20
 8000674:	ea94 0f0c 	teqne	r4, ip
 8000678:	ea95 0f0c 	teqne	r5, ip
 800067c:	f000 f8de 	bleq	800083c <__aeabi_dmul+0x1dc>
 8000680:	442c      	add	r4, r5
 8000682:	ea81 0603 	eor.w	r6, r1, r3
 8000686:	ea21 514c 	bic.w	r1, r1, ip, lsl #21
 800068a:	ea23 534c 	bic.w	r3, r3, ip, lsl #21
 800068e:	ea50 3501 	orrs.w	r5, r0, r1, lsl #12
 8000692:	bf18      	it	ne
 8000694:	ea52 3503 	orrsne.w	r5, r2, r3, lsl #12
 8000698:	f441 1180 	orr.w	r1, r1, #1048576	@ 0x100000
 800069c:	f443 1380 	orr.w	r3, r3, #1048576	@ 0x100000
 80006a0:	d038      	beq.n	8000714 <__aeabi_dmul+0xb4>
 80006a2:	fba0 ce02 	umull	ip, lr, r0, r2
 80006a6:	f04f 0500 	mov.w	r5, #0
 80006aa:	fbe1 e502 	umlal	lr, r5, r1, r2
 80006ae:	f006 4200 	and.w	r2, r6, #2147483648	@ 0x80000000
 80006b2:	fbe0 e503 	umlal	lr, r5, r0, r3
 80006b6:	f04f 0600 	mov.w	r6, #0
 80006ba:	fbe1 5603 	umlal	r5, r6, r1, r3
 80006be:	f09c 0f00 	teq	ip, #0
 80006c2:	bf18      	it	ne
 80006c4:	f04e 0e01 	orrne.w	lr, lr, #1
 80006c8:	f1a4 04ff 	sub.w	r4, r4, #255	@ 0xff
 80006cc:	f5b6 7f00 	cmp.w	r6, #512	@ 0x200
 80006d0:	f564 7440 	sbc.w	r4, r4, #768	@ 0x300
 80006d4:	d204      	bcs.n	80006e0 <__aeabi_dmul+0x80>
 80006d6:	ea5f 0e4e 	movs.w	lr, lr, lsl #1
 80006da:	416d      	adcs	r5, r5
 80006dc:	eb46 0606 	adc.w	r6, r6, r6
 80006e0:	ea42 21c6 	orr.w	r1, r2, r6, lsl #11
 80006e4:	ea41 5155 	orr.w	r1, r1, r5, lsr #21
 80006e8:	ea4f 20c5 	mov.w	r0, r5, lsl #11
 80006ec:	ea40 505e 	orr.w	r0, r0, lr, lsr #21
 80006f0:	ea4f 2ece 	mov.w	lr, lr, lsl #11
 80006f4:	f1b4 0cfd 	subs.w	ip, r4, #253	@ 0xfd
 80006f8:	bf88      	it	hi
 80006fa:	f5bc 6fe0 	cmphi.w	ip, #1792	@ 0x700
 80006fe:	d81e      	bhi.n	800073e <__aeabi_dmul+0xde>
 8000700:	f1be 4f00 	cmp.w	lr, #2147483648	@ 0x80000000
 8000704:	bf08      	it	eq
 8000706:	ea5f 0e50 	movseq.w	lr, r0, lsr #1
 800070a:	f150 0000 	adcs.w	r0, r0, #0
 800070e:	eb41 5104 	adc.w	r1, r1, r4, lsl #20
 8000712:	bd70      	pop	{r4, r5, r6, pc}
 8000714:	f006 4600 	and.w	r6, r6, #2147483648	@ 0x80000000
 8000718:	ea46 0101 	orr.w	r1, r6, r1
 800071c:	ea40 0002 	orr.w	r0, r0, r2
 8000720:	ea81 0103 	eor.w	r1, r1, r3
 8000724:	ebb4 045c 	subs.w	r4, r4, ip, lsr #1
 8000728:	bfc2      	ittt	gt
 800072a:	ebd4 050c 	rsbsgt	r5, r4, ip
 800072e:	ea41 5104 	orrgt.w	r1, r1, r4, lsl #20
 8000732:	bd70      	popgt	{r4, r5, r6, pc}
 8000734:	f441 1180 	orr.w	r1, r1, #1048576	@ 0x100000
 8000738:	f04f 0e00 	mov.w	lr, #0
 800073c:	3c01      	subs	r4, #1
 800073e:	f300 80ab 	bgt.w	8000898 <__aeabi_dmul+0x238>
 8000742:	f114 0f36 	cmn.w	r4, #54	@ 0x36
 8000746:	bfde      	ittt	le
 8000748:	2000      	movle	r0, #0
 800074a:	f001 4100 	andle.w	r1, r1, #2147483648	@ 0x80000000
 800074e:	bd70      	pople	{r4, r5, r6, pc}
 8000750:	f1c4 0400 	rsb	r4, r4, #0
 8000754:	3c20      	subs	r4, #32
 8000756:	da35      	bge.n	80007c4 <__aeabi_dmul+0x164>
 8000758:	340c      	adds	r4, #12
 800075a:	dc1b      	bgt.n	8000794 <__aeabi_dmul+0x134>
 800075c:	f104 0414 	add.w	r4, r4, #20
 8000760:	f1c4 0520 	rsb	r5, r4, #32
 8000764:	fa00 f305 	lsl.w	r3, r0, r5
 8000768:	fa20 f004 	lsr.w	r0, r0, r4
 800076c:	fa01 f205 	lsl.w	r2, r1, r5
 8000770:	ea40 0002 	orr.w	r0, r0, r2
 8000774:	f001 4200 	and.w	r2, r1, #2147483648	@ 0x80000000
 8000778:	f021 4100 	bic.w	r1, r1, #2147483648	@ 0x80000000
 800077c:	eb10 70d3 	adds.w	r0, r0, r3, lsr #31
 8000780:	fa21 f604 	lsr.w	r6, r1, r4
 8000784:	eb42 0106 	adc.w	r1, r2, r6
 8000788:	ea5e 0e43 	orrs.w	lr, lr, r3, lsl #1
 800078c:	bf08      	it	eq
 800078e:	ea20 70d3 	biceq.w	r0, r0, r3, lsr #31
 8000792:	bd70      	pop	{r4, r5, r6, pc}
 8000794:	f1c4 040c 	rsb	r4, r4, #12
 8000798:	f1c4 0520 	rsb	r5, r4, #32
 800079c:	fa00 f304 	lsl.w	r3, r0, r4
 80007a0:	fa20 f005 	lsr.w	r0, r0, r5
 80007a4:	fa01 f204 	lsl.w	r2, r1, r4
 80007a8:	ea40 0002 	orr.w	r0, r0, r2
 80007ac:	f001 4100 	and.w	r1, r1, #2147483648	@ 0x80000000
 80007b0:	eb10 70d3 	adds.w	r0, r0, r3, lsr #31
 80007b4:	f141 0100 	adc.w	r1, r1, #0
 80007b8:	ea5e 0e43 	orrs.w	lr, lr, r3, lsl #1
 80007bc:	bf08      	it	eq
 80007be:	ea20 70d3 	biceq.w	r0, r0, r3, lsr #31
 80007c2:	bd70      	pop	{r4, r5, r6, pc}
 80007c4:	f1c4 0520 	rsb	r5, r4, #32
 80007c8:	fa00 f205 	lsl.w	r2, r0, r5
 80007cc:	ea4e 0e02 	orr.w	lr, lr, r2
 80007d0:	fa20 f304 	lsr.w	r3, r0, r4
 80007d4:	fa01 f205 	lsl.w	r2, r1, r5
 80007d8:	ea43 0302 	orr.w	r3, r3, r2
 80007dc:	fa21 f004 	lsr.w	r0, r1, r4
 80007e0:	f001 4100 	and.w	r1, r1, #2147483648	@ 0x80000000
 80007e4:	fa21 f204 	lsr.w	r2, r1, r4
 80007e8:	ea20 0002 	bic.w	r0, r0, r2
 80007ec:	eb00 70d3 	add.w	r0, r0, r3, lsr #31
 80007f0:	ea5e 0e43 	orrs.w	lr, lr, r3, lsl #1
 80007f4:	bf08      	it	eq
 80007f6:	ea20 70d3 	biceq.w	r0, r0, r3, lsr #31
 80007fa:	bd70      	pop	{r4, r5, r6, pc}
 80007fc:	f094 0f00 	teq	r4, #0
 8000800:	d10f      	bne.n	8000822 <__aeabi_dmul+0x1c2>
 8000802:	f001 4600 	and.w	r6, r1, #2147483648	@ 0x80000000
 8000806:	0040      	lsls	r0, r0, #1
 8000808:	eb41 0101 	adc.w	r1, r1, r1
 800080c:	f411 1f80 	tst.w	r1, #1048576	@ 0x100000
 8000810:	bf08      	it	eq
 8000812:	3c01      	subeq	r4, #1
 8000814:	d0f7      	beq.n	8000806 <__aeabi_dmul+0x1a6>
 8000816:	ea41 0106 	orr.w	r1, r1, r6
 800081a:	f095 0f00 	teq	r5, #0
 800081e:	bf18      	it	ne
 8000820:	4770      	bxne	lr
 8000822:	f003 4600 	and.w	r6, r3, #2147483648	@ 0x80000000
 8000826:	0052      	lsls	r2, r2, #1
 8000828:	eb43 0303 	adc.w	r3, r3, r3
 800082c:	f413 1f80 	tst.w	r3, #1048576	@ 0x100000
 8000830:	bf08      	it	eq
 8000832:	3d01      	subeq	r5, #1
 8000834:	d0f7      	beq.n	8000826 <__aeabi_dmul+0x1c6>
 8000836:	ea43 0306 	orr.w	r3, r3, r6
 800083a:	4770      	bx	lr
 800083c:	ea94 0f0c 	teq	r4, ip
 8000840:	ea0c 5513 	and.w	r5, ip, r3, lsr #20
 8000844:	bf18      	it	ne
 8000846:	ea95 0f0c 	teqne	r5, ip
 800084a:	d00c      	beq.n	8000866 <__aeabi_dmul+0x206>
 800084c:	ea50 0641 	orrs.w	r6, r0, r1, lsl #1
 8000850:	bf18      	it	ne
 8000852:	ea52 0643 	orrsne.w	r6, r2, r3, lsl #1
 8000856:	d1d1      	bne.n	80007fc <__aeabi_dmul+0x19c>
 8000858:	ea81 0103 	eor.w	r1, r1, r3
 800085c:	f001 4100 	and.w	r1, r1, #2147483648	@ 0x80000000
 8000860:	f04f 0000 	mov.w	r0, #0
 8000864:	bd70      	pop	{r4, r5, r6, pc}
 8000866:	ea50 0641 	orrs.w	r6, r0, r1, lsl #1
 800086a:	bf06      	itte	eq
 800086c:	4610      	moveq	r0, r2
 800086e:	4619      	moveq	r1, r3
 8000870:	ea52 0643 	orrsne.w	r6, r2, r3, lsl #1
 8000874:	d019      	beq.n	80008aa <__aeabi_dmul+0x24a>
 8000876:	ea94 0f0c 	teq	r4, ip
 800087a:	d102      	bne.n	8000882 <__aeabi_dmul+0x222>
 800087c:	ea50 3601 	orrs.w	r6, r0, r1, lsl #12
 8000880:	d113      	bne.n	80008aa <__aeabi_dmul+0x24a>
 8000882:	ea95 0f0c 	teq	r5, ip
 8000886:	d105      	bne.n	8000894 <__aeabi_dmul+0x234>
 8000888:	ea52 3603 	orrs.w	r6, r2, r3, lsl #12
 800088c:	bf1c      	itt	ne
 800088e:	4610      	movne	r0, r2
 8000890:	4619      	movne	r1, r3
 8000892:	d10a      	bne.n	80008aa <__aeabi_dmul+0x24a>
 8000894:	ea81 0103 	eor.w	r1, r1, r3
 8000898:	f001 4100 	and.w	r1, r1, #2147483648	@ 0x80000000
 800089c:	f041 41fe 	orr.w	r1, r1, #2130706432	@ 0x7f000000
 80008a0:	f441 0170 	orr.w	r1, r1, #15728640	@ 0xf00000
 80008a4:	f04f 0000 	mov.w	r0, #0
 80008a8:	bd70      	pop	{r4, r5, r6, pc}
 80008aa:	f041 41fe 	orr.w	r1, r1, #2130706432	@ 0x7f000000
 80008ae:	f441 0178 	orr.w	r1, r1, #16252928	@ 0xf80000
 80008b2:	bd70      	pop	{r4, r5, r6, pc}

080008b4 <__aeabi_ddiv>:
 80008b4:	b570      	push	{r4, r5, r6, lr}
 80008b6:	f04f 0cff 	mov.w	ip, #255	@ 0xff
 80008ba:	f44c 6ce0 	orr.w	ip, ip, #1792	@ 0x700
 80008be:	ea1c 5411 	ands.w	r4, ip, r1, lsr #20
 80008c2:	bf1d      	ittte	ne
 80008c4:	ea1c 5513 	andsne.w	r5, ip, r3, lsr #20
 80008c8:	ea94 0f0c 	teqne	r4, ip
 80008cc:	ea95 0f0c 	teqne	r5, ip
 80008d0:	f000 f8a7 	bleq	8000a22 <__aeabi_ddiv+0x16e>
 80008d4:	eba4 0405 	sub.w	r4, r4, r5
 80008d8:	ea81 0e03 	eor.w	lr, r1, r3
 80008dc:	ea52 3503 	orrs.w	r5, r2, r3, lsl #12
 80008e0:	ea4f 3101 	mov.w	r1, r1, lsl #12
 80008e4:	f000 8088 	beq.w	80009f8 <__aeabi_ddiv+0x144>
 80008e8:	ea4f 3303 	mov.w	r3, r3, lsl #12
 80008ec:	f04f 5580 	mov.w	r5, #268435456	@ 0x10000000
 80008f0:	ea45 1313 	orr.w	r3, r5, r3, lsr #4
 80008f4:	ea43 6312 	orr.w	r3, r3, r2, lsr #24
 80008f8:	ea4f 2202 	mov.w	r2, r2, lsl #8
 80008fc:	ea45 1511 	orr.w	r5, r5, r1, lsr #4
 8000900:	ea45 6510 	orr.w	r5, r5, r0, lsr #24
 8000904:	ea4f 2600 	mov.w	r6, r0, lsl #8
 8000908:	f00e 4100 	and.w	r1, lr, #2147483648	@ 0x80000000
 800090c:	429d      	cmp	r5, r3
 800090e:	bf08      	it	eq
 8000910:	4296      	cmpeq	r6, r2
 8000912:	f144 04fd 	adc.w	r4, r4, #253	@ 0xfd
 8000916:	f504 7440 	add.w	r4, r4, #768	@ 0x300
 800091a:	d202      	bcs.n	8000922 <__aeabi_ddiv+0x6e>
 800091c:	085b      	lsrs	r3, r3, #1
 800091e:	ea4f 0232 	mov.w	r2, r2, rrx
 8000922:	1ab6      	subs	r6, r6, r2
 8000924:	eb65 0503 	sbc.w	r5, r5, r3
 8000928:	085b      	lsrs	r3, r3, #1
 800092a:	ea4f 0232 	mov.w	r2, r2, rrx
 800092e:	f44f 1080 	mov.w	r0, #1048576	@ 0x100000
 8000932:	f44f 2c00 	mov.w	ip, #524288	@ 0x80000
 8000936:	ebb6 0e02 	subs.w	lr, r6, r2
 800093a:	eb75 0e03 	sbcs.w	lr, r5, r3
 800093e:	bf22      	ittt	cs
 8000940:	1ab6      	subcs	r6, r6, r2
 8000942:	4675      	movcs	r5, lr
 8000944:	ea40 000c 	orrcs.w	r0, r0, ip
 8000948:	085b      	lsrs	r3, r3, #1
 800094a:	ea4f 0232 	mov.w	r2, r2, rrx
 800094e:	ebb6 0e02 	subs.w	lr, r6, r2
 8000952:	eb75 0e03 	sbcs.w	lr, r5, r3
 8000956:	bf22      	ittt	cs
 8000958:	1ab6      	subcs	r6, r6, r2
 800095a:	4675      	movcs	r5, lr
 800095c:	ea40 005c 	orrcs.w	r0, r0, ip, lsr #1
 8000960:	085b      	lsrs	r3, r3, #1
 8000962:	ea4f 0232 	mov.w	r2, r2, rrx
 8000966:	ebb6 0e02 	subs.w	lr, r6, r2
 800096a:	eb75 0e03 	sbcs.w	lr, r5, r3
 800096e:	bf22      	ittt	cs
 8000970:	1ab6      	subcs	r6, r6, r2
 8000972:	4675      	movcs	r5, lr
 8000974:	ea40 009c 	orrcs.w	r0, r0, ip, lsr #2
 8000978:	085b      	lsrs	r3, r3, #1
 800097a:	ea4f 0232 	mov.w	r2, r2, rrx
 800097e:	ebb6 0e02 	subs.w	lr, r6, r2
 8000982:	eb75 0e03 	sbcs.w	lr, r5, r3
 8000986:	bf22      	ittt	cs
 8000988:	1ab6      	subcs	r6, r6, r2
 800098a:	4675      	movcs	r5, lr
 800098c:	ea40 00dc 	orrcs.w	r0, r0, ip, lsr #3
 8000990:	ea55 0e06 	orrs.w	lr, r5, r6
 8000994:	d018      	beq.n	80009c8 <__aeabi_ddiv+0x114>
 8000996:	ea4f 1505 	mov.w	r5, r5, lsl #4
 800099a:	ea45 7516 	orr.w	r5, r5, r6, lsr #28
 800099e:	ea4f 1606 	mov.w	r6, r6, lsl #4
 80009a2:	ea4f 03c3 	mov.w	r3, r3, lsl #3
 80009a6:	ea43 7352 	orr.w	r3, r3, r2, lsr #29
 80009aa:	ea4f 02c2 	mov.w	r2, r2, lsl #3
 80009ae:	ea5f 1c1c 	movs.w	ip, ip, lsr #4
 80009b2:	d1c0      	bne.n	8000936 <__aeabi_ddiv+0x82>
 80009b4:	f411 1f80 	tst.w	r1, #1048576	@ 0x100000
 80009b8:	d10b      	bne.n	80009d2 <__aeabi_ddiv+0x11e>
 80009ba:	ea41 0100 	orr.w	r1, r1, r0
 80009be:	f04f 0000 	mov.w	r0, #0
 80009c2:	f04f 4c00 	mov.w	ip, #2147483648	@ 0x80000000
 80009c6:	e7b6      	b.n	8000936 <__aeabi_ddiv+0x82>
 80009c8:	f411 1f80 	tst.w	r1, #1048576	@ 0x100000
 80009cc:	bf04      	itt	eq
 80009ce:	4301      	orreq	r1, r0
 80009d0:	2000      	moveq	r0, #0
 80009d2:	f1b4 0cfd 	subs.w	ip, r4, #253	@ 0xfd
 80009d6:	bf88      	it	hi
 80009d8:	f5bc 6fe0 	cmphi.w	ip, #1792	@ 0x700
 80009dc:	f63f aeaf 	bhi.w	800073e <__aeabi_dmul+0xde>
 80009e0:	ebb5 0c03 	subs.w	ip, r5, r3
 80009e4:	bf04      	itt	eq
 80009e6:	ebb6 0c02 	subseq.w	ip, r6, r2
 80009ea:	ea5f 0c50 	movseq.w	ip, r0, lsr #1
 80009ee:	f150 0000 	adcs.w	r0, r0, #0
 80009f2:	eb41 5104 	adc.w	r1, r1, r4, lsl #20
 80009f6:	bd70      	pop	{r4, r5, r6, pc}
 80009f8:	f00e 4e00 	and.w	lr, lr, #2147483648	@ 0x80000000
 80009fc:	ea4e 3111 	orr.w	r1, lr, r1, lsr #12
 8000a00:	eb14 045c 	adds.w	r4, r4, ip, lsr #1
 8000a04:	bfc2      	ittt	gt
 8000a06:	ebd4 050c 	rsbsgt	r5, r4, ip
 8000a0a:	ea41 5104 	orrgt.w	r1, r1, r4, lsl #20
 8000a0e:	bd70      	popgt	{r4, r5, r6, pc}
 8000a10:	f441 1180 	orr.w	r1, r1, #1048576	@ 0x100000
 8000a14:	f04f 0e00 	mov.w	lr, #0
 8000a18:	3c01      	subs	r4, #1
 8000a1a:	e690      	b.n	800073e <__aeabi_dmul+0xde>
 8000a1c:	ea45 0e06 	orr.w	lr, r5, r6
 8000a20:	e68d      	b.n	800073e <__aeabi_dmul+0xde>
 8000a22:	ea0c 5513 	and.w	r5, ip, r3, lsr #20
 8000a26:	ea94 0f0c 	teq	r4, ip
 8000a2a:	bf08      	it	eq
 8000a2c:	ea95 0f0c 	teqeq	r5, ip
 8000a30:	f43f af3b 	beq.w	80008aa <__aeabi_dmul+0x24a>
 8000a34:	ea94 0f0c 	teq	r4, ip
 8000a38:	d10a      	bne.n	8000a50 <__aeabi_ddiv+0x19c>
 8000a3a:	ea50 3401 	orrs.w	r4, r0, r1, lsl #12
 8000a3e:	f47f af34 	bne.w	80008aa <__aeabi_dmul+0x24a>
 8000a42:	ea95 0f0c 	teq	r5, ip
 8000a46:	f47f af25 	bne.w	8000894 <__aeabi_dmul+0x234>
 8000a4a:	4610      	mov	r0, r2
 8000a4c:	4619      	mov	r1, r3
 8000a4e:	e72c      	b.n	80008aa <__aeabi_dmul+0x24a>
 8000a50:	ea95 0f0c 	teq	r5, ip
 8000a54:	d106      	bne.n	8000a64 <__aeabi_ddiv+0x1b0>
 8000a56:	ea52 3503 	orrs.w	r5, r2, r3, lsl #12
 8000a5a:	f43f aefd 	beq.w	8000858 <__aeabi_dmul+0x1f8>
 8000a5e:	4610      	mov	r0, r2
 8000a60:	4619      	mov	r1, r3
 8000a62:	e722      	b.n	80008aa <__aeabi_dmul+0x24a>
 8000a64:	ea50 0641 	orrs.w	r6, r0, r1, lsl #1
 8000a68:	bf18      	it	ne
 8000a6a:	ea52 0643 	orrsne.w	r6, r2, r3, lsl #1
 8000a6e:	f47f aec5 	bne.w	80007fc <__aeabi_dmul+0x19c>
 8000a72:	ea50 0441 	orrs.w	r4, r0, r1, lsl #1
 8000a76:	f47f af0d 	bne.w	8000894 <__aeabi_dmul+0x234>
 8000a7a:	ea52 0543 	orrs.w	r5, r2, r3, lsl #1
 8000a7e:	f47f aeeb 	bne.w	8000858 <__aeabi_dmul+0x1f8>
 8000a82:	e712      	b.n	80008aa <__aeabi_dmul+0x24a>

08000a84 <__gedf2>:
 8000a84:	f04f 3cff 	mov.w	ip, #4294967295
 8000a88:	e006      	b.n	8000a98 <__cmpdf2+0x4>
 8000a8a:	bf00      	nop

08000a8c <__ledf2>:
 8000a8c:	f04f 0c01 	mov.w	ip, #1
 8000a90:	e002      	b.n	8000a98 <__cmpdf2+0x4>
 8000a92:	bf00      	nop

08000a94 <__cmpdf2>:
 8000a94:	f04f 0c01 	mov.w	ip, #1
 8000a98:	f84d cd04 	str.w	ip, [sp, #-4]!
 8000a9c:	ea4f 0c41 	mov.w	ip, r1, lsl #1
 8000aa0:	ea7f 5c6c 	mvns.w	ip, ip, asr #21
 8000aa4:	ea4f 0c43 	mov.w	ip, r3, lsl #1
 8000aa8:	bf18      	it	ne
 8000aaa:	ea7f 5c6c 	mvnsne.w	ip, ip, asr #21
 8000aae:	d01b      	beq.n	8000ae8 <__cmpdf2+0x54>
 8000ab0:	b001      	add	sp, #4
 8000ab2:	ea50 0c41 	orrs.w	ip, r0, r1, lsl #1
 8000ab6:	bf0c      	ite	eq
 8000ab8:	ea52 0c43 	orrseq.w	ip, r2, r3, lsl #1
 8000abc:	ea91 0f03 	teqne	r1, r3
 8000ac0:	bf02      	ittt	eq
 8000ac2:	ea90 0f02 	teqeq	r0, r2
 8000ac6:	2000      	moveq	r0, #0
 8000ac8:	4770      	bxeq	lr
 8000aca:	f110 0f00 	cmn.w	r0, #0
 8000ace:	ea91 0f03 	teq	r1, r3
 8000ad2:	bf58      	it	pl
 8000ad4:	4299      	cmppl	r1, r3
 8000ad6:	bf08      	it	eq
 8000ad8:	4290      	cmpeq	r0, r2
 8000ada:	bf2c      	ite	cs
 8000adc:	17d8      	asrcs	r0, r3, #31
 8000ade:	ea6f 70e3 	mvncc.w	r0, r3, asr #31
 8000ae2:	f040 0001 	orr.w	r0, r0, #1
 8000ae6:	4770      	bx	lr
 8000ae8:	ea4f 0c41 	mov.w	ip, r1, lsl #1
 8000aec:	ea7f 5c6c 	mvns.w	ip, ip, asr #21
 8000af0:	d102      	bne.n	8000af8 <__cmpdf2+0x64>
 8000af2:	ea50 3c01 	orrs.w	ip, r0, r1, lsl #12
 8000af6:	d107      	bne.n	8000b08 <__cmpdf2+0x74>
 8000af8:	ea4f 0c43 	mov.w	ip, r3, lsl #1
 8000afc:	ea7f 5c6c 	mvns.w	ip, ip, asr #21
 8000b00:	d1d6      	bne.n	8000ab0 <__cmpdf2+0x1c>
 8000b02:	ea52 3c03 	orrs.w	ip, r2, r3, lsl #12
 8000b06:	d0d3      	beq.n	8000ab0 <__cmpdf2+0x1c>
 8000b08:	f85d 0b04 	ldr.w	r0, [sp], #4
 8000b0c:	4770      	bx	lr
 8000b0e:	bf00      	nop

08000b10 <__aeabi_cdrcmple>:
 8000b10:	4684      	mov	ip, r0
 8000b12:	4610      	mov	r0, r2
 8000b14:	4662      	mov	r2, ip
 8000b16:	468c      	mov	ip, r1
 8000b18:	4619      	mov	r1, r3
 8000b1a:	4663      	mov	r3, ip
 8000b1c:	e000      	b.n	8000b20 <__aeabi_cdcmpeq>
 8000b1e:	bf00      	nop

08000b20 <__aeabi_cdcmpeq>:
 8000b20:	b501      	push	{r0, lr}
 8000b22:	f7ff ffb7 	bl	8000a94 <__cmpdf2>
 8000b26:	2800      	cmp	r0, #0
 8000b28:	bf48      	it	mi
 8000b2a:	f110 0f00 	cmnmi.w	r0, #0
 8000b2e:	bd01      	pop	{r0, pc}

08000b30 <__aeabi_dcmpeq>:
 8000b30:	f84d ed08 	str.w	lr, [sp, #-8]!
 8000b34:	f7ff fff4 	bl	8000b20 <__aeabi_cdcmpeq>
 8000b38:	bf0c      	ite	eq
 8000b3a:	2001      	moveq	r0, #1
 8000b3c:	2000      	movne	r0, #0
 8000b3e:	f85d fb08 	ldr.w	pc, [sp], #8
 8000b42:	bf00      	nop

08000b44 <__aeabi_dcmplt>:
 8000b44:	f84d ed08 	str.w	lr, [sp, #-8]!
 8000b48:	f7ff ffea 	bl	8000b20 <__aeabi_cdcmpeq>
 8000b4c:	bf34      	ite	cc
 8000b4e:	2001      	movcc	r0, #1
 8000b50:	2000      	movcs	r0, #0
 8000b52:	f85d fb08 	ldr.w	pc, [sp], #8
 8000b56:	bf00      	nop

08000b58 <__aeabi_dcmple>:
 8000b58:	f84d ed08 	str.w	lr, [sp, #-8]!
 8000b5c:	f7ff ffe0 	bl	8000b20 <__aeabi_cdcmpeq>
 8000b60:	bf94      	ite	ls
 8000b62:	2001      	movls	r0, #1
 8000b64:	2000      	movhi	r0, #0
 8000b66:	f85d fb08 	ldr.w	pc, [sp], #8
 8000b6a:	bf00      	nop

08000b6c <__aeabi_dcmpge>:
 8000b6c:	f84d ed08 	str.w	lr, [sp, #-8]!
 8000b70:	f7ff ffce 	bl	8000b10 <__aeabi_cdrcmple>
 8000b74:	bf94      	ite	ls
 8000b76:	2001      	movls	r0, #1
 8000b78:	2000      	movhi	r0, #0
 8000b7a:	f85d fb08 	ldr.w	pc, [sp], #8
 8000b7e:	bf00      	nop

08000b80 <__aeabi_dcmpgt>:
 8000b80:	f84d ed08 	str.w	lr, [sp, #-8]!
 8000b84:	f7ff ffc4 	bl	8000b10 <__aeabi_cdrcmple>
 8000b88:	bf34      	ite	cc
 8000b8a:	2001      	movcc	r0, #1
 8000b8c:	2000      	movcs	r0, #0
 8000b8e:	f85d fb08 	ldr.w	pc, [sp], #8
 8000b92:	bf00      	nop

08000b94 <__aeabi_dcmpun>:
 8000b94:	ea4f 0c41 	mov.w	ip, r1, lsl #1
 8000b98:	ea7f 5c6c 	mvns.w	ip, ip, asr #21
 8000b9c:	d102      	bne.n	8000ba4 <__aeabi_dcmpun+0x10>
 8000b9e:	ea50 3c01 	orrs.w	ip, r0, r1, lsl #12
 8000ba2:	d10a      	bne.n	8000bba <__aeabi_dcmpun+0x26>
 8000ba4:	ea4f 0c43 	mov.w	ip, r3, lsl #1
 8000ba8:	ea7f 5c6c 	mvns.w	ip, ip, asr #21
 8000bac:	d102      	bne.n	8000bb4 <__aeabi_dcmpun+0x20>
 8000bae:	ea52 3c03 	orrs.w	ip, r2, r3, lsl #12
 8000bb2:	d102      	bne.n	8000bba <__aeabi_dcmpun+0x26>
 8000bb4:	f04f 0000 	mov.w	r0, #0
 8000bb8:	4770      	bx	lr
 8000bba:	f04f 0001 	mov.w	r0, #1
 8000bbe:	4770      	bx	lr

08000bc0 <__aeabi_d2iz>:
 8000bc0:	ea4f 0241 	mov.w	r2, r1, lsl #1
 8000bc4:	f512 1200 	adds.w	r2, r2, #2097152	@ 0x200000
 8000bc8:	d215      	bcs.n	8000bf6 <__aeabi_d2iz+0x36>
 8000bca:	d511      	bpl.n	8000bf0 <__aeabi_d2iz+0x30>
 8000bcc:	f46f 7378 	mvn.w	r3, #992	@ 0x3e0
 8000bd0:	ebb3 5262 	subs.w	r2, r3, r2, asr #21
 8000bd4:	d912      	bls.n	8000bfc <__aeabi_d2iz+0x3c>
 8000bd6:	ea4f 23c1 	mov.w	r3, r1, lsl #11
 8000bda:	f043 4300 	orr.w	r3, r3, #2147483648	@ 0x80000000
 8000bde:	ea43 5350 	orr.w	r3, r3, r0, lsr #21
 8000be2:	f011 4f00 	tst.w	r1, #2147483648	@ 0x80000000
 8000be6:	fa23 f002 	lsr.w	r0, r3, r2
 8000bea:	bf18      	it	ne
 8000bec:	4240      	negne	r0, r0
 8000bee:	4770      	bx	lr
 8000bf0:	f04f 0000 	mov.w	r0, #0
 8000bf4:	4770      	bx	lr
 8000bf6:	ea50 3001 	orrs.w	r0, r0, r1, lsl #12
 8000bfa:	d105      	bne.n	8000c08 <__aeabi_d2iz+0x48>
 8000bfc:	f011 4000 	ands.w	r0, r1, #2147483648	@ 0x80000000
 8000c00:	bf08      	it	eq
 8000c02:	f06f 4000 	mvneq.w	r0, #2147483648	@ 0x80000000
 8000c06:	4770      	bx	lr
 8000c08:	f04f 0000 	mov.w	r0, #0
 8000c0c:	4770      	bx	lr
 8000c0e:	bf00      	nop

08000c10 <__aeabi_frsub>:
 8000c10:	f080 4000 	eor.w	r0, r0, #2147483648	@ 0x80000000
 8000c14:	e002      	b.n	8000c1c <__addsf3>
 8000c16:	bf00      	nop

08000c18 <__aeabi_fsub>:
 8000c18:	f081 4100 	eor.w	r1, r1, #2147483648	@ 0x80000000

08000c1c <__addsf3>:
 8000c1c:	0042      	lsls	r2, r0, #1
 8000c1e:	bf1f      	itttt	ne
 8000c20:	ea5f 0341 	movsne.w	r3, r1, lsl #1
 8000c24:	ea92 0f03 	teqne	r2, r3
 8000c28:	ea7f 6c22 	mvnsne.w	ip, r2, asr #24
 8000c2c:	ea7f 6c23 	mvnsne.w	ip, r3, asr #24
 8000c30:	d06a      	beq.n	8000d08 <__addsf3+0xec>
 8000c32:	ea4f 6212 	mov.w	r2, r2, lsr #24
 8000c36:	ebd2 6313 	rsbs	r3, r2, r3, lsr #24
 8000c3a:	bfc1      	itttt	gt
 8000c3c:	18d2      	addgt	r2, r2, r3
 8000c3e:	4041      	eorgt	r1, r0
 8000c40:	4048      	eorgt	r0, r1
 8000c42:	4041      	eorgt	r1, r0
 8000c44:	bfb8      	it	lt
 8000c46:	425b      	neglt	r3, r3
 8000c48:	2b19      	cmp	r3, #25
 8000c4a:	bf88      	it	hi
 8000c4c:	4770      	bxhi	lr
 8000c4e:	f010 4f00 	tst.w	r0, #2147483648	@ 0x80000000
 8000c52:	f440 0000 	orr.w	r0, r0, #8388608	@ 0x800000
 8000c56:	f020 407f 	bic.w	r0, r0, #4278190080	@ 0xff000000
 8000c5a:	bf18      	it	ne
 8000c5c:	4240      	negne	r0, r0
 8000c5e:	f011 4f00 	tst.w	r1, #2147483648	@ 0x80000000
 8000c62:	f441 0100 	orr.w	r1, r1, #8388608	@ 0x800000
 8000c66:	f021 417f 	bic.w	r1, r1, #4278190080	@ 0xff000000
 8000c6a:	bf18      	it	ne
 8000c6c:	4249      	negne	r1, r1
 8000c6e:	ea92 0f03 	teq	r2, r3
 8000c72:	d03f      	beq.n	8000cf4 <__addsf3+0xd8>
 8000c74:	f1a2 0201 	sub.w	r2, r2, #1
 8000c78:	fa41 fc03 	asr.w	ip, r1, r3
 8000c7c:	eb10 000c 	adds.w	r0, r0, ip
 8000c80:	f1c3 0320 	rsb	r3, r3, #32
 8000c84:	fa01 f103 	lsl.w	r1, r1, r3
 8000c88:	f000 4300 	and.w	r3, r0, #2147483648	@ 0x80000000
 8000c8c:	d502      	bpl.n	8000c94 <__addsf3+0x78>
 8000c8e:	4249      	negs	r1, r1
 8000c90:	eb60 0040 	sbc.w	r0, r0, r0, lsl #1
 8000c94:	f5b0 0f00 	cmp.w	r0, #8388608	@ 0x800000
 8000c98:	d313      	bcc.n	8000cc2 <__addsf3+0xa6>
 8000c9a:	f1b0 7f80 	cmp.w	r0, #16777216	@ 0x1000000
 8000c9e:	d306      	bcc.n	8000cae <__addsf3+0x92>
 8000ca0:	0840      	lsrs	r0, r0, #1
 8000ca2:	ea4f 0131 	mov.w	r1, r1, rrx
 8000ca6:	f102 0201 	add.w	r2, r2, #1
 8000caa:	2afe      	cmp	r2, #254	@ 0xfe
 8000cac:	d251      	bcs.n	8000d52 <__addsf3+0x136>
 8000cae:	f1b1 4f00 	cmp.w	r1, #2147483648	@ 0x80000000
 8000cb2:	eb40 50c2 	adc.w	r0, r0, r2, lsl #23
 8000cb6:	bf08      	it	eq
 8000cb8:	f020 0001 	biceq.w	r0, r0, #1
 8000cbc:	ea40 0003 	orr.w	r0, r0, r3
 8000cc0:	4770      	bx	lr
 8000cc2:	0049      	lsls	r1, r1, #1
 8000cc4:	eb40 0000 	adc.w	r0, r0, r0
 8000cc8:	3a01      	subs	r2, #1
 8000cca:	bf28      	it	cs
 8000ccc:	f5b0 0f00 	cmpcs.w	r0, #8388608	@ 0x800000
 8000cd0:	d2ed      	bcs.n	8000cae <__addsf3+0x92>
 8000cd2:	fab0 fc80 	clz	ip, r0
 8000cd6:	f1ac 0c08 	sub.w	ip, ip, #8
 8000cda:	ebb2 020c 	subs.w	r2, r2, ip
 8000cde:	fa00 f00c 	lsl.w	r0, r0, ip
 8000ce2:	bfaa      	itet	ge
 8000ce4:	eb00 50c2 	addge.w	r0, r0, r2, lsl #23
 8000ce8:	4252      	neglt	r2, r2
 8000cea:	4318      	orrge	r0, r3
 8000cec:	bfbc      	itt	lt
 8000cee:	40d0      	lsrlt	r0, r2
 8000cf0:	4318      	orrlt	r0, r3
 8000cf2:	4770      	bx	lr
 8000cf4:	f092 0f00 	teq	r2, #0
 8000cf8:	f481 0100 	eor.w	r1, r1, #8388608	@ 0x800000
 8000cfc:	bf06      	itte	eq
 8000cfe:	f480 0000 	eoreq.w	r0, r0, #8388608	@ 0x800000
 8000d02:	3201      	addeq	r2, #1
 8000d04:	3b01      	subne	r3, #1
 8000d06:	e7b5      	b.n	8000c74 <__addsf3+0x58>
 8000d08:	ea4f 0341 	mov.w	r3, r1, lsl #1
 8000d0c:	ea7f 6c22 	mvns.w	ip, r2, asr #24
 8000d10:	bf18      	it	ne
 8000d12:	ea7f 6c23 	mvnsne.w	ip, r3, asr #24
 8000d16:	d021      	beq.n	8000d5c <__addsf3+0x140>
 8000d18:	ea92 0f03 	teq	r2, r3
 8000d1c:	d004      	beq.n	8000d28 <__addsf3+0x10c>
 8000d1e:	f092 0f00 	teq	r2, #0
 8000d22:	bf08      	it	eq
 8000d24:	4608      	moveq	r0, r1
 8000d26:	4770      	bx	lr
 8000d28:	ea90 0f01 	teq	r0, r1
 8000d2c:	bf1c      	itt	ne
 8000d2e:	2000      	movne	r0, #0
 8000d30:	4770      	bxne	lr
 8000d32:	f012 4f7f 	tst.w	r2, #4278190080	@ 0xff000000
 8000d36:	d104      	bne.n	8000d42 <__addsf3+0x126>
 8000d38:	0040      	lsls	r0, r0, #1
 8000d3a:	bf28      	it	cs
 8000d3c:	f040 4000 	orrcs.w	r0, r0, #2147483648	@ 0x80000000
 8000d40:	4770      	bx	lr
 8000d42:	f112 7200 	adds.w	r2, r2, #33554432	@ 0x2000000
 8000d46:	bf3c      	itt	cc
 8000d48:	f500 0000 	addcc.w	r0, r0, #8388608	@ 0x800000
 8000d4c:	4770      	bxcc	lr
 8000d4e:	f000 4300 	and.w	r3, r0, #2147483648	@ 0x80000000
 8000d52:	f043 40fe 	orr.w	r0, r3, #2130706432	@ 0x7f000000
 8000d56:	f440 0000 	orr.w	r0, r0, #8388608	@ 0x800000
 8000d5a:	4770      	bx	lr
 8000d5c:	ea7f 6222 	mvns.w	r2, r2, asr #24
 8000d60:	bf16      	itet	ne
 8000d62:	4608      	movne	r0, r1
 8000d64:	ea7f 6323 	mvnseq.w	r3, r3, asr #24
 8000d68:	4601      	movne	r1, r0
 8000d6a:	0242      	lsls	r2, r0, #9
 8000d6c:	bf06      	itte	eq
 8000d6e:	ea5f 2341 	movseq.w	r3, r1, lsl #9
 8000d72:	ea90 0f01 	teqeq	r0, r1
 8000d76:	f440 0080 	orrne.w	r0, r0, #4194304	@ 0x400000
 8000d7a:	4770      	bx	lr

08000d7c <__aeabi_ui2f>:
 8000d7c:	f04f 0300 	mov.w	r3, #0
 8000d80:	e004      	b.n	8000d8c <__aeabi_i2f+0x8>
 8000d82:	bf00      	nop

08000d84 <__aeabi_i2f>:
 8000d84:	f010 4300 	ands.w	r3, r0, #2147483648	@ 0x80000000
 8000d88:	bf48      	it	mi
 8000d8a:	4240      	negmi	r0, r0
 8000d8c:	ea5f 0c00 	movs.w	ip, r0
 8000d90:	bf08      	it	eq
 8000d92:	4770      	bxeq	lr
 8000d94:	f043 4396 	orr.w	r3, r3, #1258291200	@ 0x4b000000
 8000d98:	4601      	mov	r1, r0
 8000d9a:	f04f 0000 	mov.w	r0, #0
 8000d9e:	e01c      	b.n	8000dda <__aeabi_l2f+0x2a>

08000da0 <__aeabi_ul2f>:
 8000da0:	ea50 0201 	orrs.w	r2, r0, r1
 8000da4:	bf08      	it	eq
 8000da6:	4770      	bxeq	lr
 8000da8:	f04f 0300 	mov.w	r3, #0
 8000dac:	e00a      	b.n	8000dc4 <__aeabi_l2f+0x14>
 8000dae:	bf00      	nop

08000db0 <__aeabi_l2f>:
 8000db0:	ea50 0201 	orrs.w	r2, r0, r1
 8000db4:	bf08      	it	eq
 8000db6:	4770      	bxeq	lr
 8000db8:	f011 4300 	ands.w	r3, r1, #2147483648	@ 0x80000000
 8000dbc:	d502      	bpl.n	8000dc4 <__aeabi_l2f+0x14>
 8000dbe:	4240      	negs	r0, r0
 8000dc0:	eb61 0141 	sbc.w	r1, r1, r1, lsl #1
 8000dc4:	ea5f 0c01 	movs.w	ip, r1
 8000dc8:	bf02      	ittt	eq
 8000dca:	4684      	moveq	ip, r0
 8000dcc:	4601      	moveq	r1, r0
 8000dce:	2000      	moveq	r0, #0
 8000dd0:	f043 43b6 	orr.w	r3, r3, #1526726656	@ 0x5b000000
 8000dd4:	bf08      	it	eq
 8000dd6:	f1a3 5380 	subeq.w	r3, r3, #268435456	@ 0x10000000
 8000dda:	f5a3 0300 	sub.w	r3, r3, #8388608	@ 0x800000
 8000dde:	fabc f28c 	clz	r2, ip
 8000de2:	3a08      	subs	r2, #8
 8000de4:	eba3 53c2 	sub.w	r3, r3, r2, lsl #23
 8000de8:	db10      	blt.n	8000e0c <__aeabi_l2f+0x5c>
 8000dea:	fa01 fc02 	lsl.w	ip, r1, r2
 8000dee:	4463      	add	r3, ip
 8000df0:	fa00 fc02 	lsl.w	ip, r0, r2
 8000df4:	f1c2 0220 	rsb	r2, r2, #32
 8000df8:	f1bc 4f00 	cmp.w	ip, #2147483648	@ 0x80000000
 8000dfc:	fa20 f202 	lsr.w	r2, r0, r2
 8000e00:	eb43 0002 	adc.w	r0, r3, r2
 8000e04:	bf08      	it	eq
 8000e06:	f020 0001 	biceq.w	r0, r0, #1
 8000e0a:	4770      	bx	lr
 8000e0c:	f102 0220 	add.w	r2, r2, #32
 8000e10:	fa01 fc02 	lsl.w	ip, r1, r2
 8000e14:	f1c2 0220 	rsb	r2, r2, #32
 8000e18:	ea50 004c 	orrs.w	r0, r0, ip, lsl #1
 8000e1c:	fa21 f202 	lsr.w	r2, r1, r2
 8000e20:	eb43 0002 	adc.w	r0, r3, r2
 8000e24:	bf08      	it	eq
 8000e26:	ea20 70dc 	biceq.w	r0, r0, ip, lsr #31
 8000e2a:	4770      	bx	lr

08000e2c <SystemInit>:
  * @note   This function should be used only after reset.
  * @param  None
  * @retval None
  */
void SystemInit (void)
{
 8000e2c:	b480      	push	{r7}
 8000e2e:	af00      	add	r7, sp, #0

  /* Configure the Vector Table location -------------------------------------*/
#if defined(USER_VECT_TAB_ADDRESS)
  SCB->VTOR = VECT_TAB_BASE_ADDRESS | VECT_TAB_OFFSET; /* Vector Table Relocation in Internal SRAM. */
#endif /* USER_VECT_TAB_ADDRESS */
}
 8000e30:	bf00      	nop
 8000e32:	46bd      	mov	sp, r7
 8000e34:	bc80      	pop	{r7}
 8000e36:	4770      	bx	lr

08000e38 <__NVIC_EnableIRQ>:
  \details Enables a device specific interrupt in the NVIC interrupt controller.
  \param [in]      IRQn  Device specific interrupt number.
  \note    IRQn must not be negative.
 */
__STATIC_INLINE void __NVIC_EnableIRQ(IRQn_Type IRQn)
{
 8000e38:	b480      	push	{r7}
 8000e3a:	b083      	sub	sp, #12
 8000e3c:	af00      	add	r7, sp, #0
 8000e3e:	4603      	mov	r3, r0
 8000e40:	71fb      	strb	r3, [r7, #7]
  if ((int32_t)(IRQn) >= 0)
 8000e42:	f997 3007 	ldrsb.w	r3, [r7, #7]
 8000e46:	2b00      	cmp	r3, #0
 8000e48:	db0b      	blt.n	8000e62 <__NVIC_EnableIRQ+0x2a>
  {
    NVIC->ISER[(((uint32_t)IRQn) >> 5UL)] = (uint32_t)(1UL << (((uint32_t)IRQn) & 0x1FUL));
 8000e4a:	79fb      	ldrb	r3, [r7, #7]
 8000e4c:	f003 021f 	and.w	r2, r3, #31
 8000e50:	4906      	ldr	r1, [pc, #24]	@ (8000e6c <__NVIC_EnableIRQ+0x34>)
 8000e52:	f997 3007 	ldrsb.w	r3, [r7, #7]
 8000e56:	095b      	lsrs	r3, r3, #5
 8000e58:	2001      	movs	r0, #1
 8000e5a:	fa00 f202 	lsl.w	r2, r0, r2
 8000e5e:	f841 2023 	str.w	r2, [r1, r3, lsl #2]
  }
}
 8000e62:	bf00      	nop
 8000e64:	370c      	adds	r7, #12
 8000e66:	46bd      	mov	sp, r7
 8000e68:	bc80      	pop	{r7}
 8000e6a:	4770      	bx	lr
 8000e6c:	e000e100 	.word	0xe000e100

08000e70 <__NVIC_SetPriority>:
  \param [in]      IRQn  Interrupt number.
  \param [in]  priority  Priority to set.
  \note    The priority cannot be set for every processor exception.
 */
__STATIC_INLINE void __NVIC_SetPriority(IRQn_Type IRQn, uint32_t priority)
{
 8000e70:	b480      	push	{r7}
 8000e72:	b083      	sub	sp, #12
 8000e74:	af00      	add	r7, sp, #0
 8000e76:	4603      	mov	r3, r0
 8000e78:	6039      	str	r1, [r7, #0]
 8000e7a:	71fb      	strb	r3, [r7, #7]
  if ((int32_t)(IRQn) >= 0)
 8000e7c:	f997 3007 	ldrsb.w	r3, [r7, #7]
 8000e80:	2b00      	cmp	r3, #0
 8000e82:	db0a      	blt.n	8000e9a <__NVIC_SetPriority+0x2a>
  {
    NVIC->IP[((uint32_t)IRQn)]               = (uint8_t)((priority << (8U - __NVIC_PRIO_BITS)) & (uint32_t)0xFFUL);
 8000e84:	683b      	ldr	r3, [r7, #0]
 8000e86:	b2da      	uxtb	r2, r3
 8000e88:	490c      	ldr	r1, [pc, #48]	@ (8000ebc <__NVIC_SetPriority+0x4c>)
 8000e8a:	f997 3007 	ldrsb.w	r3, [r7, #7]
 8000e8e:	0112      	lsls	r2, r2, #4
 8000e90:	b2d2      	uxtb	r2, r2
 8000e92:	440b      	add	r3, r1
 8000e94:	f883 2300 	strb.w	r2, [r3, #768]	@ 0x300
  }
  else
  {
    SCB->SHP[(((uint32_t)IRQn) & 0xFUL)-4UL] = (uint8_t)((priority << (8U - __NVIC_PRIO_BITS)) & (uint32_t)0xFFUL);
  }
}
 8000e98:	e00a      	b.n	8000eb0 <__NVIC_SetPriority+0x40>
    SCB->SHP[(((uint32_t)IRQn) & 0xFUL)-4UL] = (uint8_t)((priority << (8U - __NVIC_PRIO_BITS)) & (uint32_t)0xFFUL);
 8000e9a:	683b      	ldr	r3, [r7, #0]
 8000e9c:	b2da      	uxtb	r2, r3
 8000e9e:	4908      	ldr	r1, [pc, #32]	@ (8000ec0 <__NVIC_SetPriority+0x50>)
 8000ea0:	79fb      	ldrb	r3, [r7, #7]
 8000ea2:	f003 030f 	and.w	r3, r3, #15
 8000ea6:	3b04      	subs	r3, #4
 8000ea8:	0112      	lsls	r2, r2, #4
 8000eaa:	b2d2      	uxtb	r2, r2
 8000eac:	440b      	add	r3, r1
 8000eae:	761a      	strb	r2, [r3, #24]
}
 8000eb0:	bf00      	nop
 8000eb2:	370c      	adds	r7, #12
 8000eb4:	46bd      	mov	sp, r7
 8000eb6:	bc80      	pop	{r7}
 8000eb8:	4770      	bx	lr
 8000eba:	bf00      	nop
 8000ebc:	e000e100 	.word	0xe000e100
 8000ec0:	e000ed00 	.word	0xe000ed00

08000ec4 <DMA1_Channel2_IRQHandler>:
#define BME280_REG_ID 0xD0

uint8_t buffer_SPI_TX[BUF_SIZE];
uint8_t buffer_SPI_RX[BUF_SIZE];

void DMA1_Channel2_IRQHandler() {
 8000ec4:	b580      	push	{r7, lr}
 8000ec6:	af00      	add	r7, sp, #0
	DMA1->IFCR |= DMA_IFCR_CTCIF2;
 8000ec8:	4b07      	ldr	r3, [pc, #28]	@ (8000ee8 <DMA1_Channel2_IRQHandler+0x24>)
 8000eca:	685b      	ldr	r3, [r3, #4]
 8000ecc:	4a06      	ldr	r2, [pc, #24]	@ (8000ee8 <DMA1_Channel2_IRQHandler+0x24>)
 8000ece:	f043 0320 	orr.w	r3, r3, #32
 8000ed2:	6053      	str	r3, [r2, #4]
	SPI_cs_set();
 8000ed4:	f000 f880 	bl	8000fd8 <SPI_cs_set>
	DMA1_Channel2->CCR &= ~DMA_CCR_EN;
 8000ed8:	4b04      	ldr	r3, [pc, #16]	@ (8000eec <DMA1_Channel2_IRQHandler+0x28>)
 8000eda:	681b      	ldr	r3, [r3, #0]
 8000edc:	4a03      	ldr	r2, [pc, #12]	@ (8000eec <DMA1_Channel2_IRQHandler+0x28>)
 8000ede:	f023 0301 	bic.w	r3, r3, #1
 8000ee2:	6013      	str	r3, [r2, #0]
}
 8000ee4:	bf00      	nop
 8000ee6:	bd80      	pop	{r7, pc}
 8000ee8:	40020000 	.word	0x40020000
 8000eec:	4002001c 	.word	0x4002001c

08000ef0 <DMA1_Channel3_IRQHandler>:

void DMA1_Channel3_IRQHandler() {
 8000ef0:	b580      	push	{r7, lr}
 8000ef2:	af00      	add	r7, sp, #0
	DMA1->IFCR |= DMA_IFCR_CTCIF3;
 8000ef4:	4b07      	ldr	r3, [pc, #28]	@ (8000f14 <DMA1_Channel3_IRQHandler+0x24>)
 8000ef6:	685b      	ldr	r3, [r3, #4]
 8000ef8:	4a06      	ldr	r2, [pc, #24]	@ (8000f14 <DMA1_Channel3_IRQHandler+0x24>)
 8000efa:	f443 7300 	orr.w	r3, r3, #512	@ 0x200
 8000efe:	6053      	str	r3, [r2, #4]
	SPI_cs_set();
 8000f00:	f000 f86a 	bl	8000fd8 <SPI_cs_set>
	DMA1_Channel3->CCR &= ~DMA_CCR_EN;
 8000f04:	4b04      	ldr	r3, [pc, #16]	@ (8000f18 <DMA1_Channel3_IRQHandler+0x28>)
 8000f06:	681b      	ldr	r3, [r3, #0]
 8000f08:	4a03      	ldr	r2, [pc, #12]	@ (8000f18 <DMA1_Channel3_IRQHandler+0x28>)
 8000f0a:	f023 0301 	bic.w	r3, r3, #1
 8000f0e:	6013      	str	r3, [r2, #0]
}
 8000f10:	bf00      	nop
 8000f12:	bd80      	pop	{r7, pc}
 8000f14:	40020000 	.word	0x40020000
 8000f18:	40020030 	.word	0x40020030

08000f1c <init_GPIO_for_SPI>:

void init_GPIO_for_SPI() {
 8000f1c:	b580      	push	{r7, lr}
 8000f1e:	af00      	add	r7, sp, #0
	RCC->APB2ENR |= RCC_APB2ENR_IOPAEN;
 8000f20:	4b16      	ldr	r3, [pc, #88]	@ (8000f7c <init_GPIO_for_SPI+0x60>)
 8000f22:	699b      	ldr	r3, [r3, #24]
 8000f24:	4a15      	ldr	r2, [pc, #84]	@ (8000f7c <init_GPIO_for_SPI+0x60>)
 8000f26:	f043 0304 	orr.w	r3, r3, #4
 8000f2a:	6193      	str	r3, [r2, #24]
	//PA5-SCK, PA6-MISO, PA7-MOSI
	GPIOA->CRL |= GPIO_CRL_MODE5 | GPIO_CRL_MODE6 | GPIO_CRL_MODE7;
 8000f2c:	4b14      	ldr	r3, [pc, #80]	@ (8000f80 <init_GPIO_for_SPI+0x64>)
 8000f2e:	681b      	ldr	r3, [r3, #0]
 8000f30:	4a13      	ldr	r2, [pc, #76]	@ (8000f80 <init_GPIO_for_SPI+0x64>)
 8000f32:	f043 534c 	orr.w	r3, r3, #855638016	@ 0x33000000
 8000f36:	f443 1340 	orr.w	r3, r3, #3145728	@ 0x300000
 8000f3a:	6013      	str	r3, [r2, #0]
	GPIOA->CRH |= GPIO_CRH_MODE8;
 8000f3c:	4b10      	ldr	r3, [pc, #64]	@ (8000f80 <init_GPIO_for_SPI+0x64>)
 8000f3e:	685b      	ldr	r3, [r3, #4]
 8000f40:	4a0f      	ldr	r2, [pc, #60]	@ (8000f80 <init_GPIO_for_SPI+0x64>)
 8000f42:	f043 0303 	orr.w	r3, r3, #3
 8000f46:	6053      	str	r3, [r2, #4]
	//Clear CNF (because on f1 GPIO reset state isn't 0x0000...so strange)
	GPIOA->CRL &= ~(GPIO_CRL_CNF5 | GPIO_CRL_CNF6 | GPIO_CRL_CNF7);
 8000f48:	4b0d      	ldr	r3, [pc, #52]	@ (8000f80 <init_GPIO_for_SPI+0x64>)
 8000f4a:	681b      	ldr	r3, [r3, #0]
 8000f4c:	4a0c      	ldr	r2, [pc, #48]	@ (8000f80 <init_GPIO_for_SPI+0x64>)
 8000f4e:	f023 434c 	bic.w	r3, r3, #3422552064	@ 0xcc000000
 8000f52:	f423 0340 	bic.w	r3, r3, #12582912	@ 0xc00000
 8000f56:	6013      	str	r3, [r2, #0]
	GPIOA->CRH &= ~GPIO_CRH_CNF8;
 8000f58:	4b09      	ldr	r3, [pc, #36]	@ (8000f80 <init_GPIO_for_SPI+0x64>)
 8000f5a:	685b      	ldr	r3, [r3, #4]
 8000f5c:	4a08      	ldr	r2, [pc, #32]	@ (8000f80 <init_GPIO_for_SPI+0x64>)
 8000f5e:	f023 030c 	bic.w	r3, r3, #12
 8000f62:	6053      	str	r3, [r2, #4]
	//AF on PA5-PA7
	GPIOA->CRL |= GPIO_CRL_CNF5_1 | GPIO_CRL_CNF6_1 | GPIO_CRL_CNF7_1;
 8000f64:	4b06      	ldr	r3, [pc, #24]	@ (8000f80 <init_GPIO_for_SPI+0x64>)
 8000f66:	681b      	ldr	r3, [r3, #0]
 8000f68:	4a05      	ldr	r2, [pc, #20]	@ (8000f80 <init_GPIO_for_SPI+0x64>)
 8000f6a:	f043 4308 	orr.w	r3, r3, #2281701376	@ 0x88000000
 8000f6e:	f443 0300 	orr.w	r3, r3, #8388608	@ 0x800000
 8000f72:	6013      	str	r3, [r2, #0]
	
	SPI_cs_set();
 8000f74:	f000 f830 	bl	8000fd8 <SPI_cs_set>
}
 8000f78:	bf00      	nop
 8000f7a:	bd80      	pop	{r7, pc}
 8000f7c:	40021000 	.word	0x40021000
 8000f80:	40010800 	.word	0x40010800

08000f84 <SPI1_Master_init>:

void SPI1_Master_init() {
 8000f84:	b580      	push	{r7, lr}
 8000f86:	af00      	add	r7, sp, #0
	init_GPIO_for_SPI();
 8000f88:	f7ff ffc8 	bl	8000f1c <init_GPIO_for_SPI>
	RCC->APB2ENR |= RCC_APB2ENR_SPI1EN;
 8000f8c:	4b10      	ldr	r3, [pc, #64]	@ (8000fd0 <SPI1_Master_init+0x4c>)
 8000f8e:	699b      	ldr	r3, [r3, #24]
 8000f90:	4a0f      	ldr	r2, [pc, #60]	@ (8000fd0 <SPI1_Master_init+0x4c>)
 8000f92:	f443 5380 	orr.w	r3, r3, #4096	@ 0x1000
 8000f96:	6193      	str	r3, [r2, #24]
	SPI1->CR1 &= ~SPI_CR1_SPE;
 8000f98:	4b0e      	ldr	r3, [pc, #56]	@ (8000fd4 <SPI1_Master_init+0x50>)
 8000f9a:	681b      	ldr	r3, [r3, #0]
 8000f9c:	4a0d      	ldr	r2, [pc, #52]	@ (8000fd4 <SPI1_Master_init+0x50>)
 8000f9e:	f023 0340 	bic.w	r3, r3, #64	@ 0x40
 8000fa2:	6013      	str	r3, [r2, #0]
	SPI1->CR1 |= SPI_CR1_MSTR | SPI_CR1_SSM | SPI_CR1_SSI;
 8000fa4:	4b0b      	ldr	r3, [pc, #44]	@ (8000fd4 <SPI1_Master_init+0x50>)
 8000fa6:	681b      	ldr	r3, [r3, #0]
 8000fa8:	4a0a      	ldr	r2, [pc, #40]	@ (8000fd4 <SPI1_Master_init+0x50>)
 8000faa:	f443 7341 	orr.w	r3, r3, #772	@ 0x304
 8000fae:	6013      	str	r3, [r2, #0]
	SPI1->CR2 |= SPI_CR2_TXDMAEN | SPI_CR2_RXDMAEN; 
 8000fb0:	4b08      	ldr	r3, [pc, #32]	@ (8000fd4 <SPI1_Master_init+0x50>)
 8000fb2:	685b      	ldr	r3, [r3, #4]
 8000fb4:	4a07      	ldr	r2, [pc, #28]	@ (8000fd4 <SPI1_Master_init+0x50>)
 8000fb6:	f043 0303 	orr.w	r3, r3, #3
 8000fba:	6053      	str	r3, [r2, #4]
	DMA_for_SPI_init();
 8000fbc:	f000 f81a 	bl	8000ff4 <DMA_for_SPI_init>
	SPI1->CR1 |= SPI_CR1_SPE;
 8000fc0:	4b04      	ldr	r3, [pc, #16]	@ (8000fd4 <SPI1_Master_init+0x50>)
 8000fc2:	681b      	ldr	r3, [r3, #0]
 8000fc4:	4a03      	ldr	r2, [pc, #12]	@ (8000fd4 <SPI1_Master_init+0x50>)
 8000fc6:	f043 0340 	orr.w	r3, r3, #64	@ 0x40
 8000fca:	6013      	str	r3, [r2, #0]
}
 8000fcc:	bf00      	nop
 8000fce:	bd80      	pop	{r7, pc}
 8000fd0:	40021000 	.word	0x40021000
 8000fd4:	40013000 	.word	0x40013000

08000fd8 <SPI_cs_set>:

void SPI_cs_set() {
 8000fd8:	b480      	push	{r7}
 8000fda:	af00      	add	r7, sp, #0
	GPIOA->ODR |= GPIO_ODR_ODR8;
 8000fdc:	4b04      	ldr	r3, [pc, #16]	@ (8000ff0 <SPI_cs_set+0x18>)
 8000fde:	68db      	ldr	r3, [r3, #12]
 8000fe0:	4a03      	ldr	r2, [pc, #12]	@ (8000ff0 <SPI_cs_set+0x18>)
 8000fe2:	f443 7380 	orr.w	r3, r3, #256	@ 0x100
 8000fe6:	60d3      	str	r3, [r2, #12]
}
 8000fe8:	bf00      	nop
 8000fea:	46bd      	mov	sp, r7
 8000fec:	bc80      	pop	{r7}
 8000fee:	4770      	bx	lr
 8000ff0:	40010800 	.word	0x40010800

08000ff4 <DMA_for_SPI_init>:

void SPI_cs_clear() {
	GPIOA->ODR &= ~GPIO_ODR_ODR8;
}

void DMA_for_SPI_init() {
 8000ff4:	b580      	push	{r7, lr}
 8000ff6:	af00      	add	r7, sp, #0
	RCC->AHBENR |= RCC_AHBENR_DMA1EN;
 8000ff8:	4b1c      	ldr	r3, [pc, #112]	@ (800106c <DMA_for_SPI_init+0x78>)
 8000ffa:	695b      	ldr	r3, [r3, #20]
 8000ffc:	4a1b      	ldr	r2, [pc, #108]	@ (800106c <DMA_for_SPI_init+0x78>)
 8000ffe:	f043 0301 	orr.w	r3, r3, #1
 8001002:	6153      	str	r3, [r2, #20]
	//2 CHANNEL - RX       3 CHANNEL - TX
	
	//3 channel - read from memory so set DIR bit
	DMA1_Channel3->CCR |= DMA_CCR_DIR | DMA_CCR_MINC | DMA_CCR_TCIE;
 8001004:	4b1a      	ldr	r3, [pc, #104]	@ (8001070 <DMA_for_SPI_init+0x7c>)
 8001006:	681b      	ldr	r3, [r3, #0]
 8001008:	4a19      	ldr	r2, [pc, #100]	@ (8001070 <DMA_for_SPI_init+0x7c>)
 800100a:	f043 0392 	orr.w	r3, r3, #146	@ 0x92
 800100e:	6013      	str	r3, [r2, #0]
	DMA1_Channel2->CCR |= DMA_CCR_MINC | DMA_CCR_TCIE;
 8001010:	4b18      	ldr	r3, [pc, #96]	@ (8001074 <DMA_for_SPI_init+0x80>)
 8001012:	681b      	ldr	r3, [r3, #0]
 8001014:	4a17      	ldr	r2, [pc, #92]	@ (8001074 <DMA_for_SPI_init+0x80>)
 8001016:	f043 0382 	orr.w	r3, r3, #130	@ 0x82
 800101a:	6013      	str	r3, [r2, #0]
	
	DMA1_Channel2->CMAR = (uint32_t)(&buffer_SPI_RX[0]);
 800101c:	4b15      	ldr	r3, [pc, #84]	@ (8001074 <DMA_for_SPI_init+0x80>)
 800101e:	4a16      	ldr	r2, [pc, #88]	@ (8001078 <DMA_for_SPI_init+0x84>)
 8001020:	60da      	str	r2, [r3, #12]
	DMA1_Channel2->CPAR = (uint32_t)(&(SPI1->DR));
 8001022:	4b14      	ldr	r3, [pc, #80]	@ (8001074 <DMA_for_SPI_init+0x80>)
 8001024:	4a15      	ldr	r2, [pc, #84]	@ (800107c <DMA_for_SPI_init+0x88>)
 8001026:	609a      	str	r2, [r3, #8]
	DMA1_Channel3->CNDTR = 0;
 8001028:	4b11      	ldr	r3, [pc, #68]	@ (8001070 <DMA_for_SPI_init+0x7c>)
 800102a:	2200      	movs	r2, #0
 800102c:	605a      	str	r2, [r3, #4]
	DMA1_Channel3->CMAR = (uint32_t)(&buffer_SPI_TX[0]);
 800102e:	4b10      	ldr	r3, [pc, #64]	@ (8001070 <DMA_for_SPI_init+0x7c>)
 8001030:	4a13      	ldr	r2, [pc, #76]	@ (8001080 <DMA_for_SPI_init+0x8c>)
 8001032:	60da      	str	r2, [r3, #12]
	DMA1_Channel3->CPAR = (uint32_t)(&(SPI1->DR));
 8001034:	4b0e      	ldr	r3, [pc, #56]	@ (8001070 <DMA_for_SPI_init+0x7c>)
 8001036:	4a11      	ldr	r2, [pc, #68]	@ (800107c <DMA_for_SPI_init+0x88>)
 8001038:	609a      	str	r2, [r3, #8]
  DMA1_Channel3->CNDTR = 0;
 800103a:	4b0d      	ldr	r3, [pc, #52]	@ (8001070 <DMA_for_SPI_init+0x7c>)
 800103c:	2200      	movs	r2, #0
 800103e:	605a      	str	r2, [r3, #4]

	SPI1->CR2 |= SPI_CR2_TXDMAEN;
 8001040:	4b10      	ldr	r3, [pc, #64]	@ (8001084 <DMA_for_SPI_init+0x90>)
 8001042:	685b      	ldr	r3, [r3, #4]
 8001044:	4a0f      	ldr	r2, [pc, #60]	@ (8001084 <DMA_for_SPI_init+0x90>)
 8001046:	f043 0302 	orr.w	r3, r3, #2
 800104a:	6053      	str	r3, [r2, #4]
	NVIC_EnableIRQ(DMA1_Channel2_IRQn);
 800104c:	200c      	movs	r0, #12
 800104e:	f7ff fef3 	bl	8000e38 <__NVIC_EnableIRQ>
	NVIC_SetPriority(DMA1_Channel2_IRQn, 1);
 8001052:	2101      	movs	r1, #1
 8001054:	200c      	movs	r0, #12
 8001056:	f7ff ff0b 	bl	8000e70 <__NVIC_SetPriority>
	NVIC_EnableIRQ(DMA1_Channel3_IRQn);
 800105a:	200d      	movs	r0, #13
 800105c:	f7ff feec 	bl	8000e38 <__NVIC_EnableIRQ>
	NVIC_SetPriority(DMA1_Channel3_IRQn, 1);
 8001060:	2101      	movs	r1, #1
 8001062:	200d      	movs	r0, #13
 8001064:	f7ff ff04 	bl	8000e70 <__NVIC_SetPriority>
}
 8001068:	bf00      	nop
 800106a:	bd80      	pop	{r7, pc}
 800106c:	40021000 	.word	0x40021000
 8001070:	40020030 	.word	0x40020030
 8001074:	4002001c 	.word	0x4002001c
 8001078:	200002e8 	.word	0x200002e8
 800107c:	4001300c 	.word	0x4001300c
 8001080:	200001e8 	.word	0x200001e8
 8001084:	40013000 	.word	0x40013000

08001088 <init_GPIO_for_I2C>:


#include "TH02.h"
uint8_t start_state = 0;

void init_GPIO_for_I2C() {
 8001088:	b480      	push	{r7}
 800108a:	af00      	add	r7, sp, #0
	RCC->APB2ENR |= RCC_APB2ENR_IOPBEN;
 800108c:	4b0d      	ldr	r3, [pc, #52]	@ (80010c4 <init_GPIO_for_I2C+0x3c>)
 800108e:	699b      	ldr	r3, [r3, #24]
 8001090:	4a0c      	ldr	r2, [pc, #48]	@ (80010c4 <init_GPIO_for_I2C+0x3c>)
 8001092:	f043 0308 	orr.w	r3, r3, #8
 8001096:	6193      	str	r3, [r2, #24]
	GPIOB->CRL &= ~GPIO_CRL_CNF6;
 8001098:	4b0b      	ldr	r3, [pc, #44]	@ (80010c8 <init_GPIO_for_I2C+0x40>)
 800109a:	681b      	ldr	r3, [r3, #0]
 800109c:	4a0a      	ldr	r2, [pc, #40]	@ (80010c8 <init_GPIO_for_I2C+0x40>)
 800109e:	f023 6340 	bic.w	r3, r3, #201326592	@ 0xc000000
 80010a2:	6013      	str	r3, [r2, #0]
	GPIOB->CRL &= ~GPIO_CRL_CNF7;
 80010a4:	4b08      	ldr	r3, [pc, #32]	@ (80010c8 <init_GPIO_for_I2C+0x40>)
 80010a6:	681b      	ldr	r3, [r3, #0]
 80010a8:	4a07      	ldr	r2, [pc, #28]	@ (80010c8 <init_GPIO_for_I2C+0x40>)
 80010aa:	f023 4340 	bic.w	r3, r3, #3221225472	@ 0xc0000000
 80010ae:	6013      	str	r3, [r2, #0]
	//AF open drain
	GPIOB->CRL |= GPIO_CRL_MODE6 | GPIO_CRL_MODE7 | GPIO_CRL_CNF6 | GPIO_CRL_CNF7;
 80010b0:	4b05      	ldr	r3, [pc, #20]	@ (80010c8 <init_GPIO_for_I2C+0x40>)
 80010b2:	681b      	ldr	r3, [r3, #0]
 80010b4:	4a04      	ldr	r2, [pc, #16]	@ (80010c8 <init_GPIO_for_I2C+0x40>)
 80010b6:	f043 437f 	orr.w	r3, r3, #4278190080	@ 0xff000000
 80010ba:	6013      	str	r3, [r2, #0]
}
 80010bc:	bf00      	nop
 80010be:	46bd      	mov	sp, r7
 80010c0:	bc80      	pop	{r7}
 80010c2:	4770      	bx	lr
 80010c4:	40021000 	.word	0x40021000
 80010c8:	40010c00 	.word	0x40010c00

080010cc <I2C_for_TH_init>:

void I2C_for_TH_init() {
 80010cc:	b580      	push	{r7, lr}
 80010ce:	af00      	add	r7, sp, #0
	init_GPIO_for_I2C();
 80010d0:	f7ff ffda 	bl	8001088 <init_GPIO_for_I2C>

	RCC->APB1ENR |= RCC_APB1ENR_I2C1EN;
 80010d4:	4b1c      	ldr	r3, [pc, #112]	@ (8001148 <I2C_for_TH_init+0x7c>)
 80010d6:	69db      	ldr	r3, [r3, #28]
 80010d8:	4a1b      	ldr	r2, [pc, #108]	@ (8001148 <I2C_for_TH_init+0x7c>)
 80010da:	f443 1300 	orr.w	r3, r3, #2097152	@ 0x200000
 80010de:	61d3      	str	r3, [r2, #28]
	I2C1->CR1 &= ~I2C_CR1_PE;
 80010e0:	4b1a      	ldr	r3, [pc, #104]	@ (800114c <I2C_for_TH_init+0x80>)
 80010e2:	681b      	ldr	r3, [r3, #0]
 80010e4:	4a19      	ldr	r2, [pc, #100]	@ (800114c <I2C_for_TH_init+0x80>)
 80010e6:	f023 0301 	bic.w	r3, r3, #1
 80010ea:	6013      	str	r3, [r2, #0]
	//I2C in stm32f103 work really strange, so i try do to all strange thing to make it work
	//but in proteus it didn't work :/ it work in real life with AHT20 sensor (because i find it for test I2C)
	I2C1->OAR2 &= ~I2C_OAR2_ENDUAL;
 80010ec:	4b17      	ldr	r3, [pc, #92]	@ (800114c <I2C_for_TH_init+0x80>)
 80010ee:	68db      	ldr	r3, [r3, #12]
 80010f0:	4a16      	ldr	r2, [pc, #88]	@ (800114c <I2C_for_TH_init+0x80>)
 80010f2:	f023 0301 	bic.w	r3, r3, #1
 80010f6:	60d3      	str	r3, [r2, #12]
	I2C1->CR1 &= ~I2C_CR1_ENGC;
 80010f8:	4b14      	ldr	r3, [pc, #80]	@ (800114c <I2C_for_TH_init+0x80>)
 80010fa:	681b      	ldr	r3, [r3, #0]
 80010fc:	4a13      	ldr	r2, [pc, #76]	@ (800114c <I2C_for_TH_init+0x80>)
 80010fe:	f023 0340 	bic.w	r3, r3, #64	@ 0x40
 8001102:	6013      	str	r3, [r2, #0]
	I2C1->CR1 &= ~I2C_CR1_NOSTRETCH;
 8001104:	4b11      	ldr	r3, [pc, #68]	@ (800114c <I2C_for_TH_init+0x80>)
 8001106:	681b      	ldr	r3, [r3, #0]
 8001108:	4a10      	ldr	r2, [pc, #64]	@ (800114c <I2C_for_TH_init+0x80>)
 800110a:	f023 0380 	bic.w	r3, r3, #128	@ 0x80
 800110e:	6013      	str	r3, [r2, #0]

	//
	I2C1->CR2 = I2C_CR2_FREQ_3; //8
 8001110:	4b0e      	ldr	r3, [pc, #56]	@ (800114c <I2C_for_TH_init+0x80>)
 8001112:	2208      	movs	r2, #8
 8001114:	605a      	str	r2, [r3, #4]
	I2C1->CCR |= 0x28;
 8001116:	4b0d      	ldr	r3, [pc, #52]	@ (800114c <I2C_for_TH_init+0x80>)
 8001118:	69db      	ldr	r3, [r3, #28]
 800111a:	4a0c      	ldr	r2, [pc, #48]	@ (800114c <I2C_for_TH_init+0x80>)
 800111c:	f043 0328 	orr.w	r3, r3, #40	@ 0x28
 8001120:	61d3      	str	r3, [r2, #28]
	I2C1->TRISE |= 0x0019;
 8001122:	4b0a      	ldr	r3, [pc, #40]	@ (800114c <I2C_for_TH_init+0x80>)
 8001124:	6a1b      	ldr	r3, [r3, #32]
 8001126:	4a09      	ldr	r2, [pc, #36]	@ (800114c <I2C_for_TH_init+0x80>)
 8001128:	f043 0319 	orr.w	r3, r3, #25
 800112c:	6213      	str	r3, [r2, #32]
	I2C1->CR1 |= 0x00000000;
 800112e:	4b07      	ldr	r3, [pc, #28]	@ (800114c <I2C_for_TH_init+0x80>)
 8001130:	4a06      	ldr	r2, [pc, #24]	@ (800114c <I2C_for_TH_init+0x80>)
 8001132:	681b      	ldr	r3, [r3, #0]
 8001134:	6013      	str	r3, [r2, #0]
	I2C1->CR1 |= I2C_CR1_PE;
 8001136:	4b05      	ldr	r3, [pc, #20]	@ (800114c <I2C_for_TH_init+0x80>)
 8001138:	681b      	ldr	r3, [r3, #0]
 800113a:	4a04      	ldr	r2, [pc, #16]	@ (800114c <I2C_for_TH_init+0x80>)
 800113c:	f043 0301 	orr.w	r3, r3, #1
 8001140:	6013      	str	r3, [r2, #0]
}
 8001142:	bf00      	nop
 8001144:	bd80      	pop	{r7, pc}
 8001146:	bf00      	nop
 8001148:	40021000 	.word	0x40021000
 800114c:	40005400 	.word	0x40005400

08001150 <I2C_TH_SendByte>:

void I2C_TH_SendByte(uint8_t addr, uint8_t byte) {
 8001150:	b480      	push	{r7}
 8001152:	b083      	sub	sp, #12
 8001154:	af00      	add	r7, sp, #0
 8001156:	4603      	mov	r3, r0
 8001158:	460a      	mov	r2, r1
 800115a:	71fb      	strb	r3, [r7, #7]
 800115c:	4613      	mov	r3, r2
 800115e:	71bb      	strb	r3, [r7, #6]
	//all I2C operation done in match with datasheet (rm091 smth like that)
	I2C1->CR1 |= I2C_CR1_ACK;
 8001160:	4b1c      	ldr	r3, [pc, #112]	@ (80011d4 <I2C_TH_SendByte+0x84>)
 8001162:	681b      	ldr	r3, [r3, #0]
 8001164:	4a1b      	ldr	r2, [pc, #108]	@ (80011d4 <I2C_TH_SendByte+0x84>)
 8001166:	f443 6380 	orr.w	r3, r3, #1024	@ 0x400
 800116a:	6013      	str	r3, [r2, #0]
	I2C1->CR1 |= I2C_CR1_START;
 800116c:	4b19      	ldr	r3, [pc, #100]	@ (80011d4 <I2C_TH_SendByte+0x84>)
 800116e:	681b      	ldr	r3, [r3, #0]
 8001170:	4a18      	ldr	r2, [pc, #96]	@ (80011d4 <I2C_TH_SendByte+0x84>)
 8001172:	f443 7380 	orr.w	r3, r3, #256	@ 0x100
 8001176:	6013      	str	r3, [r2, #0]
	while((I2C1->SR1 & I2C_SR1_SB) != I2C_SR1_SB);
 8001178:	bf00      	nop
 800117a:	4b16      	ldr	r3, [pc, #88]	@ (80011d4 <I2C_TH_SendByte+0x84>)
 800117c:	695b      	ldr	r3, [r3, #20]
 800117e:	f003 0301 	and.w	r3, r3, #1
 8001182:	2b01      	cmp	r3, #1
 8001184:	d1f9      	bne.n	800117a <I2C_TH_SendByte+0x2a>
	(void) I2C1->SR1;
 8001186:	4b13      	ldr	r3, [pc, #76]	@ (80011d4 <I2C_TH_SendByte+0x84>)
 8001188:	695b      	ldr	r3, [r3, #20]
	I2C1->DR = (addr << 1) | 0x00;
 800118a:	79fb      	ldrb	r3, [r7, #7]
 800118c:	4a11      	ldr	r2, [pc, #68]	@ (80011d4 <I2C_TH_SendByte+0x84>)
 800118e:	005b      	lsls	r3, r3, #1
 8001190:	6113      	str	r3, [r2, #16]
	while((I2C1->SR1 & I2C_SR1_ADDR) != I2C_SR1_ADDR);
 8001192:	bf00      	nop
 8001194:	4b0f      	ldr	r3, [pc, #60]	@ (80011d4 <I2C_TH_SendByte+0x84>)
 8001196:	695b      	ldr	r3, [r3, #20]
 8001198:	f003 0302 	and.w	r3, r3, #2
 800119c:	2b02      	cmp	r3, #2
 800119e:	d1f9      	bne.n	8001194 <I2C_TH_SendByte+0x44>
	//again all done in match with datasheet, so there was info that need to clear that bytes by reading
	(void) I2C1->SR1;  // clear ADDR
 80011a0:	4b0c      	ldr	r3, [pc, #48]	@ (80011d4 <I2C_TH_SendByte+0x84>)
 80011a2:	695b      	ldr	r3, [r3, #20]
	(void) I2C1->SR2;  // clear ADDR
 80011a4:	4b0b      	ldr	r3, [pc, #44]	@ (80011d4 <I2C_TH_SendByte+0x84>)
 80011a6:	699b      	ldr	r3, [r3, #24]
	I2C1->DR= byte;
 80011a8:	4a0a      	ldr	r2, [pc, #40]	@ (80011d4 <I2C_TH_SendByte+0x84>)
 80011aa:	79bb      	ldrb	r3, [r7, #6]
 80011ac:	6113      	str	r3, [r2, #16]
	while((I2C1->SR1 & I2C_SR1_TXE) != I2C_SR1_TXE);
 80011ae:	bf00      	nop
 80011b0:	4b08      	ldr	r3, [pc, #32]	@ (80011d4 <I2C_TH_SendByte+0x84>)
 80011b2:	695b      	ldr	r3, [r3, #20]
 80011b4:	f003 0380 	and.w	r3, r3, #128	@ 0x80
 80011b8:	2b80      	cmp	r3, #128	@ 0x80
 80011ba:	d1f9      	bne.n	80011b0 <I2C_TH_SendByte+0x60>
	I2C1->CR1 |= I2C_CR1_STOP;
 80011bc:	4b05      	ldr	r3, [pc, #20]	@ (80011d4 <I2C_TH_SendByte+0x84>)
 80011be:	681b      	ldr	r3, [r3, #0]
 80011c0:	4a04      	ldr	r2, [pc, #16]	@ (80011d4 <I2C_TH_SendByte+0x84>)
 80011c2:	f443 7300 	orr.w	r3, r3, #512	@ 0x200
 80011c6:	6013      	str	r3, [r2, #0]
}
 80011c8:	bf00      	nop
 80011ca:	370c      	adds	r7, #12
 80011cc:	46bd      	mov	sp, r7
 80011ce:	bc80      	pop	{r7}
 80011d0:	4770      	bx	lr
 80011d2:	bf00      	nop
 80011d4:	40005400 	.word	0x40005400

080011d8 <I2C_TH_Send_NBytes>:

void I2C_TH_Send_NBytes(uint8_t addr, uint8_t *data, uint8_t size) {
 80011d8:	b480      	push	{r7}
 80011da:	b085      	sub	sp, #20
 80011dc:	af00      	add	r7, sp, #0
 80011de:	4603      	mov	r3, r0
 80011e0:	6039      	str	r1, [r7, #0]
 80011e2:	71fb      	strb	r3, [r7, #7]
 80011e4:	4613      	mov	r3, r2
 80011e6:	71bb      	strb	r3, [r7, #6]
	//all I2C operation done in match with datasheet (rm091 smth like that)
	I2C1->CR1 |= I2C_CR1_START;
 80011e8:	4b1f      	ldr	r3, [pc, #124]	@ (8001268 <I2C_TH_Send_NBytes+0x90>)
 80011ea:	681b      	ldr	r3, [r3, #0]
 80011ec:	4a1e      	ldr	r2, [pc, #120]	@ (8001268 <I2C_TH_Send_NBytes+0x90>)
 80011ee:	f443 7380 	orr.w	r3, r3, #256	@ 0x100
 80011f2:	6013      	str	r3, [r2, #0]
	while((I2C1->SR1 & I2C_SR1_SB) != I2C_SR1_SB);
 80011f4:	bf00      	nop
 80011f6:	4b1c      	ldr	r3, [pc, #112]	@ (8001268 <I2C_TH_Send_NBytes+0x90>)
 80011f8:	695b      	ldr	r3, [r3, #20]
 80011fa:	f003 0301 	and.w	r3, r3, #1
 80011fe:	2b01      	cmp	r3, #1
 8001200:	d1f9      	bne.n	80011f6 <I2C_TH_Send_NBytes+0x1e>
	(void) I2C1->SR1;
 8001202:	4b19      	ldr	r3, [pc, #100]	@ (8001268 <I2C_TH_Send_NBytes+0x90>)
 8001204:	695b      	ldr	r3, [r3, #20]
	I2C1->DR = (addr << 1) | 0x00;
 8001206:	79fb      	ldrb	r3, [r7, #7]
 8001208:	4a17      	ldr	r2, [pc, #92]	@ (8001268 <I2C_TH_Send_NBytes+0x90>)
 800120a:	005b      	lsls	r3, r3, #1
 800120c:	6113      	str	r3, [r2, #16]
	//again all done in match with datasheet, so there was info that need to clear that bytes by reading
	while((I2C1->SR1 & I2C_SR1_ADDR) != I2C_SR1_ADDR);
 800120e:	bf00      	nop
 8001210:	4b15      	ldr	r3, [pc, #84]	@ (8001268 <I2C_TH_Send_NBytes+0x90>)
 8001212:	695b      	ldr	r3, [r3, #20]
 8001214:	f003 0302 	and.w	r3, r3, #2
 8001218:	2b02      	cmp	r3, #2
 800121a:	d1f9      	bne.n	8001210 <I2C_TH_Send_NBytes+0x38>
	(void) I2C1->SR1;  // clear ADDR
 800121c:	4b12      	ldr	r3, [pc, #72]	@ (8001268 <I2C_TH_Send_NBytes+0x90>)
 800121e:	695b      	ldr	r3, [r3, #20]
	(void) I2C1->SR2;  // clear ADDR
 8001220:	4b11      	ldr	r3, [pc, #68]	@ (8001268 <I2C_TH_Send_NBytes+0x90>)
 8001222:	699b      	ldr	r3, [r3, #24]
	for (uint8_t i = 0; i < size; i++)
 8001224:	2300      	movs	r3, #0
 8001226:	73fb      	strb	r3, [r7, #15]
 8001228:	e00f      	b.n	800124a <I2C_TH_Send_NBytes+0x72>
	{
		I2C1->DR = data[i];
 800122a:	7bfb      	ldrb	r3, [r7, #15]
 800122c:	683a      	ldr	r2, [r7, #0]
 800122e:	4413      	add	r3, r2
 8001230:	781a      	ldrb	r2, [r3, #0]
 8001232:	4b0d      	ldr	r3, [pc, #52]	@ (8001268 <I2C_TH_Send_NBytes+0x90>)
 8001234:	611a      	str	r2, [r3, #16]
		while((I2C1->SR1 & I2C_SR1_TXE) != I2C_SR1_TXE);
 8001236:	bf00      	nop
 8001238:	4b0b      	ldr	r3, [pc, #44]	@ (8001268 <I2C_TH_Send_NBytes+0x90>)
 800123a:	695b      	ldr	r3, [r3, #20]
 800123c:	f003 0380 	and.w	r3, r3, #128	@ 0x80
 8001240:	2b80      	cmp	r3, #128	@ 0x80
 8001242:	d1f9      	bne.n	8001238 <I2C_TH_Send_NBytes+0x60>
	for (uint8_t i = 0; i < size; i++)
 8001244:	7bfb      	ldrb	r3, [r7, #15]
 8001246:	3301      	adds	r3, #1
 8001248:	73fb      	strb	r3, [r7, #15]
 800124a:	7bfa      	ldrb	r2, [r7, #15]
 800124c:	79bb      	ldrb	r3, [r7, #6]
 800124e:	429a      	cmp	r2, r3
 8001250:	d3eb      	bcc.n	800122a <I2C_TH_Send_NBytes+0x52>
	}
	
	I2C1->CR1 |= I2C_CR1_STOP;
 8001252:	4b05      	ldr	r3, [pc, #20]	@ (8001268 <I2C_TH_Send_NBytes+0x90>)
 8001254:	681b      	ldr	r3, [r3, #0]
 8001256:	4a04      	ldr	r2, [pc, #16]	@ (8001268 <I2C_TH_Send_NBytes+0x90>)
 8001258:	f443 7300 	orr.w	r3, r3, #512	@ 0x200
 800125c:	6013      	str	r3, [r2, #0]
}
 800125e:	bf00      	nop
 8001260:	3714      	adds	r7, #20
 8001262:	46bd      	mov	sp, r7
 8001264:	bc80      	pop	{r7}
 8001266:	4770      	bx	lr
 8001268:	40005400 	.word	0x40005400

0800126c <I2C_Get_Data>:


void I2C_Get_Data(uint8_t addr, uint8_t *data, uint8_t size) {
 800126c:	b480      	push	{r7}
 800126e:	b085      	sub	sp, #20
 8001270:	af00      	add	r7, sp, #0
 8001272:	4603      	mov	r3, r0
 8001274:	6039      	str	r1, [r7, #0]
 8001276:	71fb      	strb	r3, [r7, #7]
 8001278:	4613      	mov	r3, r2
 800127a:	71bb      	strb	r3, [r7, #6]
	//all I2C operation done in match with datasheet (rm091 smth like that)
	while((I2C1->SR2 & I2C_SR2_BUSY) == I2C_SR2_BUSY);
 800127c:	bf00      	nop
 800127e:	4b36      	ldr	r3, [pc, #216]	@ (8001358 <I2C_Get_Data+0xec>)
 8001280:	699b      	ldr	r3, [r3, #24]
 8001282:	f003 0302 	and.w	r3, r3, #2
 8001286:	2b02      	cmp	r3, #2
 8001288:	d0f9      	beq.n	800127e <I2C_Get_Data+0x12>
	I2C1->CR1 |= I2C_CR1_ACK;
 800128a:	4b33      	ldr	r3, [pc, #204]	@ (8001358 <I2C_Get_Data+0xec>)
 800128c:	681b      	ldr	r3, [r3, #0]
 800128e:	4a32      	ldr	r2, [pc, #200]	@ (8001358 <I2C_Get_Data+0xec>)
 8001290:	f443 6380 	orr.w	r3, r3, #1024	@ 0x400
 8001294:	6013      	str	r3, [r2, #0]
	I2C1->CR1 |= I2C_CR1_START;
 8001296:	4b30      	ldr	r3, [pc, #192]	@ (8001358 <I2C_Get_Data+0xec>)
 8001298:	681b      	ldr	r3, [r3, #0]
 800129a:	4a2f      	ldr	r2, [pc, #188]	@ (8001358 <I2C_Get_Data+0xec>)
 800129c:	f443 7380 	orr.w	r3, r3, #256	@ 0x100
 80012a0:	6013      	str	r3, [r2, #0]
	while((I2C1->SR1 & I2C_SR1_SB) != I2C_SR1_SB);
 80012a2:	bf00      	nop
 80012a4:	4b2c      	ldr	r3, [pc, #176]	@ (8001358 <I2C_Get_Data+0xec>)
 80012a6:	695b      	ldr	r3, [r3, #20]
 80012a8:	f003 0301 	and.w	r3, r3, #1
 80012ac:	2b01      	cmp	r3, #1
 80012ae:	d1f9      	bne.n	80012a4 <I2C_Get_Data+0x38>
	(void) I2C1->SR1;
 80012b0:	4b29      	ldr	r3, [pc, #164]	@ (8001358 <I2C_Get_Data+0xec>)
 80012b2:	695b      	ldr	r3, [r3, #20]
	I2C1->DR = (addr << 1) | 0x01;
 80012b4:	79fb      	ldrb	r3, [r7, #7]
 80012b6:	005b      	lsls	r3, r3, #1
 80012b8:	f043 0201 	orr.w	r2, r3, #1
 80012bc:	4b26      	ldr	r3, [pc, #152]	@ (8001358 <I2C_Get_Data+0xec>)
 80012be:	611a      	str	r2, [r3, #16]
	int i = 0;
 80012c0:	2300      	movs	r3, #0
 80012c2:	60bb      	str	r3, [r7, #8]
	while((I2C1->SR1 & I2C_SR1_ADDR) != I2C_SR1_ADDR);
 80012c4:	bf00      	nop
 80012c6:	4b24      	ldr	r3, [pc, #144]	@ (8001358 <I2C_Get_Data+0xec>)
 80012c8:	695b      	ldr	r3, [r3, #20]
 80012ca:	f003 0302 	and.w	r3, r3, #2
 80012ce:	2b02      	cmp	r3, #2
 80012d0:	d1f9      	bne.n	80012c6 <I2C_Get_Data+0x5a>
	(void) I2C1->SR1;  // clear ADDR
 80012d2:	4b21      	ldr	r3, [pc, #132]	@ (8001358 <I2C_Get_Data+0xec>)
 80012d4:	695b      	ldr	r3, [r3, #20]
	(void) I2C1->SR2;  // clear ADDR
 80012d6:	4b20      	ldr	r3, [pc, #128]	@ (8001358 <I2C_Get_Data+0xec>)
 80012d8:	699b      	ldr	r3, [r3, #24]
	for(int i = 0;i < size; i++)
 80012da:	2300      	movs	r3, #0
 80012dc:	60fb      	str	r3, [r7, #12]
 80012de:	e030      	b.n	8001342 <I2C_Get_Data+0xd6>
	{
    if(i < size - 1)
 80012e0:	79bb      	ldrb	r3, [r7, #6]
 80012e2:	3b01      	subs	r3, #1
 80012e4:	68fa      	ldr	r2, [r7, #12]
 80012e6:	429a      	cmp	r2, r3
 80012e8:	da0e      	bge.n	8001308 <I2C_Get_Data+0x9c>
    {
      while ((I2C1->SR1 & I2C_SR1_RXNE) != I2C_SR1_RXNE);
 80012ea:	bf00      	nop
 80012ec:	4b1a      	ldr	r3, [pc, #104]	@ (8001358 <I2C_Get_Data+0xec>)
 80012ee:	695b      	ldr	r3, [r3, #20]
 80012f0:	f003 0340 	and.w	r3, r3, #64	@ 0x40
 80012f4:	2b40      	cmp	r3, #64	@ 0x40
 80012f6:	d1f9      	bne.n	80012ec <I2C_Get_Data+0x80>
      data[i] = I2C1->DR & 0xFF;
 80012f8:	4b17      	ldr	r3, [pc, #92]	@ (8001358 <I2C_Get_Data+0xec>)
 80012fa:	6919      	ldr	r1, [r3, #16]
 80012fc:	68fb      	ldr	r3, [r7, #12]
 80012fe:	683a      	ldr	r2, [r7, #0]
 8001300:	4413      	add	r3, r2
 8001302:	b2ca      	uxtb	r2, r1
 8001304:	701a      	strb	r2, [r3, #0]
 8001306:	e019      	b.n	800133c <I2C_Get_Data+0xd0>
    }
    else
    {
    		//last transfer need to set NACK in order to stop transfer from slave
			I2C1->CR1 &= ~I2C_CR1_ACK;
 8001308:	4b13      	ldr	r3, [pc, #76]	@ (8001358 <I2C_Get_Data+0xec>)
 800130a:	681b      	ldr	r3, [r3, #0]
 800130c:	4a12      	ldr	r2, [pc, #72]	@ (8001358 <I2C_Get_Data+0xec>)
 800130e:	f423 6380 	bic.w	r3, r3, #1024	@ 0x400
 8001312:	6013      	str	r3, [r2, #0]
			I2C1->CR1 |= I2C_CR1_STOP;
 8001314:	4b10      	ldr	r3, [pc, #64]	@ (8001358 <I2C_Get_Data+0xec>)
 8001316:	681b      	ldr	r3, [r3, #0]
 8001318:	4a0f      	ldr	r2, [pc, #60]	@ (8001358 <I2C_Get_Data+0xec>)
 800131a:	f443 7300 	orr.w	r3, r3, #512	@ 0x200
 800131e:	6013      	str	r3, [r2, #0]
			while ((I2C1->SR1 & I2C_SR1_RXNE) != I2C_SR1_RXNE);
 8001320:	bf00      	nop
 8001322:	4b0d      	ldr	r3, [pc, #52]	@ (8001358 <I2C_Get_Data+0xec>)
 8001324:	695b      	ldr	r3, [r3, #20]
 8001326:	f003 0340 	and.w	r3, r3, #64	@ 0x40
 800132a:	2b40      	cmp	r3, #64	@ 0x40
 800132c:	d1f9      	bne.n	8001322 <I2C_Get_Data+0xb6>
			data[i] = I2C1->DR & 0xFF;
 800132e:	4b0a      	ldr	r3, [pc, #40]	@ (8001358 <I2C_Get_Data+0xec>)
 8001330:	6919      	ldr	r1, [r3, #16]
 8001332:	68fb      	ldr	r3, [r7, #12]
 8001334:	683a      	ldr	r2, [r7, #0]
 8001336:	4413      	add	r3, r2
 8001338:	b2ca      	uxtb	r2, r1
 800133a:	701a      	strb	r2, [r3, #0]
	for(int i = 0;i < size; i++)
 800133c:	68fb      	ldr	r3, [r7, #12]
 800133e:	3301      	adds	r3, #1
 8001340:	60fb      	str	r3, [r7, #12]
 8001342:	79bb      	ldrb	r3, [r7, #6]
 8001344:	68fa      	ldr	r2, [r7, #12]
 8001346:	429a      	cmp	r2, r3
 8001348:	dbca      	blt.n	80012e0 <I2C_Get_Data+0x74>
    }
	}
}
 800134a:	bf00      	nop
 800134c:	bf00      	nop
 800134e:	3714      	adds	r7, #20
 8001350:	46bd      	mov	sp, r7
 8001352:	bc80      	pop	{r7}
 8001354:	4770      	bx	lr
 8001356:	bf00      	nop
 8001358:	40005400 	.word	0x40005400

0800135c <TH_measure_temperature>:

void TH_measure_temperature() {
 800135c:	b580      	push	{r7, lr}
 800135e:	b084      	sub	sp, #16
 8001360:	af00      	add	r7, sp, #0
	//send command for start measurement
	if(start_state == 0) {
 8001362:	4b1f      	ldr	r3, [pc, #124]	@ (80013e0 <TH_measure_temperature+0x84>)
 8001364:	781b      	ldrb	r3, [r3, #0]
 8001366:	2b00      	cmp	r3, #0
 8001368:	d10c      	bne.n	8001384 <TH_measure_temperature+0x28>
		uint8_t data[2] = {0x03, 0x01};
 800136a:	f240 1303 	movw	r3, #259	@ 0x103
 800136e:	80bb      	strh	r3, [r7, #4]
		I2C_TH_Send_NBytes(TH_ADDRESS, &data[0], 2);
 8001370:	1d3b      	adds	r3, r7, #4
 8001372:	2202      	movs	r2, #2
 8001374:	4619      	mov	r1, r3
 8001376:	2040      	movs	r0, #64	@ 0x40
 8001378:	f7ff ff2e 	bl	80011d8 <I2C_TH_Send_NBytes>
		start_state = 1;
 800137c:	4b18      	ldr	r3, [pc, #96]	@ (80013e0 <TH_measure_temperature+0x84>)
 800137e:	2201      	movs	r2, #1
 8001380:	701a      	strb	r2, [r3, #0]
 8001382:	e029      	b.n	80013d8 <TH_measure_temperature+0x7c>
		return;
	}
	
	///there are need to be done some timing or FSM like in DS18B20 but i really want to make it work in PROTEUS and don't have much time
	///maybe i would not forget to write it...
	for(int i = 0; i < 100000; i++);
 8001384:	2300      	movs	r3, #0
 8001386:	60fb      	str	r3, [r7, #12]
 8001388:	e002      	b.n	8001390 <TH_measure_temperature+0x34>
 800138a:	68fb      	ldr	r3, [r7, #12]
 800138c:	3301      	adds	r3, #1
 800138e:	60fb      	str	r3, [r7, #12]
 8001390:	68fb      	ldr	r3, [r7, #12]
 8001392:	4a14      	ldr	r2, [pc, #80]	@ (80013e4 <TH_measure_temperature+0x88>)
 8001394:	4293      	cmp	r3, r2
 8001396:	ddf8      	ble.n	800138a <TH_measure_temperature+0x2e>

	//read temperature and humidity from TH02 and convert it
	uint8_t result[2];
	I2C_TH_SendByte(TH_ADDRESS, 0x01);
 8001398:	2101      	movs	r1, #1
 800139a:	2040      	movs	r0, #64	@ 0x40
 800139c:	f7ff fed8 	bl	8001150 <I2C_TH_SendByte>
	I2C_Get_Data(TH_ADDRESS, &(result[0]), 2);
 80013a0:	f107 0308 	add.w	r3, r7, #8
 80013a4:	2202      	movs	r2, #2
 80013a6:	4619      	mov	r1, r3
 80013a8:	2040      	movs	r0, #64	@ 0x40
 80013aa:	f7ff ff5f 	bl	800126c <I2C_Get_Data>
	uint16_t buffer = (result[0]) | (result[1] << 8);
 80013ae:	7a3b      	ldrb	r3, [r7, #8]
 80013b0:	b21a      	sxth	r2, r3
 80013b2:	7a7b      	ldrb	r3, [r7, #9]
 80013b4:	021b      	lsls	r3, r3, #8
 80013b6:	b21b      	sxth	r3, r3
 80013b8:	4313      	orrs	r3, r2
 80013ba:	b21b      	sxth	r3, r3
 80013bc:	817b      	strh	r3, [r7, #10]
	output_data.temperature_TH02 = (float)(buffer/32 - 50);
 80013be:	897b      	ldrh	r3, [r7, #10]
 80013c0:	095b      	lsrs	r3, r3, #5
 80013c2:	b29b      	uxth	r3, r3
 80013c4:	3b32      	subs	r3, #50	@ 0x32
 80013c6:	4618      	mov	r0, r3
 80013c8:	f7ff fcdc 	bl	8000d84 <__aeabi_i2f>
 80013cc:	4603      	mov	r3, r0
 80013ce:	4a06      	ldr	r2, [pc, #24]	@ (80013e8 <TH_measure_temperature+0x8c>)
 80013d0:	6053      	str	r3, [r2, #4]
	start_state = 0;
 80013d2:	4b03      	ldr	r3, [pc, #12]	@ (80013e0 <TH_measure_temperature+0x84>)
 80013d4:	2200      	movs	r2, #0
 80013d6:	701a      	strb	r2, [r3, #0]

}
 80013d8:	3710      	adds	r7, #16
 80013da:	46bd      	mov	sp, r7
 80013dc:	bd80      	pop	{r7, pc}
 80013de:	bf00      	nop
 80013e0:	200003e7 	.word	0x200003e7
 80013e4:	0001869f 	.word	0x0001869f
 80013e8:	200003e8 	.word	0x200003e8

080013ec <__NVIC_EnableIRQ>:
{
 80013ec:	b480      	push	{r7}
 80013ee:	b083      	sub	sp, #12
 80013f0:	af00      	add	r7, sp, #0
 80013f2:	4603      	mov	r3, r0
 80013f4:	71fb      	strb	r3, [r7, #7]
  if ((int32_t)(IRQn) >= 0)
 80013f6:	f997 3007 	ldrsb.w	r3, [r7, #7]
 80013fa:	2b00      	cmp	r3, #0
 80013fc:	db0b      	blt.n	8001416 <__NVIC_EnableIRQ+0x2a>
    NVIC->ISER[(((uint32_t)IRQn) >> 5UL)] = (uint32_t)(1UL << (((uint32_t)IRQn) & 0x1FUL));
 80013fe:	79fb      	ldrb	r3, [r7, #7]
 8001400:	f003 021f 	and.w	r2, r3, #31
 8001404:	4906      	ldr	r1, [pc, #24]	@ (8001420 <__NVIC_EnableIRQ+0x34>)
 8001406:	f997 3007 	ldrsb.w	r3, [r7, #7]
 800140a:	095b      	lsrs	r3, r3, #5
 800140c:	2001      	movs	r0, #1
 800140e:	fa00 f202 	lsl.w	r2, r0, r2
 8001412:	f841 2023 	str.w	r2, [r1, r3, lsl #2]
}
 8001416:	bf00      	nop
 8001418:	370c      	adds	r7, #12
 800141a:	46bd      	mov	sp, r7
 800141c:	bc80      	pop	{r7}
 800141e:	4770      	bx	lr
 8001420:	e000e100 	.word	0xe000e100

08001424 <__NVIC_SetPriority>:
{
 8001424:	b480      	push	{r7}
 8001426:	b083      	sub	sp, #12
 8001428:	af00      	add	r7, sp, #0
 800142a:	4603      	mov	r3, r0
 800142c:	6039      	str	r1, [r7, #0]
 800142e:	71fb      	strb	r3, [r7, #7]
  if ((int32_t)(IRQn) >= 0)
 8001430:	f997 3007 	ldrsb.w	r3, [r7, #7]
 8001434:	2b00      	cmp	r3, #0
 8001436:	db0a      	blt.n	800144e <__NVIC_SetPriority+0x2a>
    NVIC->IP[((uint32_t)IRQn)]               = (uint8_t)((priority << (8U - __NVIC_PRIO_BITS)) & (uint32_t)0xFFUL);
 8001438:	683b      	ldr	r3, [r7, #0]
 800143a:	b2da      	uxtb	r2, r3
 800143c:	490c      	ldr	r1, [pc, #48]	@ (8001470 <__NVIC_SetPriority+0x4c>)
 800143e:	f997 3007 	ldrsb.w	r3, [r7, #7]
 8001442:	0112      	lsls	r2, r2, #4
 8001444:	b2d2      	uxtb	r2, r2
 8001446:	440b      	add	r3, r1
 8001448:	f883 2300 	strb.w	r2, [r3, #768]	@ 0x300
}
 800144c:	e00a      	b.n	8001464 <__NVIC_SetPriority+0x40>
    SCB->SHP[(((uint32_t)IRQn) & 0xFUL)-4UL] = (uint8_t)((priority << (8U - __NVIC_PRIO_BITS)) & (uint32_t)0xFFUL);
 800144e:	683b      	ldr	r3, [r7, #0]
 8001450:	b2da      	uxtb	r2, r3
 8001452:	4908      	ldr	r1, [pc, #32]	@ (8001474 <__NVIC_SetPriority+0x50>)
 8001454:	79fb      	ldrb	r3, [r7, #7]
 8001456:	f003 030f 	and.w	r3, r3, #15
 800145a:	3b04      	subs	r3, #4
 800145c:	0112      	lsls	r2, r2, #4
 800145e:	b2d2      	uxtb	r2, r2
 8001460:	440b      	add	r3, r1
 8001462:	761a      	strb	r2, [r3, #24]
}
 8001464:	bf00      	nop
 8001466:	370c      	adds	r7, #12
 8001468:	46bd      	mov	sp, r7
 800146a:	bc80      	pop	{r7}
 800146c:	4770      	bx	lr
 800146e:	bf00      	nop
 8001470:	e000e100 	.word	0xe000e100
 8001474:	e000ed00 	.word	0xe000ed00

08001478 <DMA1_Channel4_IRQHandler>:
 *      Author: denlo
 */

#include "UART_for_PC.h"

void DMA1_Channel4_IRQHandler(void) {
 8001478:	b480      	push	{r7}
 800147a:	af00      	add	r7, sp, #0
	DMA1->IFCR |= DMA_IFCR_CTCIF4;
 800147c:	4b07      	ldr	r3, [pc, #28]	@ (800149c <DMA1_Channel4_IRQHandler+0x24>)
 800147e:	685b      	ldr	r3, [r3, #4]
 8001480:	4a06      	ldr	r2, [pc, #24]	@ (800149c <DMA1_Channel4_IRQHandler+0x24>)
 8001482:	f443 5300 	orr.w	r3, r3, #8192	@ 0x2000
 8001486:	6053      	str	r3, [r2, #4]
	DMA1_Channel4->CCR &= ~DMA_CCR_EN;
 8001488:	4b05      	ldr	r3, [pc, #20]	@ (80014a0 <DMA1_Channel4_IRQHandler+0x28>)
 800148a:	681b      	ldr	r3, [r3, #0]
 800148c:	4a04      	ldr	r2, [pc, #16]	@ (80014a0 <DMA1_Channel4_IRQHandler+0x28>)
 800148e:	f023 0301 	bic.w	r3, r3, #1
 8001492:	6013      	str	r3, [r2, #0]
}
 8001494:	bf00      	nop
 8001496:	46bd      	mov	sp, r7
 8001498:	bc80      	pop	{r7}
 800149a:	4770      	bx	lr
 800149c:	40020000 	.word	0x40020000
 80014a0:	40020044 	.word	0x40020044

080014a4 <init_GPIO_for_USART>:

void init_GPIO_for_USART() {
 80014a4:	b480      	push	{r7}
 80014a6:	af00      	add	r7, sp, #0
	RCC->APB2ENR |= RCC_APB2ENR_IOPAEN;
 80014a8:	4b07      	ldr	r3, [pc, #28]	@ (80014c8 <init_GPIO_for_USART+0x24>)
 80014aa:	699b      	ldr	r3, [r3, #24]
 80014ac:	4a06      	ldr	r2, [pc, #24]	@ (80014c8 <init_GPIO_for_USART+0x24>)
 80014ae:	f043 0304 	orr.w	r3, r3, #4
 80014b2:	6193      	str	r3, [r2, #24]
	GPIOA->CRH |= GPIO_CRH_MODE9 | GPIO_CRH_CNF9_1;
 80014b4:	4b05      	ldr	r3, [pc, #20]	@ (80014cc <init_GPIO_for_USART+0x28>)
 80014b6:	685b      	ldr	r3, [r3, #4]
 80014b8:	4a04      	ldr	r2, [pc, #16]	@ (80014cc <init_GPIO_for_USART+0x28>)
 80014ba:	f043 03b0 	orr.w	r3, r3, #176	@ 0xb0
 80014be:	6053      	str	r3, [r2, #4]
}
 80014c0:	bf00      	nop
 80014c2:	46bd      	mov	sp, r7
 80014c4:	bc80      	pop	{r7}
 80014c6:	4770      	bx	lr
 80014c8:	40021000 	.word	0x40021000
 80014cc:	40010800 	.word	0x40010800

080014d0 <init_USART>:

void init_USART() {
 80014d0:	b580      	push	{r7, lr}
 80014d2:	af00      	add	r7, sp, #0
	init_GPIO_for_USART();
 80014d4:	f7ff ffe6 	bl	80014a4 <init_GPIO_for_USART>
	init_DMA_for_USART();
 80014d8:	f000 f82a 	bl	8001530 <init_DMA_for_USART>

	RCC->APB2ENR |= RCC_APB2ENR_USART1EN;
 80014dc:	4b10      	ldr	r3, [pc, #64]	@ (8001520 <init_USART+0x50>)
 80014de:	699b      	ldr	r3, [r3, #24]
 80014e0:	4a0f      	ldr	r2, [pc, #60]	@ (8001520 <init_USART+0x50>)
 80014e2:	f443 4380 	orr.w	r3, r3, #16384	@ 0x4000
 80014e6:	6193      	str	r3, [r2, #24]
	USART1->CR1 |= USART_CR1_TE;
 80014e8:	4b0e      	ldr	r3, [pc, #56]	@ (8001524 <init_USART+0x54>)
 80014ea:	68db      	ldr	r3, [r3, #12]
 80014ec:	4a0d      	ldr	r2, [pc, #52]	@ (8001524 <init_USART+0x54>)
 80014ee:	f043 0308 	orr.w	r3, r3, #8
 80014f2:	60d3      	str	r3, [r2, #12]
	USART1->BRR = SystemCoreClock / 115200;
 80014f4:	4b0c      	ldr	r3, [pc, #48]	@ (8001528 <init_USART+0x58>)
 80014f6:	681b      	ldr	r3, [r3, #0]
 80014f8:	4a0a      	ldr	r2, [pc, #40]	@ (8001524 <init_USART+0x54>)
 80014fa:	490c      	ldr	r1, [pc, #48]	@ (800152c <init_USART+0x5c>)
 80014fc:	fba1 1303 	umull	r1, r3, r1, r3
 8001500:	0c1b      	lsrs	r3, r3, #16
 8001502:	6093      	str	r3, [r2, #8]
	USART1->CR3 |= USART_CR3_DMAT;
 8001504:	4b07      	ldr	r3, [pc, #28]	@ (8001524 <init_USART+0x54>)
 8001506:	695b      	ldr	r3, [r3, #20]
 8001508:	4a06      	ldr	r2, [pc, #24]	@ (8001524 <init_USART+0x54>)
 800150a:	f043 0380 	orr.w	r3, r3, #128	@ 0x80
 800150e:	6153      	str	r3, [r2, #20]
	USART1->CR1 |= USART_CR1_UE;
 8001510:	4b04      	ldr	r3, [pc, #16]	@ (8001524 <init_USART+0x54>)
 8001512:	68db      	ldr	r3, [r3, #12]
 8001514:	4a03      	ldr	r2, [pc, #12]	@ (8001524 <init_USART+0x54>)
 8001516:	f443 5300 	orr.w	r3, r3, #8192	@ 0x2000
 800151a:	60d3      	str	r3, [r2, #12]
}
 800151c:	bf00      	nop
 800151e:	bd80      	pop	{r7, pc}
 8001520:	40021000 	.word	0x40021000
 8001524:	40013800 	.word	0x40013800
 8001528:	20000000 	.word	0x20000000
 800152c:	91a2b3c5 	.word	0x91a2b3c5

08001530 <init_DMA_for_USART>:


void init_DMA_for_USART() {
 8001530:	b580      	push	{r7, lr}
 8001532:	af00      	add	r7, sp, #0
	RCC->AHBENR |= RCC_AHBENR_DMA1EN;
 8001534:	4b11      	ldr	r3, [pc, #68]	@ (800157c <init_DMA_for_USART+0x4c>)
 8001536:	695b      	ldr	r3, [r3, #20]
 8001538:	4a10      	ldr	r2, [pc, #64]	@ (800157c <init_DMA_for_USART+0x4c>)
 800153a:	f043 0301 	orr.w	r3, r3, #1
 800153e:	6153      	str	r3, [r2, #20]
	//USART TX channel - 4
	DMA1_Channel4->CCR |= DMA_CCR_DIR | DMA_CCR_MINC;
 8001540:	4b0f      	ldr	r3, [pc, #60]	@ (8001580 <init_DMA_for_USART+0x50>)
 8001542:	681b      	ldr	r3, [r3, #0]
 8001544:	4a0e      	ldr	r2, [pc, #56]	@ (8001580 <init_DMA_for_USART+0x50>)
 8001546:	f043 0390 	orr.w	r3, r3, #144	@ 0x90
 800154a:	6013      	str	r3, [r2, #0]
	DMA1_Channel4->CMAR = (uint32_t)(&output_data.string_comitas[0]);
 800154c:	4b0c      	ldr	r3, [pc, #48]	@ (8001580 <init_DMA_for_USART+0x50>)
 800154e:	4a0d      	ldr	r2, [pc, #52]	@ (8001584 <init_DMA_for_USART+0x54>)
 8001550:	60da      	str	r2, [r3, #12]
	DMA1_Channel4->CPAR = (uint32_t)(&(USART1->DR));
 8001552:	4b0b      	ldr	r3, [pc, #44]	@ (8001580 <init_DMA_for_USART+0x50>)
 8001554:	4a0c      	ldr	r2, [pc, #48]	@ (8001588 <init_DMA_for_USART+0x58>)
 8001556:	609a      	str	r2, [r3, #8]
	DMA1_Channel4->CCR |= DMA_CCR_TCIE;
 8001558:	4b09      	ldr	r3, [pc, #36]	@ (8001580 <init_DMA_for_USART+0x50>)
 800155a:	681b      	ldr	r3, [r3, #0]
 800155c:	4a08      	ldr	r2, [pc, #32]	@ (8001580 <init_DMA_for_USART+0x50>)
 800155e:	f043 0302 	orr.w	r3, r3, #2
 8001562:	6013      	str	r3, [r2, #0]
	DMA1_Channel4->CNDTR = 0;
 8001564:	4b06      	ldr	r3, [pc, #24]	@ (8001580 <init_DMA_for_USART+0x50>)
 8001566:	2200      	movs	r2, #0
 8001568:	605a      	str	r2, [r3, #4]

	NVIC_EnableIRQ(DMA1_Channel4_IRQn);
 800156a:	200e      	movs	r0, #14
 800156c:	f7ff ff3e 	bl	80013ec <__NVIC_EnableIRQ>
	NVIC_SetPriority(DMA1_Channel4_IRQn, 3);
 8001570:	2103      	movs	r1, #3
 8001572:	200e      	movs	r0, #14
 8001574:	f7ff ff56 	bl	8001424 <__NVIC_SetPriority>
}
 8001578:	bf00      	nop
 800157a:	bd80      	pop	{r7, pc}
 800157c:	40021000 	.word	0x40021000
 8001580:	40020044 	.word	0x40020044
 8001584:	200003f4 	.word	0x200003f4
 8001588:	40013804 	.word	0x40013804

0800158c <UART_send_data>:

void UART_send_data(uint8_t* data, uint8_t amount_of_byte) {
 800158c:	b480      	push	{r7}
 800158e:	b085      	sub	sp, #20
 8001590:	af00      	add	r7, sp, #0
 8001592:	6078      	str	r0, [r7, #4]
 8001594:	460b      	mov	r3, r1
 8001596:	70fb      	strb	r3, [r7, #3]
	DMA1_Channel4->CMAR = (uint32_t)(&data[0]);
 8001598:	4a10      	ldr	r2, [pc, #64]	@ (80015dc <UART_send_data+0x50>)
 800159a:	687b      	ldr	r3, [r7, #4]
 800159c:	60d3      	str	r3, [r2, #12]
	DMA1_Channel4->CNDTR = amount_of_byte;
 800159e:	4a0f      	ldr	r2, [pc, #60]	@ (80015dc <UART_send_data+0x50>)
 80015a0:	78fb      	ldrb	r3, [r7, #3]
 80015a2:	6053      	str	r3, [r2, #4]
	DMA1_Channel4->CCR |= DMA_CCR_EN;
 80015a4:	4b0d      	ldr	r3, [pc, #52]	@ (80015dc <UART_send_data+0x50>)
 80015a6:	681b      	ldr	r3, [r3, #0]
 80015a8:	4a0c      	ldr	r2, [pc, #48]	@ (80015dc <UART_send_data+0x50>)
 80015aa:	f043 0301 	orr.w	r3, r3, #1
 80015ae:	6013      	str	r3, [r2, #0]
	while(DMA1_Channel4->CCR & DMA_CCR_EN) {};
 80015b0:	bf00      	nop
 80015b2:	4b0a      	ldr	r3, [pc, #40]	@ (80015dc <UART_send_data+0x50>)
 80015b4:	681b      	ldr	r3, [r3, #0]
 80015b6:	f003 0301 	and.w	r3, r3, #1
 80015ba:	2b00      	cmp	r3, #0
 80015bc:	d1f9      	bne.n	80015b2 <UART_send_data+0x26>
	for(int i = 0; i < 100; i++);
 80015be:	2300      	movs	r3, #0
 80015c0:	60fb      	str	r3, [r7, #12]
 80015c2:	e002      	b.n	80015ca <UART_send_data+0x3e>
 80015c4:	68fb      	ldr	r3, [r7, #12]
 80015c6:	3301      	adds	r3, #1
 80015c8:	60fb      	str	r3, [r7, #12]
 80015ca:	68fb      	ldr	r3, [r7, #12]
 80015cc:	2b63      	cmp	r3, #99	@ 0x63
 80015ce:	ddf9      	ble.n	80015c4 <UART_send_data+0x38>
}
 80015d0:	bf00      	nop
 80015d2:	bf00      	nop
 80015d4:	3714      	adds	r7, #20
 80015d6:	46bd      	mov	sp, r7
 80015d8:	bc80      	pop	{r7}
 80015da:	4770      	bx	lr
 80015dc:	40020044 	.word	0x40020044

080015e0 <reset_output_data>:
#include "common.h"

Output_data output_data;
Program_state program_state;

void reset_output_data(){
 80015e0:	b4b0      	push	{r4, r5, r7}
 80015e2:	af00      	add	r7, sp, #0
	strcpy(output_data.string_comitas, "Comitas Akademya\r\n");
 80015e4:	4a0f      	ldr	r2, [pc, #60]	@ (8001624 <reset_output_data+0x44>)
 80015e6:	4b10      	ldr	r3, [pc, #64]	@ (8001628 <reset_output_data+0x48>)
 80015e8:	4614      	mov	r4, r2
 80015ea:	461d      	mov	r5, r3
 80015ec:	cd0f      	ldmia	r5!, {r0, r1, r2, r3}
 80015ee:	c40f      	stmia	r4!, {r0, r1, r2, r3}
 80015f0:	682b      	ldr	r3, [r5, #0]
 80015f2:	461a      	mov	r2, r3
 80015f4:	8022      	strh	r2, [r4, #0]
 80015f6:	3402      	adds	r4, #2
 80015f8:	0c1b      	lsrs	r3, r3, #16
 80015fa:	7023      	strb	r3, [r4, #0]
	output_data.temperature_DS18B20 = 0;
 80015fc:	4b0b      	ldr	r3, [pc, #44]	@ (800162c <reset_output_data+0x4c>)
 80015fe:	f04f 0200 	mov.w	r2, #0
 8001602:	601a      	str	r2, [r3, #0]
	output_data.temperature_TH02 = 0;
 8001604:	4b09      	ldr	r3, [pc, #36]	@ (800162c <reset_output_data+0x4c>)
 8001606:	f04f 0200 	mov.w	r2, #0
 800160a:	605a      	str	r2, [r3, #4]
	output_data.humidity_TH02 = 0;
 800160c:	4b07      	ldr	r3, [pc, #28]	@ (800162c <reset_output_data+0x4c>)
 800160e:	f04f 0200 	mov.w	r2, #0
 8001612:	609a      	str	r2, [r3, #8]
	
	program_state = MEASURE_TEMPERATURE;
 8001614:	4b06      	ldr	r3, [pc, #24]	@ (8001630 <reset_output_data+0x50>)
 8001616:	2200      	movs	r2, #0
 8001618:	701a      	strb	r2, [r3, #0]
}
 800161a:	bf00      	nop
 800161c:	46bd      	mov	sp, r7
 800161e:	bcb0      	pop	{r4, r5, r7}
 8001620:	4770      	bx	lr
 8001622:	bf00      	nop
 8001624:	200003f4 	.word	0x200003f4
 8001628:	08004738 	.word	0x08004738
 800162c:	200003e8 	.word	0x200003e8
 8001630:	20000408 	.word	0x20000408

08001634 <__NVIC_EnableIRQ>:
{
 8001634:	b480      	push	{r7}
 8001636:	b083      	sub	sp, #12
 8001638:	af00      	add	r7, sp, #0
 800163a:	4603      	mov	r3, r0
 800163c:	71fb      	strb	r3, [r7, #7]
  if ((int32_t)(IRQn) >= 0)
 800163e:	f997 3007 	ldrsb.w	r3, [r7, #7]
 8001642:	2b00      	cmp	r3, #0
 8001644:	db0b      	blt.n	800165e <__NVIC_EnableIRQ+0x2a>
    NVIC->ISER[(((uint32_t)IRQn) >> 5UL)] = (uint32_t)(1UL << (((uint32_t)IRQn) & 0x1FUL));
 8001646:	79fb      	ldrb	r3, [r7, #7]
 8001648:	f003 021f 	and.w	r2, r3, #31
 800164c:	4906      	ldr	r1, [pc, #24]	@ (8001668 <__NVIC_EnableIRQ+0x34>)
 800164e:	f997 3007 	ldrsb.w	r3, [r7, #7]
 8001652:	095b      	lsrs	r3, r3, #5
 8001654:	2001      	movs	r0, #1
 8001656:	fa00 f202 	lsl.w	r2, r0, r2
 800165a:	f841 2023 	str.w	r2, [r1, r3, lsl #2]
}
 800165e:	bf00      	nop
 8001660:	370c      	adds	r7, #12
 8001662:	46bd      	mov	sp, r7
 8001664:	bc80      	pop	{r7}
 8001666:	4770      	bx	lr
 8001668:	e000e100 	.word	0xe000e100

0800166c <__NVIC_SetPriority>:
{
 800166c:	b480      	push	{r7}
 800166e:	b083      	sub	sp, #12
 8001670:	af00      	add	r7, sp, #0
 8001672:	4603      	mov	r3, r0
 8001674:	6039      	str	r1, [r7, #0]
 8001676:	71fb      	strb	r3, [r7, #7]
  if ((int32_t)(IRQn) >= 0)
 8001678:	f997 3007 	ldrsb.w	r3, [r7, #7]
 800167c:	2b00      	cmp	r3, #0
 800167e:	db0a      	blt.n	8001696 <__NVIC_SetPriority+0x2a>
    NVIC->IP[((uint32_t)IRQn)]               = (uint8_t)((priority << (8U - __NVIC_PRIO_BITS)) & (uint32_t)0xFFUL);
 8001680:	683b      	ldr	r3, [r7, #0]
 8001682:	b2da      	uxtb	r2, r3
 8001684:	490c      	ldr	r1, [pc, #48]	@ (80016b8 <__NVIC_SetPriority+0x4c>)
 8001686:	f997 3007 	ldrsb.w	r3, [r7, #7]
 800168a:	0112      	lsls	r2, r2, #4
 800168c:	b2d2      	uxtb	r2, r2
 800168e:	440b      	add	r3, r1
 8001690:	f883 2300 	strb.w	r2, [r3, #768]	@ 0x300
}
 8001694:	e00a      	b.n	80016ac <__NVIC_SetPriority+0x40>
    SCB->SHP[(((uint32_t)IRQn) & 0xFUL)-4UL] = (uint8_t)((priority << (8U - __NVIC_PRIO_BITS)) & (uint32_t)0xFFUL);
 8001696:	683b      	ldr	r3, [r7, #0]
 8001698:	b2da      	uxtb	r2, r3
 800169a:	4908      	ldr	r1, [pc, #32]	@ (80016bc <__NVIC_SetPriority+0x50>)
 800169c:	79fb      	ldrb	r3, [r7, #7]
 800169e:	f003 030f 	and.w	r3, r3, #15
 80016a2:	3b04      	subs	r3, #4
 80016a4:	0112      	lsls	r2, r2, #4
 80016a6:	b2d2      	uxtb	r2, r2
 80016a8:	440b      	add	r3, r1
 80016aa:	761a      	strb	r2, [r3, #24]
}
 80016ac:	bf00      	nop
 80016ae:	370c      	adds	r7, #12
 80016b0:	46bd      	mov	sp, r7
 80016b2:	bc80      	pop	{r7}
 80016b4:	4770      	bx	lr
 80016b6:	bf00      	nop
 80016b8:	e000e100 	.word	0xe000e100
 80016bc:	e000ed00 	.word	0xe000ed00

080016c0 <TIM2_IRQHandler>:
DS18B20_CMD ds18b20_cmd = TEMPERATURE_CONVERTING;
uint8_t ds_buff[9];
uint16_t temp;

//timer 2 used for program state switch and
void TIM2_IRQHandler() {
 80016c0:	b480      	push	{r7}
 80016c2:	af00      	add	r7, sp, #0
	TIM2->SR &= ~TIM_SR_UIF;
 80016c4:	f04f 4380 	mov.w	r3, #1073741824	@ 0x40000000
 80016c8:	691b      	ldr	r3, [r3, #16]
 80016ca:	f04f 4280 	mov.w	r2, #1073741824	@ 0x40000000
 80016ce:	f023 0301 	bic.w	r3, r3, #1
 80016d2:	6113      	str	r3, [r2, #16]
	TIM2->CR1 &= ~TIM_CR1_CEN;
 80016d4:	f04f 4380 	mov.w	r3, #1073741824	@ 0x40000000
 80016d8:	681b      	ldr	r3, [r3, #0]
 80016da:	f04f 4280 	mov.w	r2, #1073741824	@ 0x40000000
 80016de:	f023 0301 	bic.w	r3, r3, #1
 80016e2:	6013      	str	r3, [r2, #0]
	program_state = TRANSMIT_DATA;
 80016e4:	4b04      	ldr	r3, [pc, #16]	@ (80016f8 <TIM2_IRQHandler+0x38>)
 80016e6:	2201      	movs	r2, #1
 80016e8:	701a      	strb	r2, [r3, #0]
	ds18b20_cmd = TEMPERATURE_READING;
 80016ea:	4b04      	ldr	r3, [pc, #16]	@ (80016fc <TIM2_IRQHandler+0x3c>)
 80016ec:	2201      	movs	r2, #1
 80016ee:	701a      	strb	r2, [r3, #0]
}
 80016f0:	bf00      	nop
 80016f2:	46bd      	mov	sp, r7
 80016f4:	bc80      	pop	{r7}
 80016f6:	4770      	bx	lr
 80016f8:	20000408 	.word	0x20000408
 80016fc:	20000409 	.word	0x20000409

08001700 <init_Gpio_for_ds>:

//there many defines for DS18B20 init for quick GPIO and PIN change if needed
void init_Gpio_for_ds() {
 8001700:	b480      	push	{r7}
 8001702:	af00      	add	r7, sp, #0
	//PIN for Data line (DQ) of One-wire interface
	RCC->APB2ENR |= RCC_PORT_DS18B20;
 8001704:	4b19      	ldr	r3, [pc, #100]	@ (800176c <init_Gpio_for_ds+0x6c>)
 8001706:	699b      	ldr	r3, [r3, #24]
 8001708:	4a18      	ldr	r2, [pc, #96]	@ (800176c <init_Gpio_for_ds+0x6c>)
 800170a:	f043 0304 	orr.w	r3, r3, #4
 800170e:	6193      	str	r3, [r2, #24]
	PORT_DS18B20->CRH |= GPIO_MODE_DS18B20;
 8001710:	4b17      	ldr	r3, [pc, #92]	@ (8001770 <init_Gpio_for_ds+0x70>)
 8001712:	685b      	ldr	r3, [r3, #4]
 8001714:	4a16      	ldr	r2, [pc, #88]	@ (8001770 <init_Gpio_for_ds+0x70>)
 8001716:	f443 3340 	orr.w	r3, r3, #196608	@ 0x30000
 800171a:	6053      	str	r3, [r2, #4]
	GPIOA->CRH &= ~GPIO_CRH_CNF12;
 800171c:	4b14      	ldr	r3, [pc, #80]	@ (8001770 <init_Gpio_for_ds+0x70>)
 800171e:	685b      	ldr	r3, [r3, #4]
 8001720:	4a13      	ldr	r2, [pc, #76]	@ (8001770 <init_Gpio_for_ds+0x70>)
 8001722:	f423 2340 	bic.w	r3, r3, #786432	@ 0xc0000
 8001726:	6053      	str	r3, [r2, #4]
	PORT_DS18B20->CRH |= GPIO_OPEN_DRAIN_DS18B20;
 8001728:	4b11      	ldr	r3, [pc, #68]	@ (8001770 <init_Gpio_for_ds+0x70>)
 800172a:	685b      	ldr	r3, [r3, #4]
 800172c:	4a10      	ldr	r2, [pc, #64]	@ (8001770 <init_Gpio_for_ds+0x70>)
 800172e:	f443 2380 	orr.w	r3, r3, #262144	@ 0x40000
 8001732:	6053      	str	r3, [r2, #4]
	PORT_DS18B20->ODR |= (1 << PIN_DS18B20);
 8001734:	4b0e      	ldr	r3, [pc, #56]	@ (8001770 <init_Gpio_for_ds+0x70>)
 8001736:	68db      	ldr	r3, [r3, #12]
 8001738:	4a0d      	ldr	r2, [pc, #52]	@ (8001770 <init_Gpio_for_ds+0x70>)
 800173a:	f443 5380 	orr.w	r3, r3, #4096	@ 0x1000
 800173e:	60d3      	str	r3, [r2, #12]
	
	//PIN for LED, which will signalize about error
	RCC->APB2ENR |= RCC_APB2ENR_IOPCEN;
 8001740:	4b0a      	ldr	r3, [pc, #40]	@ (800176c <init_Gpio_for_ds+0x6c>)
 8001742:	699b      	ldr	r3, [r3, #24]
 8001744:	4a09      	ldr	r2, [pc, #36]	@ (800176c <init_Gpio_for_ds+0x6c>)
 8001746:	f043 0310 	orr.w	r3, r3, #16
 800174a:	6193      	str	r3, [r2, #24]
	GPIOA->CRH |= GPIO_CRH_MODE11;
 800174c:	4b08      	ldr	r3, [pc, #32]	@ (8001770 <init_Gpio_for_ds+0x70>)
 800174e:	685b      	ldr	r3, [r3, #4]
 8001750:	4a07      	ldr	r2, [pc, #28]	@ (8001770 <init_Gpio_for_ds+0x70>)
 8001752:	f443 5340 	orr.w	r3, r3, #12288	@ 0x3000
 8001756:	6053      	str	r3, [r2, #4]
	GPIOA->CRH &= ~GPIO_CRH_CNF11;
 8001758:	4b05      	ldr	r3, [pc, #20]	@ (8001770 <init_Gpio_for_ds+0x70>)
 800175a:	685b      	ldr	r3, [r3, #4]
 800175c:	4a04      	ldr	r2, [pc, #16]	@ (8001770 <init_Gpio_for_ds+0x70>)
 800175e:	f423 4340 	bic.w	r3, r3, #49152	@ 0xc000
 8001762:	6053      	str	r3, [r2, #4]
}
 8001764:	bf00      	nop
 8001766:	46bd      	mov	sp, r7
 8001768:	bc80      	pop	{r7}
 800176a:	4770      	bx	lr
 800176c:	40021000 	.word	0x40021000
 8001770:	40010800 	.word	0x40010800

08001774 <init_tim3_for_us>:

//timer for generate 1us
void init_tim3_for_us() {
 8001774:	b480      	push	{r7}
 8001776:	af00      	add	r7, sp, #0
	RCC->APB1ENR |= RCC_APB1ENR_TIM3EN;
 8001778:	4b0b      	ldr	r3, [pc, #44]	@ (80017a8 <init_tim3_for_us+0x34>)
 800177a:	69db      	ldr	r3, [r3, #28]
 800177c:	4a0a      	ldr	r2, [pc, #40]	@ (80017a8 <init_tim3_for_us+0x34>)
 800177e:	f043 0302 	orr.w	r3, r3, #2
 8001782:	61d3      	str	r3, [r2, #28]
	TIM3->ARR = 1000;
 8001784:	4b09      	ldr	r3, [pc, #36]	@ (80017ac <init_tim3_for_us+0x38>)
 8001786:	f44f 727a 	mov.w	r2, #1000	@ 0x3e8
 800178a:	62da      	str	r2, [r3, #44]	@ 0x2c
	TIM3->PSC = 7;
 800178c:	4b07      	ldr	r3, [pc, #28]	@ (80017ac <init_tim3_for_us+0x38>)
 800178e:	2207      	movs	r2, #7
 8001790:	629a      	str	r2, [r3, #40]	@ 0x28
	TIM3->CR1 |= TIM_CR1_CEN;
 8001792:	4b06      	ldr	r3, [pc, #24]	@ (80017ac <init_tim3_for_us+0x38>)
 8001794:	681b      	ldr	r3, [r3, #0]
 8001796:	4a05      	ldr	r2, [pc, #20]	@ (80017ac <init_tim3_for_us+0x38>)
 8001798:	f043 0301 	orr.w	r3, r3, #1
 800179c:	6013      	str	r3, [r2, #0]
} 
 800179e:	bf00      	nop
 80017a0:	46bd      	mov	sp, r7
 80017a2:	bc80      	pop	{r7}
 80017a4:	4770      	bx	lr
 80017a6:	bf00      	nop
 80017a8:	40021000 	.word	0x40021000
 80017ac:	40000400 	.word	0x40000400

080017b0 <init_tim2_for_delay>:

//timer for delay between measurements (750 ms needed in max resolution)
void init_tim2_for_delay() {
 80017b0:	b580      	push	{r7, lr}
 80017b2:	af00      	add	r7, sp, #0
	RCC->APB1ENR |= RCC_APB1ENR_TIM2EN;
 80017b4:	4b14      	ldr	r3, [pc, #80]	@ (8001808 <init_tim2_for_delay+0x58>)
 80017b6:	69db      	ldr	r3, [r3, #28]
 80017b8:	4a13      	ldr	r2, [pc, #76]	@ (8001808 <init_tim2_for_delay+0x58>)
 80017ba:	f043 0301 	orr.w	r3, r3, #1
 80017be:	61d3      	str	r3, [r2, #28]
	TIM2->ARR = 8000;
 80017c0:	f04f 4380 	mov.w	r3, #1073741824	@ 0x40000000
 80017c4:	f44f 52fa 	mov.w	r2, #8000	@ 0x1f40
 80017c8:	62da      	str	r2, [r3, #44]	@ 0x2c
	TIM2->PSC = 799;
 80017ca:	f04f 4380 	mov.w	r3, #1073741824	@ 0x40000000
 80017ce:	f240 321f 	movw	r2, #799	@ 0x31f
 80017d2:	629a      	str	r2, [r3, #40]	@ 0x28
	TIM2->DIER |= TIM_DIER_UIE;
 80017d4:	f04f 4380 	mov.w	r3, #1073741824	@ 0x40000000
 80017d8:	68db      	ldr	r3, [r3, #12]
 80017da:	f04f 4280 	mov.w	r2, #1073741824	@ 0x40000000
 80017de:	f043 0301 	orr.w	r3, r3, #1
 80017e2:	60d3      	str	r3, [r2, #12]
	NVIC_EnableIRQ(TIM2_IRQn);
 80017e4:	201c      	movs	r0, #28
 80017e6:	f7ff ff25 	bl	8001634 <__NVIC_EnableIRQ>
	NVIC_SetPriority(TIM2_IRQn, 1);
 80017ea:	2101      	movs	r1, #1
 80017ec:	201c      	movs	r0, #28
 80017ee:	f7ff ff3d 	bl	800166c <__NVIC_SetPriority>
	TIM2->CR1 |= TIM_CR1_CEN;
 80017f2:	f04f 4380 	mov.w	r3, #1073741824	@ 0x40000000
 80017f6:	681b      	ldr	r3, [r3, #0]
 80017f8:	f04f 4280 	mov.w	r2, #1073741824	@ 0x40000000
 80017fc:	f043 0301 	orr.w	r3, r3, #1
 8001800:	6013      	str	r3, [r2, #0]
}
 8001802:	bf00      	nop
 8001804:	bd80      	pop	{r7, pc}
 8001806:	bf00      	nop
 8001808:	40021000 	.word	0x40021000

0800180c <ds_reset_pulse>:

void ds_reset_pulse()
{
 800180c:	b480      	push	{r7}
 800180e:	af00      	add	r7, sp, #0
	//line should be in high state
	if((PORT_DS18B20->IDR & GPIO_IDR_IDR12) == 0) {
 8001810:	4b1e      	ldr	r3, [pc, #120]	@ (800188c <ds_reset_pulse+0x80>)
 8001812:	689b      	ldr	r3, [r3, #8]
 8001814:	f403 5380 	and.w	r3, r3, #4096	@ 0x1000
 8001818:	2b00      	cmp	r3, #0
 800181a:	d103      	bne.n	8001824 <ds_reset_pulse+0x18>
		ds18b20_cmd = ERROR_WITH_SENSOR;
 800181c:	4b1c      	ldr	r3, [pc, #112]	@ (8001890 <ds_reset_pulse+0x84>)
 800181e:	2203      	movs	r2, #3
 8001820:	701a      	strb	r2, [r3, #0]
		return;
 8001822:	e030      	b.n	8001886 <ds_reset_pulse+0x7a>
	}
	TIM3->CNT = 0;
 8001824:	4b1b      	ldr	r3, [pc, #108]	@ (8001894 <ds_reset_pulse+0x88>)
 8001826:	2200      	movs	r2, #0
 8001828:	625a      	str	r2, [r3, #36]	@ 0x24
	//make the line go to low and wait in this state 480-960 us
	PORT_DS18B20->ODR &= ~(1 << PIN_DS18B20);
 800182a:	4b18      	ldr	r3, [pc, #96]	@ (800188c <ds_reset_pulse+0x80>)
 800182c:	68db      	ldr	r3, [r3, #12]
 800182e:	4a17      	ldr	r2, [pc, #92]	@ (800188c <ds_reset_pulse+0x80>)
 8001830:	f423 5380 	bic.w	r3, r3, #4096	@ 0x1000
 8001834:	60d3      	str	r3, [r2, #12]
	while(TIM3->CNT < 480);
 8001836:	bf00      	nop
 8001838:	4b16      	ldr	r3, [pc, #88]	@ (8001894 <ds_reset_pulse+0x88>)
 800183a:	6a5b      	ldr	r3, [r3, #36]	@ 0x24
 800183c:	f5b3 7ff0 	cmp.w	r3, #480	@ 0x1e0
 8001840:	d3fa      	bcc.n	8001838 <ds_reset_pulse+0x2c>
	//release the line (let go it to high) and wait to respond of DS18B20 after 15-60 us of wait
	PORT_DS18B20->ODR |= (1 << PIN_DS18B20);
 8001842:	4b12      	ldr	r3, [pc, #72]	@ (800188c <ds_reset_pulse+0x80>)
 8001844:	68db      	ldr	r3, [r3, #12]
 8001846:	4a11      	ldr	r2, [pc, #68]	@ (800188c <ds_reset_pulse+0x80>)
 8001848:	f443 5380 	orr.w	r3, r3, #4096	@ 0x1000
 800184c:	60d3      	str	r3, [r2, #12]
	while(TIM3->CNT < 520);
 800184e:	bf00      	nop
 8001850:	4b10      	ldr	r3, [pc, #64]	@ (8001894 <ds_reset_pulse+0x88>)
 8001852:	6a5b      	ldr	r3, [r3, #36]	@ 0x24
 8001854:	f5b3 7f02 	cmp.w	r3, #520	@ 0x208
 8001858:	d3fa      	bcc.n	8001850 <ds_reset_pulse+0x44>
	//if line was in high state - there are no answer from DS18B20 :(
	if(PORT_DS18B20->IDR & GPIO_IDR_IDR12) {
 800185a:	4b0c      	ldr	r3, [pc, #48]	@ (800188c <ds_reset_pulse+0x80>)
 800185c:	689b      	ldr	r3, [r3, #8]
 800185e:	f403 5380 	and.w	r3, r3, #4096	@ 0x1000
 8001862:	2b00      	cmp	r3, #0
 8001864:	d003      	beq.n	800186e <ds_reset_pulse+0x62>
		ds18b20_cmd = ERROR_WITH_SENSOR;
 8001866:	4b0a      	ldr	r3, [pc, #40]	@ (8001890 <ds_reset_pulse+0x84>)
 8001868:	2203      	movs	r2, #3
 800186a:	701a      	strb	r2, [r3, #0]
		return;
 800186c:	e00b      	b.n	8001886 <ds_reset_pulse+0x7a>
	}
	//if we here then no error was detected
	PORT_LED->ODR &= ~(1 << PIN_LED);
 800186e:	4b07      	ldr	r3, [pc, #28]	@ (800188c <ds_reset_pulse+0x80>)
 8001870:	68db      	ldr	r3, [r3, #12]
 8001872:	4a06      	ldr	r2, [pc, #24]	@ (800188c <ds_reset_pulse+0x80>)
 8001874:	f423 6300 	bic.w	r3, r3, #2048	@ 0x800
 8001878:	60d3      	str	r3, [r2, #12]
	//wait minimum 480us from moment, where we release the line
	while(TIM3->CNT < 960);
 800187a:	bf00      	nop
 800187c:	4b05      	ldr	r3, [pc, #20]	@ (8001894 <ds_reset_pulse+0x88>)
 800187e:	6a5b      	ldr	r3, [r3, #36]	@ 0x24
 8001880:	f5b3 7f70 	cmp.w	r3, #960	@ 0x3c0
 8001884:	d3fa      	bcc.n	800187c <ds_reset_pulse+0x70>
}
 8001886:	46bd      	mov	sp, r7
 8001888:	bc80      	pop	{r7}
 800188a:	4770      	bx	lr
 800188c:	40010800 	.word	0x40010800
 8001890:	20000409 	.word	0x20000409
 8001894:	40000400 	.word	0x40000400

08001898 <ds_write_bit>:

void ds_write_bit(uint8_t bit)
{
 8001898:	b480      	push	{r7}
 800189a:	b083      	sub	sp, #12
 800189c:	af00      	add	r7, sp, #0
 800189e:	4603      	mov	r3, r0
 80018a0:	71fb      	strb	r3, [r7, #7]
	TIM3->CNT = 0;
 80018a2:	4b13      	ldr	r3, [pc, #76]	@ (80018f0 <ds_write_bit+0x58>)
 80018a4:	2200      	movs	r2, #0
 80018a6:	625a      	str	r2, [r3, #36]	@ 0x24
	//make the line go to low and wait in this state at least 1 us
  PORT_DS18B20->ODR &= ~(1 << PIN_DS18B20);
 80018a8:	4b12      	ldr	r3, [pc, #72]	@ (80018f4 <ds_write_bit+0x5c>)
 80018aa:	68db      	ldr	r3, [r3, #12]
 80018ac:	4a11      	ldr	r2, [pc, #68]	@ (80018f4 <ds_write_bit+0x5c>)
 80018ae:	f423 5380 	bic.w	r3, r3, #4096	@ 0x1000
 80018b2:	60d3      	str	r3, [r2, #12]
  while(TIM3->CNT < 2) {}
 80018b4:	bf00      	nop
 80018b6:	4b0e      	ldr	r3, [pc, #56]	@ (80018f0 <ds_write_bit+0x58>)
 80018b8:	6a5b      	ldr	r3, [r3, #36]	@ 0x24
 80018ba:	2b01      	cmp	r3, #1
 80018bc:	d9fb      	bls.n	80018b6 <ds_write_bit+0x1e>
  //set bit on line
	if(bit)
 80018be:	79fb      	ldrb	r3, [r7, #7]
 80018c0:	2b00      	cmp	r3, #0
 80018c2:	d005      	beq.n	80018d0 <ds_write_bit+0x38>
		PORT_DS18B20->ODR |= (1 << PIN_DS18B20);
 80018c4:	4b0b      	ldr	r3, [pc, #44]	@ (80018f4 <ds_write_bit+0x5c>)
 80018c6:	68db      	ldr	r3, [r3, #12]
 80018c8:	4a0a      	ldr	r2, [pc, #40]	@ (80018f4 <ds_write_bit+0x5c>)
 80018ca:	f443 5380 	orr.w	r3, r3, #4096	@ 0x1000
 80018ce:	60d3      	str	r3, [r2, #12]
  //"write operation" with bit last 60-120us
  while(TIM3->CNT < 60) {}
 80018d0:	bf00      	nop
 80018d2:	4b07      	ldr	r3, [pc, #28]	@ (80018f0 <ds_write_bit+0x58>)
 80018d4:	6a5b      	ldr	r3, [r3, #36]	@ 0x24
 80018d6:	2b3b      	cmp	r3, #59	@ 0x3b
 80018d8:	d9fb      	bls.n	80018d2 <ds_write_bit+0x3a>
  //release line again
  PORT_DS18B20->ODR |= (1 << PIN_DS18B20);
 80018da:	4b06      	ldr	r3, [pc, #24]	@ (80018f4 <ds_write_bit+0x5c>)
 80018dc:	68db      	ldr	r3, [r3, #12]
 80018de:	4a05      	ldr	r2, [pc, #20]	@ (80018f4 <ds_write_bit+0x5c>)
 80018e0:	f443 5380 	orr.w	r3, r3, #4096	@ 0x1000
 80018e4:	60d3      	str	r3, [r2, #12]
}
 80018e6:	bf00      	nop
 80018e8:	370c      	adds	r7, #12
 80018ea:	46bd      	mov	sp, r7
 80018ec:	bc80      	pop	{r7}
 80018ee:	4770      	bx	lr
 80018f0:	40000400 	.word	0x40000400
 80018f4:	40010800 	.word	0x40010800

080018f8 <ds_write_byte>:

void ds_write_byte(uint8_t byte)
{
 80018f8:	b580      	push	{r7, lr}
 80018fa:	b084      	sub	sp, #16
 80018fc:	af00      	add	r7, sp, #0
 80018fe:	4603      	mov	r3, r0
 8001900:	71fb      	strb	r3, [r7, #7]
	for(uint8_t i = 0; i < 8; i++)
 8001902:	2300      	movs	r3, #0
 8001904:	73fb      	strb	r3, [r7, #15]
 8001906:	e00f      	b.n	8001928 <ds_write_byte+0x30>
		ds_write_bit(byte & (1 << i));
 8001908:	7bfb      	ldrb	r3, [r7, #15]
 800190a:	2201      	movs	r2, #1
 800190c:	fa02 f303 	lsl.w	r3, r2, r3
 8001910:	b25a      	sxtb	r2, r3
 8001912:	f997 3007 	ldrsb.w	r3, [r7, #7]
 8001916:	4013      	ands	r3, r2
 8001918:	b25b      	sxtb	r3, r3
 800191a:	b2db      	uxtb	r3, r3
 800191c:	4618      	mov	r0, r3
 800191e:	f7ff ffbb 	bl	8001898 <ds_write_bit>
	for(uint8_t i = 0; i < 8; i++)
 8001922:	7bfb      	ldrb	r3, [r7, #15]
 8001924:	3301      	adds	r3, #1
 8001926:	73fb      	strb	r3, [r7, #15]
 8001928:	7bfb      	ldrb	r3, [r7, #15]
 800192a:	2b07      	cmp	r3, #7
 800192c:	d9ec      	bls.n	8001908 <ds_write_byte+0x10>
}
 800192e:	bf00      	nop
 8001930:	bf00      	nop
 8001932:	3710      	adds	r7, #16
 8001934:	46bd      	mov	sp, r7
 8001936:	bd80      	pop	{r7, pc}

08001938 <ds_read_bit>:

uint8_t ds_read_bit()
{
 8001938:	b480      	push	{r7}
 800193a:	b083      	sub	sp, #12
 800193c:	af00      	add	r7, sp, #0
	uint8_t result;
	TIM3->CNT=0;
 800193e:	4b15      	ldr	r3, [pc, #84]	@ (8001994 <ds_read_bit+0x5c>)
 8001940:	2200      	movs	r2, #0
 8001942:	625a      	str	r2, [r3, #36]	@ 0x24
	//make the line go to low and wait in this state at least 1 us
	PORT_DS18B20->ODR &= ~(1 << PIN_DS18B20);
 8001944:	4b14      	ldr	r3, [pc, #80]	@ (8001998 <ds_read_bit+0x60>)
 8001946:	68db      	ldr	r3, [r3, #12]
 8001948:	4a13      	ldr	r2, [pc, #76]	@ (8001998 <ds_read_bit+0x60>)
 800194a:	f423 5380 	bic.w	r3, r3, #4096	@ 0x1000
 800194e:	60d3      	str	r3, [r2, #12]
	while(TIM3->CNT < 2) {}
 8001950:	bf00      	nop
 8001952:	4b10      	ldr	r3, [pc, #64]	@ (8001994 <ds_read_bit+0x5c>)
 8001954:	6a5b      	ldr	r3, [r3, #36]	@ 0x24
 8001956:	2b01      	cmp	r3, #1
 8001958:	d9fb      	bls.n	8001952 <ds_read_bit+0x1a>
	//release line in order to DS18B20 set bit on line
	PORT_DS18B20->ODR |=  (1 << PIN_DS18B20);
 800195a:	4b0f      	ldr	r3, [pc, #60]	@ (8001998 <ds_read_bit+0x60>)
 800195c:	68db      	ldr	r3, [r3, #12]
 800195e:	4a0e      	ldr	r2, [pc, #56]	@ (8001998 <ds_read_bit+0x60>)
 8001960:	f443 5380 	orr.w	r3, r3, #4096	@ 0x1000
 8001964:	60d3      	str	r3, [r2, #12]
	//wait at least 15us before read bit
	while(TIM3->CNT < 20) {}
 8001966:	bf00      	nop
 8001968:	4b0a      	ldr	r3, [pc, #40]	@ (8001994 <ds_read_bit+0x5c>)
 800196a:	6a5b      	ldr	r3, [r3, #36]	@ 0x24
 800196c:	2b13      	cmp	r3, #19
 800196e:	d9fb      	bls.n	8001968 <ds_read_bit+0x30>
	//read bit
	result = (PORT_DS18B20->IDR & (1 << PIN_DS18B20)) >> PIN_DS18B20;
 8001970:	4b09      	ldr	r3, [pc, #36]	@ (8001998 <ds_read_bit+0x60>)
 8001972:	689b      	ldr	r3, [r3, #8]
 8001974:	0b1b      	lsrs	r3, r3, #12
 8001976:	b2db      	uxtb	r3, r3
 8001978:	f003 0301 	and.w	r3, r3, #1
 800197c:	71fb      	strb	r3, [r7, #7]
	while(TIM3->CNT < 60 ) {}
 800197e:	bf00      	nop
 8001980:	4b04      	ldr	r3, [pc, #16]	@ (8001994 <ds_read_bit+0x5c>)
 8001982:	6a5b      	ldr	r3, [r3, #36]	@ 0x24
 8001984:	2b3b      	cmp	r3, #59	@ 0x3b
 8001986:	d9fb      	bls.n	8001980 <ds_read_bit+0x48>
	//"read operation" with bit at least 60
	return result;
 8001988:	79fb      	ldrb	r3, [r7, #7]
}
 800198a:	4618      	mov	r0, r3
 800198c:	370c      	adds	r7, #12
 800198e:	46bd      	mov	sp, r7
 8001990:	bc80      	pop	{r7}
 8001992:	4770      	bx	lr
 8001994:	40000400 	.word	0x40000400
 8001998:	40010800 	.word	0x40010800

0800199c <ds_read_byte>:

uint8_t ds_read_byte()
{
 800199c:	b580      	push	{r7, lr}
 800199e:	b082      	sub	sp, #8
 80019a0:	af00      	add	r7, sp, #0
	uint8_t result = 0;
 80019a2:	2300      	movs	r3, #0
 80019a4:	71fb      	strb	r3, [r7, #7]
	for(uint8_t i = 0; i < 8; i++)
 80019a6:	2300      	movs	r3, #0
 80019a8:	71bb      	strb	r3, [r7, #6]
 80019aa:	e00f      	b.n	80019cc <ds_read_byte+0x30>
		result |= (ds_read_bit() << i);
 80019ac:	f7ff ffc4 	bl	8001938 <ds_read_bit>
 80019b0:	4603      	mov	r3, r0
 80019b2:	461a      	mov	r2, r3
 80019b4:	79bb      	ldrb	r3, [r7, #6]
 80019b6:	fa02 f303 	lsl.w	r3, r2, r3
 80019ba:	b25a      	sxtb	r2, r3
 80019bc:	f997 3007 	ldrsb.w	r3, [r7, #7]
 80019c0:	4313      	orrs	r3, r2
 80019c2:	b25b      	sxtb	r3, r3
 80019c4:	71fb      	strb	r3, [r7, #7]
	for(uint8_t i = 0; i < 8; i++)
 80019c6:	79bb      	ldrb	r3, [r7, #6]
 80019c8:	3301      	adds	r3, #1
 80019ca:	71bb      	strb	r3, [r7, #6]
 80019cc:	79bb      	ldrb	r3, [r7, #6]
 80019ce:	2b07      	cmp	r3, #7
 80019d0:	d9ec      	bls.n	80019ac <ds_read_byte+0x10>
	return result;
 80019d2:	79fb      	ldrb	r3, [r7, #7]
}
 80019d4:	4618      	mov	r0, r3
 80019d6:	3708      	adds	r7, #8
 80019d8:	46bd      	mov	sp, r7
 80019da:	bd80      	pop	{r7, pc}

080019dc <TIM_delay_on>:

void TIM_delay_on() {
 80019dc:	b480      	push	{r7}
 80019de:	af00      	add	r7, sp, #0
	TIM2->CNT = 0;
 80019e0:	f04f 4380 	mov.w	r3, #1073741824	@ 0x40000000
 80019e4:	2200      	movs	r2, #0
 80019e6:	625a      	str	r2, [r3, #36]	@ 0x24
	TIM2->CR1 |= TIM_CR1_CEN;
 80019e8:	f04f 4380 	mov.w	r3, #1073741824	@ 0x40000000
 80019ec:	681b      	ldr	r3, [r3, #0]
 80019ee:	f04f 4280 	mov.w	r2, #1073741824	@ 0x40000000
 80019f2:	f043 0301 	orr.w	r3, r3, #1
 80019f6:	6013      	str	r3, [r2, #0]
}
 80019f8:	bf00      	nop
 80019fa:	46bd      	mov	sp, r7
 80019fc:	bc80      	pop	{r7}
 80019fe:	4770      	bx	lr

08001a00 <temperature_measurment_start>:

void temperature_measurment_start() {
 8001a00:	b580      	push	{r7, lr}
 8001a02:	af00      	add	r7, sp, #0
	ds_reset_pulse();
 8001a04:	f7ff ff02 	bl	800180c <ds_reset_pulse>
	if(ds18b20_cmd == ERROR_WITH_SENSOR)
 8001a08:	4b07      	ldr	r3, [pc, #28]	@ (8001a28 <temperature_measurment_start+0x28>)
 8001a0a:	781b      	ldrb	r3, [r3, #0]
 8001a0c:	2b03      	cmp	r3, #3
 8001a0e:	d008      	beq.n	8001a22 <temperature_measurment_start+0x22>
		return;
	ds_write_byte(SKIP_ROM_ADR);
 8001a10:	20cc      	movs	r0, #204	@ 0xcc
 8001a12:	f7ff ff71 	bl	80018f8 <ds_write_byte>
	ds_write_byte(CONVERT_TEMP);
 8001a16:	2044      	movs	r0, #68	@ 0x44
 8001a18:	f7ff ff6e 	bl	80018f8 <ds_write_byte>
	TIM_delay_on();
 8001a1c:	f7ff ffde 	bl	80019dc <TIM_delay_on>
 8001a20:	e000      	b.n	8001a24 <temperature_measurment_start+0x24>
		return;
 8001a22:	bf00      	nop
}
 8001a24:	bd80      	pop	{r7, pc}
 8001a26:	bf00      	nop
 8001a28:	20000409 	.word	0x20000409

08001a2c <temprepature_measurment_read>:

void temprepature_measurment_read() {
 8001a2c:	b580      	push	{r7, lr}
 8001a2e:	b082      	sub	sp, #8
 8001a30:	af00      	add	r7, sp, #0
	ds_reset_pulse();
 8001a32:	f7ff feeb 	bl	800180c <ds_reset_pulse>
	if(ds18b20_cmd == ERROR_WITH_SENSOR)
 8001a36:	4b22      	ldr	r3, [pc, #136]	@ (8001ac0 <temprepature_measurment_read+0x94>)
 8001a38:	781b      	ldrb	r3, [r3, #0]
 8001a3a:	2b03      	cmp	r3, #3
 8001a3c:	d03b      	beq.n	8001ab6 <temprepature_measurment_read+0x8a>
		return;
	ds_write_byte(SKIP_ROM_ADR);
 8001a3e:	20cc      	movs	r0, #204	@ 0xcc
 8001a40:	f7ff ff5a 	bl	80018f8 <ds_write_byte>
	ds_write_byte(READ_DATA);
 8001a44:	20be      	movs	r0, #190	@ 0xbe
 8001a46:	f7ff ff57 	bl	80018f8 <ds_write_byte>

	for(int i = 0; i < 9; i++ )
 8001a4a:	2300      	movs	r3, #0
 8001a4c:	607b      	str	r3, [r7, #4]
 8001a4e:	e00b      	b.n	8001a68 <temprepature_measurment_read+0x3c>
		ds_buff[i] = ds_read_byte();
 8001a50:	f7ff ffa4 	bl	800199c <ds_read_byte>
 8001a54:	4603      	mov	r3, r0
 8001a56:	4619      	mov	r1, r3
 8001a58:	4a1a      	ldr	r2, [pc, #104]	@ (8001ac4 <temprepature_measurment_read+0x98>)
 8001a5a:	687b      	ldr	r3, [r7, #4]
 8001a5c:	4413      	add	r3, r2
 8001a5e:	460a      	mov	r2, r1
 8001a60:	701a      	strb	r2, [r3, #0]
	for(int i = 0; i < 9; i++ )
 8001a62:	687b      	ldr	r3, [r7, #4]
 8001a64:	3301      	adds	r3, #1
 8001a66:	607b      	str	r3, [r7, #4]
 8001a68:	687b      	ldr	r3, [r7, #4]
 8001a6a:	2b08      	cmp	r3, #8
 8001a6c:	ddf0      	ble.n	8001a50 <temprepature_measurment_read+0x24>

	//convert temperature
	temp = ds_buff[1];
 8001a6e:	4b15      	ldr	r3, [pc, #84]	@ (8001ac4 <temprepature_measurment_read+0x98>)
 8001a70:	785b      	ldrb	r3, [r3, #1]
 8001a72:	461a      	mov	r2, r3
 8001a74:	4b14      	ldr	r3, [pc, #80]	@ (8001ac8 <temprepature_measurment_read+0x9c>)
 8001a76:	801a      	strh	r2, [r3, #0]
	temp = temp << 8;
 8001a78:	4b13      	ldr	r3, [pc, #76]	@ (8001ac8 <temprepature_measurment_read+0x9c>)
 8001a7a:	881b      	ldrh	r3, [r3, #0]
 8001a7c:	021b      	lsls	r3, r3, #8
 8001a7e:	b29a      	uxth	r2, r3
 8001a80:	4b11      	ldr	r3, [pc, #68]	@ (8001ac8 <temprepature_measurment_read+0x9c>)
 8001a82:	801a      	strh	r2, [r3, #0]
	temp |= ds_buff[0];
 8001a84:	4b0f      	ldr	r3, [pc, #60]	@ (8001ac4 <temprepature_measurment_read+0x98>)
 8001a86:	781b      	ldrb	r3, [r3, #0]
 8001a88:	461a      	mov	r2, r3
 8001a8a:	4b0f      	ldr	r3, [pc, #60]	@ (8001ac8 <temprepature_measurment_read+0x9c>)
 8001a8c:	881b      	ldrh	r3, [r3, #0]
 8001a8e:	4313      	orrs	r3, r2
 8001a90:	b29a      	uxth	r2, r3
 8001a92:	4b0d      	ldr	r3, [pc, #52]	@ (8001ac8 <temprepature_measurment_read+0x9c>)
 8001a94:	801a      	strh	r2, [r3, #0]
	output_data.temperature_DS18B20 = (float)temp * 0.0625;
 8001a96:	4b0c      	ldr	r3, [pc, #48]	@ (8001ac8 <temprepature_measurment_read+0x9c>)
 8001a98:	881b      	ldrh	r3, [r3, #0]
 8001a9a:	4618      	mov	r0, r3
 8001a9c:	f7ff f96e 	bl	8000d7c <__aeabi_ui2f>
 8001aa0:	4603      	mov	r3, r0
 8001aa2:	f04f 5176 	mov.w	r1, #1031798784	@ 0x3d800000
 8001aa6:	4618      	mov	r0, r3
 8001aa8:	f7fe fb6a 	bl	8000180 <__aeabi_fmul>
 8001aac:	4603      	mov	r3, r0
 8001aae:	461a      	mov	r2, r3
 8001ab0:	4b06      	ldr	r3, [pc, #24]	@ (8001acc <temprepature_measurment_read+0xa0>)
 8001ab2:	601a      	str	r2, [r3, #0]
 8001ab4:	e000      	b.n	8001ab8 <temprepature_measurment_read+0x8c>
		return;
 8001ab6:	bf00      	nop
}
 8001ab8:	3708      	adds	r7, #8
 8001aba:	46bd      	mov	sp, r7
 8001abc:	bd80      	pop	{r7, pc}
 8001abe:	bf00      	nop
 8001ac0:	20000409 	.word	0x20000409
 8001ac4:	2000040c 	.word	0x2000040c
 8001ac8:	20000416 	.word	0x20000416
 8001acc:	200003e8 	.word	0x200003e8

08001ad0 <init_DS18B20>:

void init_DS18B20() {
 8001ad0:	b580      	push	{r7, lr}
 8001ad2:	af00      	add	r7, sp, #0
	init_Gpio_for_ds();
 8001ad4:	f7ff fe14 	bl	8001700 <init_Gpio_for_ds>
	init_tim3_for_us();
 8001ad8:	f7ff fe4c 	bl	8001774 <init_tim3_for_us>
	init_tim2_for_delay();
 8001adc:	f7ff fe68 	bl	80017b0 <init_tim2_for_delay>
}
 8001ae0:	bf00      	nop
 8001ae2:	bd80      	pop	{r7, pc}

08001ae4 <DS18B20_measure_temperature>:

void DS18B20_measure_temperature() {
 8001ae4:	b580      	push	{r7, lr}
 8001ae6:	af00      	add	r7, sp, #0
	switch(ds18b20_cmd) {
 8001ae8:	4b16      	ldr	r3, [pc, #88]	@ (8001b44 <DS18B20_measure_temperature+0x60>)
 8001aea:	781b      	ldrb	r3, [r3, #0]
 8001aec:	2b03      	cmp	r3, #3
 8001aee:	d821      	bhi.n	8001b34 <DS18B20_measure_temperature+0x50>
 8001af0:	a201      	add	r2, pc, #4	@ (adr r2, 8001af8 <DS18B20_measure_temperature+0x14>)
 8001af2:	f852 f023 	ldr.w	pc, [r2, r3, lsl #2]
 8001af6:	bf00      	nop
 8001af8:	08001b09 	.word	0x08001b09
 8001afc:	08001b15 	.word	0x08001b15
 8001b00:	08001b3d 	.word	0x08001b3d
 8001b04:	08001b21 	.word	0x08001b21
		case TEMPERATURE_CONVERTING:
			ds18b20_cmd = WAITING_1SEC;
 8001b08:	4b0e      	ldr	r3, [pc, #56]	@ (8001b44 <DS18B20_measure_temperature+0x60>)
 8001b0a:	2202      	movs	r2, #2
 8001b0c:	701a      	strb	r2, [r3, #0]
			temperature_measurment_start();
 8001b0e:	f7ff ff77 	bl	8001a00 <temperature_measurment_start>
			break;
 8001b12:	e014      	b.n	8001b3e <DS18B20_measure_temperature+0x5a>
		case TEMPERATURE_READING:
			ds18b20_cmd = TEMPERATURE_CONVERTING;
 8001b14:	4b0b      	ldr	r3, [pc, #44]	@ (8001b44 <DS18B20_measure_temperature+0x60>)
 8001b16:	2200      	movs	r2, #0
 8001b18:	701a      	strb	r2, [r3, #0]
			temprepature_measurment_read();
 8001b1a:	f7ff ff87 	bl	8001a2c <temprepature_measurment_read>
			break;
 8001b1e:	e00e      	b.n	8001b3e <DS18B20_measure_temperature+0x5a>
		case ERROR_WITH_SENSOR:
			PORT_LED->ODR |= (1 << PIN_LED);
 8001b20:	4b09      	ldr	r3, [pc, #36]	@ (8001b48 <DS18B20_measure_temperature+0x64>)
 8001b22:	68db      	ldr	r3, [r3, #12]
 8001b24:	4a08      	ldr	r2, [pc, #32]	@ (8001b48 <DS18B20_measure_temperature+0x64>)
 8001b26:	f443 6300 	orr.w	r3, r3, #2048	@ 0x800
 8001b2a:	60d3      	str	r3, [r2, #12]
			ds18b20_cmd = TEMPERATURE_CONVERTING;
 8001b2c:	4b05      	ldr	r3, [pc, #20]	@ (8001b44 <DS18B20_measure_temperature+0x60>)
 8001b2e:	2200      	movs	r2, #0
 8001b30:	701a      	strb	r2, [r3, #0]
			break;
 8001b32:	e004      	b.n	8001b3e <DS18B20_measure_temperature+0x5a>
		case WAITING_1SEC:
		break;
		default: 
			ds18b20_cmd = TEMPERATURE_CONVERTING;
 8001b34:	4b03      	ldr	r3, [pc, #12]	@ (8001b44 <DS18B20_measure_temperature+0x60>)
 8001b36:	2200      	movs	r2, #0
 8001b38:	701a      	strb	r2, [r3, #0]
			break;
 8001b3a:	e000      	b.n	8001b3e <DS18B20_measure_temperature+0x5a>
		break;
 8001b3c:	bf00      	nop
	}
}
 8001b3e:	bf00      	nop
 8001b40:	bd80      	pop	{r7, pc}
 8001b42:	bf00      	nop
 8001b44:	20000409 	.word	0x20000409
 8001b48:	40010800 	.word	0x40010800

08001b4c <main>:
#include "common.h"
#include <stdio.h>

int __io_putchar(int ch);

int main() {
 8001b4c:	b580      	push	{r7, lr}
 8001b4e:	b082      	sub	sp, #8
 8001b50:	af00      	add	r7, sp, #0
	//SPI work in real life between MC, but don't work in PROTEUS, i don't have sensor to test either
	SPI1_Master_init();
 8001b52:	f7ff fa17 	bl	8000f84 <SPI1_Master_init>
	//I2C for TH02 initialization
	I2C_for_TH_init();
 8001b56:	f7ff fab9 	bl	80010cc <I2C_for_TH_init>
	//DS18B20 initialization
	init_DS18B20();
 8001b5a:	f7ff ffb9 	bl	8001ad0 <init_DS18B20>
	//UART for data transmit initialization
	init_USART();
 8001b5e:	f7ff fcb7 	bl	80014d0 <init_USART>
	//variables for temperatures and other data
	reset_output_data();
 8001b62:	f7ff fd3d 	bl	80015e0 <reset_output_data>
	//in proteus periphery didn't initialize by that moment, so need to little delay
	//in real life periphery don't have that problem
	for(int i = 0; i < 100000; i++);
 8001b66:	2300      	movs	r3, #0
 8001b68:	607b      	str	r3, [r7, #4]
 8001b6a:	e002      	b.n	8001b72 <main+0x26>
 8001b6c:	687b      	ldr	r3, [r7, #4]
 8001b6e:	3301      	adds	r3, #1
 8001b70:	607b      	str	r3, [r7, #4]
 8001b72:	687b      	ldr	r3, [r7, #4]
 8001b74:	4a15      	ldr	r2, [pc, #84]	@ (8001bcc <main+0x80>)
 8001b76:	4293      	cmp	r3, r2
 8001b78:	ddf8      	ble.n	8001b6c <main+0x20>

	//there are two states, first - for temperature measure, second - for temperature output in terminal
	while(1) {
		switch(program_state) {
 8001b7a:	4b15      	ldr	r3, [pc, #84]	@ (8001bd0 <main+0x84>)
 8001b7c:	781b      	ldrb	r3, [r3, #0]
 8001b7e:	2b00      	cmp	r3, #0
 8001b80:	d002      	beq.n	8001b88 <main+0x3c>
 8001b82:	2b01      	cmp	r3, #1
 8001b84:	d005      	beq.n	8001b92 <main+0x46>
 8001b86:	e7f8      	b.n	8001b7a <main+0x2e>
			case MEASURE_TEMPERATURE:
				DS18B20_measure_temperature();
 8001b88:	f7ff ffac 	bl	8001ae4 <DS18B20_measure_temperature>
				TH_measure_temperature();
 8001b8c:	f7ff fbe6 	bl	800135c <TH_measure_temperature>
			break;
 8001b90:	e01b      	b.n	8001bca <main+0x7e>

			case TRANSMIT_DATA:
				//send string Comitas academya
				UART_send_data(output_data.string_comitas, COMITAS_STRING_SIZE);
 8001b92:	2112      	movs	r1, #18
 8001b94:	480f      	ldr	r0, [pc, #60]	@ (8001bd4 <main+0x88>)
 8001b96:	f7ff fcf9 	bl	800158c <UART_send_data>
				//send other string with temperatures and etc
				printf("temperature DS18B20: %f C\r\n", output_data.temperature_DS18B20);
 8001b9a:	4b0f      	ldr	r3, [pc, #60]	@ (8001bd8 <main+0x8c>)
 8001b9c:	681b      	ldr	r3, [r3, #0]
 8001b9e:	4618      	mov	r0, r3
 8001ba0:	f7fe fd06 	bl	80005b0 <__aeabi_f2d>
 8001ba4:	4602      	mov	r2, r0
 8001ba6:	460b      	mov	r3, r1
 8001ba8:	480c      	ldr	r0, [pc, #48]	@ (8001bdc <main+0x90>)
 8001baa:	f000 fe37 	bl	800281c <iprintf>
				printf("temperature ATH20: %f C\r\n", output_data.temperature_TH02);
 8001bae:	4b0a      	ldr	r3, [pc, #40]	@ (8001bd8 <main+0x8c>)
 8001bb0:	685b      	ldr	r3, [r3, #4]
 8001bb2:	4618      	mov	r0, r3
 8001bb4:	f7fe fcfc 	bl	80005b0 <__aeabi_f2d>
 8001bb8:	4602      	mov	r2, r0
 8001bba:	460b      	mov	r3, r1
 8001bbc:	4808      	ldr	r0, [pc, #32]	@ (8001be0 <main+0x94>)
 8001bbe:	f000 fe2d 	bl	800281c <iprintf>
				program_state = MEASURE_TEMPERATURE;
 8001bc2:	4b03      	ldr	r3, [pc, #12]	@ (8001bd0 <main+0x84>)
 8001bc4:	2200      	movs	r2, #0
 8001bc6:	701a      	strb	r2, [r3, #0]
			break;
 8001bc8:	bf00      	nop
		switch(program_state) {
 8001bca:	e7d6      	b.n	8001b7a <main+0x2e>
 8001bcc:	0001869f 	.word	0x0001869f
 8001bd0:	20000408 	.word	0x20000408
 8001bd4:	200003f4 	.word	0x200003f4
 8001bd8:	200003e8 	.word	0x200003e8
 8001bdc:	0800474c 	.word	0x0800474c
 8001be0:	08004768 	.word	0x08004768

08001be4 <__io_putchar>:
		}
	}
}


int __io_putchar(int ch) {
 8001be4:	b580      	push	{r7, lr}
 8001be6:	b084      	sub	sp, #16
 8001be8:	af00      	add	r7, sp, #0
 8001bea:	6078      	str	r0, [r7, #4]
	uint8_t ch8 = ch & 0xFF;
 8001bec:	687b      	ldr	r3, [r7, #4]
 8001bee:	b2db      	uxtb	r3, r3
 8001bf0:	73fb      	strb	r3, [r7, #15]
	UART_send_data(&ch8, 1);
 8001bf2:	f107 030f 	add.w	r3, r7, #15
 8001bf6:	2101      	movs	r1, #1
 8001bf8:	4618      	mov	r0, r3
 8001bfa:	f7ff fcc7 	bl	800158c <UART_send_data>
	return ch;
 8001bfe:	687b      	ldr	r3, [r7, #4]
}
 8001c00:	4618      	mov	r0, r3
 8001c02:	3710      	adds	r7, #16
 8001c04:	46bd      	mov	sp, r7
 8001c06:	bd80      	pop	{r7, pc}

08001c08 <_getpid>:
void initialise_monitor_handles()
{
}

int _getpid(void)
{
 8001c08:	b480      	push	{r7}
 8001c0a:	af00      	add	r7, sp, #0
  return 1;
 8001c0c:	2301      	movs	r3, #1
}
 8001c0e:	4618      	mov	r0, r3
 8001c10:	46bd      	mov	sp, r7
 8001c12:	bc80      	pop	{r7}
 8001c14:	4770      	bx	lr

08001c16 <_kill>:

int _kill(int pid, int sig)
{
 8001c16:	b580      	push	{r7, lr}
 8001c18:	b082      	sub	sp, #8
 8001c1a:	af00      	add	r7, sp, #0
 8001c1c:	6078      	str	r0, [r7, #4]
 8001c1e:	6039      	str	r1, [r7, #0]
  (void)pid;
  (void)sig;
  errno = EINVAL;
 8001c20:	f000 fea4 	bl	800296c <__errno>
 8001c24:	4603      	mov	r3, r0
 8001c26:	2216      	movs	r2, #22
 8001c28:	601a      	str	r2, [r3, #0]
  return -1;
 8001c2a:	f04f 33ff 	mov.w	r3, #4294967295
}
 8001c2e:	4618      	mov	r0, r3
 8001c30:	3708      	adds	r7, #8
 8001c32:	46bd      	mov	sp, r7
 8001c34:	bd80      	pop	{r7, pc}

08001c36 <_exit>:

void _exit (int status)
{
 8001c36:	b580      	push	{r7, lr}
 8001c38:	b082      	sub	sp, #8
 8001c3a:	af00      	add	r7, sp, #0
 8001c3c:	6078      	str	r0, [r7, #4]
  _kill(status, -1);
 8001c3e:	f04f 31ff 	mov.w	r1, #4294967295
 8001c42:	6878      	ldr	r0, [r7, #4]
 8001c44:	f7ff ffe7 	bl	8001c16 <_kill>
  while (1) {}    /* Make sure we hang here */
 8001c48:	bf00      	nop
 8001c4a:	e7fd      	b.n	8001c48 <_exit+0x12>

08001c4c <_read>:
}

__attribute__((weak)) int _read(int file, char *ptr, int len)
{
 8001c4c:	b580      	push	{r7, lr}
 8001c4e:	b086      	sub	sp, #24
 8001c50:	af00      	add	r7, sp, #0
 8001c52:	60f8      	str	r0, [r7, #12]
 8001c54:	60b9      	str	r1, [r7, #8]
 8001c56:	607a      	str	r2, [r7, #4]
  (void)file;
  int DataIdx;

  for (DataIdx = 0; DataIdx < len; DataIdx++)
 8001c58:	2300      	movs	r3, #0
 8001c5a:	617b      	str	r3, [r7, #20]
 8001c5c:	e00a      	b.n	8001c74 <_read+0x28>
  {
    *ptr++ = __io_getchar();
 8001c5e:	f3af 8000 	nop.w
 8001c62:	4601      	mov	r1, r0
 8001c64:	68bb      	ldr	r3, [r7, #8]
 8001c66:	1c5a      	adds	r2, r3, #1
 8001c68:	60ba      	str	r2, [r7, #8]
 8001c6a:	b2ca      	uxtb	r2, r1
 8001c6c:	701a      	strb	r2, [r3, #0]
  for (DataIdx = 0; DataIdx < len; DataIdx++)
 8001c6e:	697b      	ldr	r3, [r7, #20]
 8001c70:	3301      	adds	r3, #1
 8001c72:	617b      	str	r3, [r7, #20]
 8001c74:	697a      	ldr	r2, [r7, #20]
 8001c76:	687b      	ldr	r3, [r7, #4]
 8001c78:	429a      	cmp	r2, r3
 8001c7a:	dbf0      	blt.n	8001c5e <_read+0x12>
  }

  return len;
 8001c7c:	687b      	ldr	r3, [r7, #4]
}
 8001c7e:	4618      	mov	r0, r3
 8001c80:	3718      	adds	r7, #24
 8001c82:	46bd      	mov	sp, r7
 8001c84:	bd80      	pop	{r7, pc}

08001c86 <_write>:

__attribute__((weak)) int _write(int file, char *ptr, int len)
{
 8001c86:	b580      	push	{r7, lr}
 8001c88:	b086      	sub	sp, #24
 8001c8a:	af00      	add	r7, sp, #0
 8001c8c:	60f8      	str	r0, [r7, #12]
 8001c8e:	60b9      	str	r1, [r7, #8]
 8001c90:	607a      	str	r2, [r7, #4]
  (void)file;
  int DataIdx;

  for (DataIdx = 0; DataIdx < len; DataIdx++)
 8001c92:	2300      	movs	r3, #0
 8001c94:	617b      	str	r3, [r7, #20]
 8001c96:	e009      	b.n	8001cac <_write+0x26>
  {
    __io_putchar(*ptr++);
 8001c98:	68bb      	ldr	r3, [r7, #8]
 8001c9a:	1c5a      	adds	r2, r3, #1
 8001c9c:	60ba      	str	r2, [r7, #8]
 8001c9e:	781b      	ldrb	r3, [r3, #0]
 8001ca0:	4618      	mov	r0, r3
 8001ca2:	f7ff ff9f 	bl	8001be4 <__io_putchar>
  for (DataIdx = 0; DataIdx < len; DataIdx++)
 8001ca6:	697b      	ldr	r3, [r7, #20]
 8001ca8:	3301      	adds	r3, #1
 8001caa:	617b      	str	r3, [r7, #20]
 8001cac:	697a      	ldr	r2, [r7, #20]
 8001cae:	687b      	ldr	r3, [r7, #4]
 8001cb0:	429a      	cmp	r2, r3
 8001cb2:	dbf1      	blt.n	8001c98 <_write+0x12>
  }
  return len;
 8001cb4:	687b      	ldr	r3, [r7, #4]
}
 8001cb6:	4618      	mov	r0, r3
 8001cb8:	3718      	adds	r7, #24
 8001cba:	46bd      	mov	sp, r7
 8001cbc:	bd80      	pop	{r7, pc}

08001cbe <_close>:

int _close(int file)
{
 8001cbe:	b480      	push	{r7}
 8001cc0:	b083      	sub	sp, #12
 8001cc2:	af00      	add	r7, sp, #0
 8001cc4:	6078      	str	r0, [r7, #4]
  (void)file;
  return -1;
 8001cc6:	f04f 33ff 	mov.w	r3, #4294967295
}
 8001cca:	4618      	mov	r0, r3
 8001ccc:	370c      	adds	r7, #12
 8001cce:	46bd      	mov	sp, r7
 8001cd0:	bc80      	pop	{r7}
 8001cd2:	4770      	bx	lr

08001cd4 <_fstat>:


int _fstat(int file, struct stat *st)
{
 8001cd4:	b480      	push	{r7}
 8001cd6:	b083      	sub	sp, #12
 8001cd8:	af00      	add	r7, sp, #0
 8001cda:	6078      	str	r0, [r7, #4]
 8001cdc:	6039      	str	r1, [r7, #0]
  (void)file;
  st->st_mode = S_IFCHR;
 8001cde:	683b      	ldr	r3, [r7, #0]
 8001ce0:	f44f 5200 	mov.w	r2, #8192	@ 0x2000
 8001ce4:	605a      	str	r2, [r3, #4]
  return 0;
 8001ce6:	2300      	movs	r3, #0
}
 8001ce8:	4618      	mov	r0, r3
 8001cea:	370c      	adds	r7, #12
 8001cec:	46bd      	mov	sp, r7
 8001cee:	bc80      	pop	{r7}
 8001cf0:	4770      	bx	lr

08001cf2 <_isatty>:

int _isatty(int file)
{
 8001cf2:	b480      	push	{r7}
 8001cf4:	b083      	sub	sp, #12
 8001cf6:	af00      	add	r7, sp, #0
 8001cf8:	6078      	str	r0, [r7, #4]
  (void)file;
  return 1;
 8001cfa:	2301      	movs	r3, #1
}
 8001cfc:	4618      	mov	r0, r3
 8001cfe:	370c      	adds	r7, #12
 8001d00:	46bd      	mov	sp, r7
 8001d02:	bc80      	pop	{r7}
 8001d04:	4770      	bx	lr

08001d06 <_lseek>:

int _lseek(int file, int ptr, int dir)
{
 8001d06:	b480      	push	{r7}
 8001d08:	b085      	sub	sp, #20
 8001d0a:	af00      	add	r7, sp, #0
 8001d0c:	60f8      	str	r0, [r7, #12]
 8001d0e:	60b9      	str	r1, [r7, #8]
 8001d10:	607a      	str	r2, [r7, #4]
  (void)file;
  (void)ptr;
  (void)dir;
  return 0;
 8001d12:	2300      	movs	r3, #0
}
 8001d14:	4618      	mov	r0, r3
 8001d16:	3714      	adds	r7, #20
 8001d18:	46bd      	mov	sp, r7
 8001d1a:	bc80      	pop	{r7}
 8001d1c:	4770      	bx	lr
	...

08001d20 <_sbrk>:
 *
 * @param incr Memory size
 * @return Pointer to allocated memory
 */
void *_sbrk(ptrdiff_t incr)
{
 8001d20:	b580      	push	{r7, lr}
 8001d22:	b086      	sub	sp, #24
 8001d24:	af00      	add	r7, sp, #0
 8001d26:	6078      	str	r0, [r7, #4]
  extern uint8_t _end; /* Symbol defined in the linker script */
  extern uint8_t _estack; /* Symbol defined in the linker script */
  extern uint32_t _Min_Stack_Size; /* Symbol defined in the linker script */
  const uint32_t stack_limit = (uint32_t)&_estack - (uint32_t)&_Min_Stack_Size;
 8001d28:	4a14      	ldr	r2, [pc, #80]	@ (8001d7c <_sbrk+0x5c>)
 8001d2a:	4b15      	ldr	r3, [pc, #84]	@ (8001d80 <_sbrk+0x60>)
 8001d2c:	1ad3      	subs	r3, r2, r3
 8001d2e:	617b      	str	r3, [r7, #20]
  const uint8_t *max_heap = (uint8_t *)stack_limit;
 8001d30:	697b      	ldr	r3, [r7, #20]
 8001d32:	613b      	str	r3, [r7, #16]
  uint8_t *prev_heap_end;

  /* Initialize heap end at first call */
  if (NULL == __sbrk_heap_end)
 8001d34:	4b13      	ldr	r3, [pc, #76]	@ (8001d84 <_sbrk+0x64>)
 8001d36:	681b      	ldr	r3, [r3, #0]
 8001d38:	2b00      	cmp	r3, #0
 8001d3a:	d102      	bne.n	8001d42 <_sbrk+0x22>
  {
    __sbrk_heap_end = &_end;
 8001d3c:	4b11      	ldr	r3, [pc, #68]	@ (8001d84 <_sbrk+0x64>)
 8001d3e:	4a12      	ldr	r2, [pc, #72]	@ (8001d88 <_sbrk+0x68>)
 8001d40:	601a      	str	r2, [r3, #0]
  }

  /* Protect heap from growing into the reserved MSP stack */
  if (__sbrk_heap_end + incr > max_heap)
 8001d42:	4b10      	ldr	r3, [pc, #64]	@ (8001d84 <_sbrk+0x64>)
 8001d44:	681a      	ldr	r2, [r3, #0]
 8001d46:	687b      	ldr	r3, [r7, #4]
 8001d48:	4413      	add	r3, r2
 8001d4a:	693a      	ldr	r2, [r7, #16]
 8001d4c:	429a      	cmp	r2, r3
 8001d4e:	d207      	bcs.n	8001d60 <_sbrk+0x40>
  {
    errno = ENOMEM;
 8001d50:	f000 fe0c 	bl	800296c <__errno>
 8001d54:	4603      	mov	r3, r0
 8001d56:	220c      	movs	r2, #12
 8001d58:	601a      	str	r2, [r3, #0]
    return (void *)-1;
 8001d5a:	f04f 33ff 	mov.w	r3, #4294967295
 8001d5e:	e009      	b.n	8001d74 <_sbrk+0x54>
  }

  prev_heap_end = __sbrk_heap_end;
 8001d60:	4b08      	ldr	r3, [pc, #32]	@ (8001d84 <_sbrk+0x64>)
 8001d62:	681b      	ldr	r3, [r3, #0]
 8001d64:	60fb      	str	r3, [r7, #12]
  __sbrk_heap_end += incr;
 8001d66:	4b07      	ldr	r3, [pc, #28]	@ (8001d84 <_sbrk+0x64>)
 8001d68:	681a      	ldr	r2, [r3, #0]
 8001d6a:	687b      	ldr	r3, [r7, #4]
 8001d6c:	4413      	add	r3, r2
 8001d6e:	4a05      	ldr	r2, [pc, #20]	@ (8001d84 <_sbrk+0x64>)
 8001d70:	6013      	str	r3, [r2, #0]

  return (void *)prev_heap_end;
 8001d72:	68fb      	ldr	r3, [r7, #12]
}
 8001d74:	4618      	mov	r0, r3
 8001d76:	3718      	adds	r7, #24
 8001d78:	46bd      	mov	sp, r7
 8001d7a:	bd80      	pop	{r7, pc}
 8001d7c:	20002800 	.word	0x20002800
 8001d80:	00000400 	.word	0x00000400
 8001d84:	20000418 	.word	0x20000418
 8001d88:	20000568 	.word	0x20000568

08001d8c <Reset_Handler>:
 8001d8c:	480d      	ldr	r0, [pc, #52]	@ (8001dc4 <LoopForever+0x2>)
 8001d8e:	4685      	mov	sp, r0
 8001d90:	f7ff f84c 	bl	8000e2c <SystemInit>
 8001d94:	480c      	ldr	r0, [pc, #48]	@ (8001dc8 <LoopForever+0x6>)
 8001d96:	490d      	ldr	r1, [pc, #52]	@ (8001dcc <LoopForever+0xa>)
 8001d98:	4a0d      	ldr	r2, [pc, #52]	@ (8001dd0 <LoopForever+0xe>)
 8001d9a:	2300      	movs	r3, #0
 8001d9c:	e002      	b.n	8001da4 <LoopCopyDataInit>

08001d9e <CopyDataInit>:
 8001d9e:	58d4      	ldr	r4, [r2, r3]
 8001da0:	50c4      	str	r4, [r0, r3]
 8001da2:	3304      	adds	r3, #4

08001da4 <LoopCopyDataInit>:
 8001da4:	18c4      	adds	r4, r0, r3
 8001da6:	428c      	cmp	r4, r1
 8001da8:	d3f9      	bcc.n	8001d9e <CopyDataInit>
 8001daa:	4a0a      	ldr	r2, [pc, #40]	@ (8001dd4 <LoopForever+0x12>)
 8001dac:	4c0a      	ldr	r4, [pc, #40]	@ (8001dd8 <LoopForever+0x16>)
 8001dae:	2300      	movs	r3, #0
 8001db0:	e001      	b.n	8001db6 <LoopFillZerobss>

08001db2 <FillZerobss>:
 8001db2:	6013      	str	r3, [r2, #0]
 8001db4:	3204      	adds	r2, #4

08001db6 <LoopFillZerobss>:
 8001db6:	42a2      	cmp	r2, r4
 8001db8:	d3fb      	bcc.n	8001db2 <FillZerobss>
 8001dba:	f000 fddd 	bl	8002978 <__libc_init_array>
 8001dbe:	f7ff fec5 	bl	8001b4c <main>

08001dc2 <LoopForever>:
 8001dc2:	e7fe      	b.n	8001dc2 <LoopForever>
 8001dc4:	20002800 	.word	0x20002800
 8001dc8:	20000000 	.word	0x20000000
 8001dcc:	200001cc 	.word	0x200001cc
 8001dd0:	08004b00 	.word	0x08004b00
 8001dd4:	200001cc 	.word	0x200001cc
 8001dd8:	20000568 	.word	0x20000568

08001ddc <ADC1_2_IRQHandler>:
 8001ddc:	e7fe      	b.n	8001ddc <ADC1_2_IRQHandler>

08001dde <__cvt>:
 8001dde:	2b00      	cmp	r3, #0
 8001de0:	e92d 47f0 	stmdb	sp!, {r4, r5, r6, r7, r8, r9, sl, lr}
 8001de4:	461d      	mov	r5, r3
 8001de6:	bfbb      	ittet	lt
 8001de8:	f103 4300 	addlt.w	r3, r3, #2147483648	@ 0x80000000
 8001dec:	461d      	movlt	r5, r3
 8001dee:	2300      	movge	r3, #0
 8001df0:	232d      	movlt	r3, #45	@ 0x2d
 8001df2:	b088      	sub	sp, #32
 8001df4:	4614      	mov	r4, r2
 8001df6:	bfb8      	it	lt
 8001df8:	4614      	movlt	r4, r2
 8001dfa:	9a12      	ldr	r2, [sp, #72]	@ 0x48
 8001dfc:	9e10      	ldr	r6, [sp, #64]	@ 0x40
 8001dfe:	7013      	strb	r3, [r2, #0]
 8001e00:	9b14      	ldr	r3, [sp, #80]	@ 0x50
 8001e02:	f8dd a04c 	ldr.w	sl, [sp, #76]	@ 0x4c
 8001e06:	f023 0820 	bic.w	r8, r3, #32
 8001e0a:	f1b8 0f46 	cmp.w	r8, #70	@ 0x46
 8001e0e:	d005      	beq.n	8001e1c <__cvt+0x3e>
 8001e10:	f1b8 0f45 	cmp.w	r8, #69	@ 0x45
 8001e14:	d100      	bne.n	8001e18 <__cvt+0x3a>
 8001e16:	3601      	adds	r6, #1
 8001e18:	2302      	movs	r3, #2
 8001e1a:	e000      	b.n	8001e1e <__cvt+0x40>
 8001e1c:	2303      	movs	r3, #3
 8001e1e:	aa07      	add	r2, sp, #28
 8001e20:	9204      	str	r2, [sp, #16]
 8001e22:	aa06      	add	r2, sp, #24
 8001e24:	e9cd a202 	strd	sl, r2, [sp, #8]
 8001e28:	e9cd 3600 	strd	r3, r6, [sp]
 8001e2c:	4622      	mov	r2, r4
 8001e2e:	462b      	mov	r3, r5
 8001e30:	f000 fe62 	bl	8002af8 <_dtoa_r>
 8001e34:	f1b8 0f47 	cmp.w	r8, #71	@ 0x47
 8001e38:	4607      	mov	r7, r0
 8001e3a:	d119      	bne.n	8001e70 <__cvt+0x92>
 8001e3c:	9b11      	ldr	r3, [sp, #68]	@ 0x44
 8001e3e:	07db      	lsls	r3, r3, #31
 8001e40:	d50e      	bpl.n	8001e60 <__cvt+0x82>
 8001e42:	eb00 0906 	add.w	r9, r0, r6
 8001e46:	2200      	movs	r2, #0
 8001e48:	2300      	movs	r3, #0
 8001e4a:	4620      	mov	r0, r4
 8001e4c:	4629      	mov	r1, r5
 8001e4e:	f7fe fe6f 	bl	8000b30 <__aeabi_dcmpeq>
 8001e52:	b108      	cbz	r0, 8001e58 <__cvt+0x7a>
 8001e54:	f8cd 901c 	str.w	r9, [sp, #28]
 8001e58:	2230      	movs	r2, #48	@ 0x30
 8001e5a:	9b07      	ldr	r3, [sp, #28]
 8001e5c:	454b      	cmp	r3, r9
 8001e5e:	d31e      	bcc.n	8001e9e <__cvt+0xc0>
 8001e60:	4638      	mov	r0, r7
 8001e62:	9b07      	ldr	r3, [sp, #28]
 8001e64:	9a15      	ldr	r2, [sp, #84]	@ 0x54
 8001e66:	1bdb      	subs	r3, r3, r7
 8001e68:	6013      	str	r3, [r2, #0]
 8001e6a:	b008      	add	sp, #32
 8001e6c:	e8bd 87f0 	ldmia.w	sp!, {r4, r5, r6, r7, r8, r9, sl, pc}
 8001e70:	f1b8 0f46 	cmp.w	r8, #70	@ 0x46
 8001e74:	eb00 0906 	add.w	r9, r0, r6
 8001e78:	d1e5      	bne.n	8001e46 <__cvt+0x68>
 8001e7a:	7803      	ldrb	r3, [r0, #0]
 8001e7c:	2b30      	cmp	r3, #48	@ 0x30
 8001e7e:	d10a      	bne.n	8001e96 <__cvt+0xb8>
 8001e80:	2200      	movs	r2, #0
 8001e82:	2300      	movs	r3, #0
 8001e84:	4620      	mov	r0, r4
 8001e86:	4629      	mov	r1, r5
 8001e88:	f7fe fe52 	bl	8000b30 <__aeabi_dcmpeq>
 8001e8c:	b918      	cbnz	r0, 8001e96 <__cvt+0xb8>
 8001e8e:	f1c6 0601 	rsb	r6, r6, #1
 8001e92:	f8ca 6000 	str.w	r6, [sl]
 8001e96:	f8da 3000 	ldr.w	r3, [sl]
 8001e9a:	4499      	add	r9, r3
 8001e9c:	e7d3      	b.n	8001e46 <__cvt+0x68>
 8001e9e:	1c59      	adds	r1, r3, #1
 8001ea0:	9107      	str	r1, [sp, #28]
 8001ea2:	701a      	strb	r2, [r3, #0]
 8001ea4:	e7d9      	b.n	8001e5a <__cvt+0x7c>

08001ea6 <__exponent>:
 8001ea6:	b5f7      	push	{r0, r1, r2, r4, r5, r6, r7, lr}
 8001ea8:	2900      	cmp	r1, #0
 8001eaa:	bfb6      	itet	lt
 8001eac:	232d      	movlt	r3, #45	@ 0x2d
 8001eae:	232b      	movge	r3, #43	@ 0x2b
 8001eb0:	4249      	neglt	r1, r1
 8001eb2:	2909      	cmp	r1, #9
 8001eb4:	7002      	strb	r2, [r0, #0]
 8001eb6:	7043      	strb	r3, [r0, #1]
 8001eb8:	dd29      	ble.n	8001f0e <__exponent+0x68>
 8001eba:	f10d 0307 	add.w	r3, sp, #7
 8001ebe:	461d      	mov	r5, r3
 8001ec0:	270a      	movs	r7, #10
 8001ec2:	fbb1 f6f7 	udiv	r6, r1, r7
 8001ec6:	461a      	mov	r2, r3
 8001ec8:	fb07 1416 	mls	r4, r7, r6, r1
 8001ecc:	3430      	adds	r4, #48	@ 0x30
 8001ece:	f802 4c01 	strb.w	r4, [r2, #-1]
 8001ed2:	460c      	mov	r4, r1
 8001ed4:	2c63      	cmp	r4, #99	@ 0x63
 8001ed6:	4631      	mov	r1, r6
 8001ed8:	f103 33ff 	add.w	r3, r3, #4294967295
 8001edc:	dcf1      	bgt.n	8001ec2 <__exponent+0x1c>
 8001ede:	3130      	adds	r1, #48	@ 0x30
 8001ee0:	1e94      	subs	r4, r2, #2
 8001ee2:	f803 1c01 	strb.w	r1, [r3, #-1]
 8001ee6:	4623      	mov	r3, r4
 8001ee8:	1c41      	adds	r1, r0, #1
 8001eea:	42ab      	cmp	r3, r5
 8001eec:	d30a      	bcc.n	8001f04 <__exponent+0x5e>
 8001eee:	f10d 0309 	add.w	r3, sp, #9
 8001ef2:	1a9b      	subs	r3, r3, r2
 8001ef4:	42ac      	cmp	r4, r5
 8001ef6:	bf88      	it	hi
 8001ef8:	2300      	movhi	r3, #0
 8001efa:	3302      	adds	r3, #2
 8001efc:	4403      	add	r3, r0
 8001efe:	1a18      	subs	r0, r3, r0
 8001f00:	b003      	add	sp, #12
 8001f02:	bdf0      	pop	{r4, r5, r6, r7, pc}
 8001f04:	f813 6b01 	ldrb.w	r6, [r3], #1
 8001f08:	f801 6f01 	strb.w	r6, [r1, #1]!
 8001f0c:	e7ed      	b.n	8001eea <__exponent+0x44>
 8001f0e:	2330      	movs	r3, #48	@ 0x30
 8001f10:	3130      	adds	r1, #48	@ 0x30
 8001f12:	7083      	strb	r3, [r0, #2]
 8001f14:	70c1      	strb	r1, [r0, #3]
 8001f16:	1d03      	adds	r3, r0, #4
 8001f18:	e7f1      	b.n	8001efe <__exponent+0x58>
	...

08001f1c <_printf_float>:
 8001f1c:	e92d 4ff0 	stmdb	sp!, {r4, r5, r6, r7, r8, r9, sl, fp, lr}
 8001f20:	b091      	sub	sp, #68	@ 0x44
 8001f22:	460c      	mov	r4, r1
 8001f24:	f8dd 8068 	ldr.w	r8, [sp, #104]	@ 0x68
 8001f28:	4616      	mov	r6, r2
 8001f2a:	461f      	mov	r7, r3
 8001f2c:	4605      	mov	r5, r0
 8001f2e:	f000 fcd3 	bl	80028d8 <_localeconv_r>
 8001f32:	6803      	ldr	r3, [r0, #0]
 8001f34:	4618      	mov	r0, r3
 8001f36:	9308      	str	r3, [sp, #32]
 8001f38:	f7fe f91a 	bl	8000170 <strlen>
 8001f3c:	2300      	movs	r3, #0
 8001f3e:	930e      	str	r3, [sp, #56]	@ 0x38
 8001f40:	f8d8 3000 	ldr.w	r3, [r8]
 8001f44:	9009      	str	r0, [sp, #36]	@ 0x24
 8001f46:	3307      	adds	r3, #7
 8001f48:	f023 0307 	bic.w	r3, r3, #7
 8001f4c:	f103 0208 	add.w	r2, r3, #8
 8001f50:	f894 a018 	ldrb.w	sl, [r4, #24]
 8001f54:	f8d4 b000 	ldr.w	fp, [r4]
 8001f58:	f8c8 2000 	str.w	r2, [r8]
 8001f5c:	e9d3 8900 	ldrd	r8, r9, [r3]
 8001f60:	f029 4300 	bic.w	r3, r9, #2147483648	@ 0x80000000
 8001f64:	930b      	str	r3, [sp, #44]	@ 0x2c
 8001f66:	f8cd 8028 	str.w	r8, [sp, #40]	@ 0x28
 8001f6a:	f04f 32ff 	mov.w	r2, #4294967295
 8001f6e:	e9dd 010a 	ldrd	r0, r1, [sp, #40]	@ 0x28
 8001f72:	e9c4 8912 	strd	r8, r9, [r4, #72]	@ 0x48
 8001f76:	4b9c      	ldr	r3, [pc, #624]	@ (80021e8 <_printf_float+0x2cc>)
 8001f78:	f7fe fe0c 	bl	8000b94 <__aeabi_dcmpun>
 8001f7c:	bb70      	cbnz	r0, 8001fdc <_printf_float+0xc0>
 8001f7e:	e9dd 010a 	ldrd	r0, r1, [sp, #40]	@ 0x28
 8001f82:	f04f 32ff 	mov.w	r2, #4294967295
 8001f86:	4b98      	ldr	r3, [pc, #608]	@ (80021e8 <_printf_float+0x2cc>)
 8001f88:	f7fe fde6 	bl	8000b58 <__aeabi_dcmple>
 8001f8c:	bb30      	cbnz	r0, 8001fdc <_printf_float+0xc0>
 8001f8e:	2200      	movs	r2, #0
 8001f90:	2300      	movs	r3, #0
 8001f92:	4640      	mov	r0, r8
 8001f94:	4649      	mov	r1, r9
 8001f96:	f7fe fdd5 	bl	8000b44 <__aeabi_dcmplt>
 8001f9a:	b110      	cbz	r0, 8001fa2 <_printf_float+0x86>
 8001f9c:	232d      	movs	r3, #45	@ 0x2d
 8001f9e:	f884 3043 	strb.w	r3, [r4, #67]	@ 0x43
 8001fa2:	4a92      	ldr	r2, [pc, #584]	@ (80021ec <_printf_float+0x2d0>)
 8001fa4:	4b92      	ldr	r3, [pc, #584]	@ (80021f0 <_printf_float+0x2d4>)
 8001fa6:	f1ba 0f47 	cmp.w	sl, #71	@ 0x47
 8001faa:	bf94      	ite	ls
 8001fac:	4690      	movls	r8, r2
 8001fae:	4698      	movhi	r8, r3
 8001fb0:	2303      	movs	r3, #3
 8001fb2:	f04f 0900 	mov.w	r9, #0
 8001fb6:	6123      	str	r3, [r4, #16]
 8001fb8:	f02b 0304 	bic.w	r3, fp, #4
 8001fbc:	6023      	str	r3, [r4, #0]
 8001fbe:	4633      	mov	r3, r6
 8001fc0:	4621      	mov	r1, r4
 8001fc2:	4628      	mov	r0, r5
 8001fc4:	9700      	str	r7, [sp, #0]
 8001fc6:	aa0f      	add	r2, sp, #60	@ 0x3c
 8001fc8:	f000 f9d4 	bl	8002374 <_printf_common>
 8001fcc:	3001      	adds	r0, #1
 8001fce:	f040 8090 	bne.w	80020f2 <_printf_float+0x1d6>
 8001fd2:	f04f 30ff 	mov.w	r0, #4294967295
 8001fd6:	b011      	add	sp, #68	@ 0x44
 8001fd8:	e8bd 8ff0 	ldmia.w	sp!, {r4, r5, r6, r7, r8, r9, sl, fp, pc}
 8001fdc:	4642      	mov	r2, r8
 8001fde:	464b      	mov	r3, r9
 8001fe0:	4640      	mov	r0, r8
 8001fe2:	4649      	mov	r1, r9
 8001fe4:	f7fe fdd6 	bl	8000b94 <__aeabi_dcmpun>
 8001fe8:	b148      	cbz	r0, 8001ffe <_printf_float+0xe2>
 8001fea:	464b      	mov	r3, r9
 8001fec:	2b00      	cmp	r3, #0
 8001fee:	bfb8      	it	lt
 8001ff0:	232d      	movlt	r3, #45	@ 0x2d
 8001ff2:	4a80      	ldr	r2, [pc, #512]	@ (80021f4 <_printf_float+0x2d8>)
 8001ff4:	bfb8      	it	lt
 8001ff6:	f884 3043 	strblt.w	r3, [r4, #67]	@ 0x43
 8001ffa:	4b7f      	ldr	r3, [pc, #508]	@ (80021f8 <_printf_float+0x2dc>)
 8001ffc:	e7d3      	b.n	8001fa6 <_printf_float+0x8a>
 8001ffe:	6863      	ldr	r3, [r4, #4]
 8002000:	f00a 01df 	and.w	r1, sl, #223	@ 0xdf
 8002004:	1c5a      	adds	r2, r3, #1
 8002006:	d13f      	bne.n	8002088 <_printf_float+0x16c>
 8002008:	2306      	movs	r3, #6
 800200a:	6063      	str	r3, [r4, #4]
 800200c:	2200      	movs	r2, #0
 800200e:	f44b 6380 	orr.w	r3, fp, #1024	@ 0x400
 8002012:	6023      	str	r3, [r4, #0]
 8002014:	9206      	str	r2, [sp, #24]
 8002016:	aa0e      	add	r2, sp, #56	@ 0x38
 8002018:	e9cd a204 	strd	sl, r2, [sp, #16]
 800201c:	aa0d      	add	r2, sp, #52	@ 0x34
 800201e:	9203      	str	r2, [sp, #12]
 8002020:	f10d 0233 	add.w	r2, sp, #51	@ 0x33
 8002024:	e9cd 3201 	strd	r3, r2, [sp, #4]
 8002028:	6863      	ldr	r3, [r4, #4]
 800202a:	4642      	mov	r2, r8
 800202c:	9300      	str	r3, [sp, #0]
 800202e:	4628      	mov	r0, r5
 8002030:	464b      	mov	r3, r9
 8002032:	910a      	str	r1, [sp, #40]	@ 0x28
 8002034:	f7ff fed3 	bl	8001dde <__cvt>
 8002038:	990a      	ldr	r1, [sp, #40]	@ 0x28
 800203a:	4680      	mov	r8, r0
 800203c:	2947      	cmp	r1, #71	@ 0x47
 800203e:	990d      	ldr	r1, [sp, #52]	@ 0x34
 8002040:	d128      	bne.n	8002094 <_printf_float+0x178>
 8002042:	1cc8      	adds	r0, r1, #3
 8002044:	db02      	blt.n	800204c <_printf_float+0x130>
 8002046:	6863      	ldr	r3, [r4, #4]
 8002048:	4299      	cmp	r1, r3
 800204a:	dd40      	ble.n	80020ce <_printf_float+0x1b2>
 800204c:	f1aa 0a02 	sub.w	sl, sl, #2
 8002050:	fa5f fa8a 	uxtb.w	sl, sl
 8002054:	4652      	mov	r2, sl
 8002056:	3901      	subs	r1, #1
 8002058:	f104 0050 	add.w	r0, r4, #80	@ 0x50
 800205c:	910d      	str	r1, [sp, #52]	@ 0x34
 800205e:	f7ff ff22 	bl	8001ea6 <__exponent>
 8002062:	9a0e      	ldr	r2, [sp, #56]	@ 0x38
 8002064:	4681      	mov	r9, r0
 8002066:	1813      	adds	r3, r2, r0
 8002068:	2a01      	cmp	r2, #1
 800206a:	6123      	str	r3, [r4, #16]
 800206c:	dc02      	bgt.n	8002074 <_printf_float+0x158>
 800206e:	6822      	ldr	r2, [r4, #0]
 8002070:	07d2      	lsls	r2, r2, #31
 8002072:	d501      	bpl.n	8002078 <_printf_float+0x15c>
 8002074:	3301      	adds	r3, #1
 8002076:	6123      	str	r3, [r4, #16]
 8002078:	f89d 3033 	ldrb.w	r3, [sp, #51]	@ 0x33
 800207c:	2b00      	cmp	r3, #0
 800207e:	d09e      	beq.n	8001fbe <_printf_float+0xa2>
 8002080:	232d      	movs	r3, #45	@ 0x2d
 8002082:	f884 3043 	strb.w	r3, [r4, #67]	@ 0x43
 8002086:	e79a      	b.n	8001fbe <_printf_float+0xa2>
 8002088:	2947      	cmp	r1, #71	@ 0x47
 800208a:	d1bf      	bne.n	800200c <_printf_float+0xf0>
 800208c:	2b00      	cmp	r3, #0
 800208e:	d1bd      	bne.n	800200c <_printf_float+0xf0>
 8002090:	2301      	movs	r3, #1
 8002092:	e7ba      	b.n	800200a <_printf_float+0xee>
 8002094:	f1ba 0f65 	cmp.w	sl, #101	@ 0x65
 8002098:	d9dc      	bls.n	8002054 <_printf_float+0x138>
 800209a:	f1ba 0f66 	cmp.w	sl, #102	@ 0x66
 800209e:	d118      	bne.n	80020d2 <_printf_float+0x1b6>
 80020a0:	2900      	cmp	r1, #0
 80020a2:	6863      	ldr	r3, [r4, #4]
 80020a4:	dd0b      	ble.n	80020be <_printf_float+0x1a2>
 80020a6:	6121      	str	r1, [r4, #16]
 80020a8:	b913      	cbnz	r3, 80020b0 <_printf_float+0x194>
 80020aa:	6822      	ldr	r2, [r4, #0]
 80020ac:	07d0      	lsls	r0, r2, #31
 80020ae:	d502      	bpl.n	80020b6 <_printf_float+0x19a>
 80020b0:	3301      	adds	r3, #1
 80020b2:	440b      	add	r3, r1
 80020b4:	6123      	str	r3, [r4, #16]
 80020b6:	f04f 0900 	mov.w	r9, #0
 80020ba:	65a1      	str	r1, [r4, #88]	@ 0x58
 80020bc:	e7dc      	b.n	8002078 <_printf_float+0x15c>
 80020be:	b913      	cbnz	r3, 80020c6 <_printf_float+0x1aa>
 80020c0:	6822      	ldr	r2, [r4, #0]
 80020c2:	07d2      	lsls	r2, r2, #31
 80020c4:	d501      	bpl.n	80020ca <_printf_float+0x1ae>
 80020c6:	3302      	adds	r3, #2
 80020c8:	e7f4      	b.n	80020b4 <_printf_float+0x198>
 80020ca:	2301      	movs	r3, #1
 80020cc:	e7f2      	b.n	80020b4 <_printf_float+0x198>
 80020ce:	f04f 0a67 	mov.w	sl, #103	@ 0x67
 80020d2:	9b0e      	ldr	r3, [sp, #56]	@ 0x38
 80020d4:	4299      	cmp	r1, r3
 80020d6:	db05      	blt.n	80020e4 <_printf_float+0x1c8>
 80020d8:	6823      	ldr	r3, [r4, #0]
 80020da:	6121      	str	r1, [r4, #16]
 80020dc:	07d8      	lsls	r0, r3, #31
 80020de:	d5ea      	bpl.n	80020b6 <_printf_float+0x19a>
 80020e0:	1c4b      	adds	r3, r1, #1
 80020e2:	e7e7      	b.n	80020b4 <_printf_float+0x198>
 80020e4:	2900      	cmp	r1, #0
 80020e6:	bfcc      	ite	gt
 80020e8:	2201      	movgt	r2, #1
 80020ea:	f1c1 0202 	rsble	r2, r1, #2
 80020ee:	4413      	add	r3, r2
 80020f0:	e7e0      	b.n	80020b4 <_printf_float+0x198>
 80020f2:	6823      	ldr	r3, [r4, #0]
 80020f4:	055a      	lsls	r2, r3, #21
 80020f6:	d407      	bmi.n	8002108 <_printf_float+0x1ec>
 80020f8:	6923      	ldr	r3, [r4, #16]
 80020fa:	4642      	mov	r2, r8
 80020fc:	4631      	mov	r1, r6
 80020fe:	4628      	mov	r0, r5
 8002100:	47b8      	blx	r7
 8002102:	3001      	adds	r0, #1
 8002104:	d12b      	bne.n	800215e <_printf_float+0x242>
 8002106:	e764      	b.n	8001fd2 <_printf_float+0xb6>
 8002108:	f1ba 0f65 	cmp.w	sl, #101	@ 0x65
 800210c:	f240 80dc 	bls.w	80022c8 <_printf_float+0x3ac>
 8002110:	e9d4 0112 	ldrd	r0, r1, [r4, #72]	@ 0x48
 8002114:	2200      	movs	r2, #0
 8002116:	2300      	movs	r3, #0
 8002118:	f7fe fd0a 	bl	8000b30 <__aeabi_dcmpeq>
 800211c:	2800      	cmp	r0, #0
 800211e:	d033      	beq.n	8002188 <_printf_float+0x26c>
 8002120:	2301      	movs	r3, #1
 8002122:	4631      	mov	r1, r6
 8002124:	4628      	mov	r0, r5
 8002126:	4a35      	ldr	r2, [pc, #212]	@ (80021fc <_printf_float+0x2e0>)
 8002128:	47b8      	blx	r7
 800212a:	3001      	adds	r0, #1
 800212c:	f43f af51 	beq.w	8001fd2 <_printf_float+0xb6>
 8002130:	e9dd 380d 	ldrd	r3, r8, [sp, #52]	@ 0x34
 8002134:	4543      	cmp	r3, r8
 8002136:	db02      	blt.n	800213e <_printf_float+0x222>
 8002138:	6823      	ldr	r3, [r4, #0]
 800213a:	07d8      	lsls	r0, r3, #31
 800213c:	d50f      	bpl.n	800215e <_printf_float+0x242>
 800213e:	e9dd 2308 	ldrd	r2, r3, [sp, #32]
 8002142:	4631      	mov	r1, r6
 8002144:	4628      	mov	r0, r5
 8002146:	47b8      	blx	r7
 8002148:	3001      	adds	r0, #1
 800214a:	f43f af42 	beq.w	8001fd2 <_printf_float+0xb6>
 800214e:	f04f 0900 	mov.w	r9, #0
 8002152:	f108 38ff 	add.w	r8, r8, #4294967295
 8002156:	f104 0a1a 	add.w	sl, r4, #26
 800215a:	45c8      	cmp	r8, r9
 800215c:	dc09      	bgt.n	8002172 <_printf_float+0x256>
 800215e:	6823      	ldr	r3, [r4, #0]
 8002160:	079b      	lsls	r3, r3, #30
 8002162:	f100 8102 	bmi.w	800236a <_printf_float+0x44e>
 8002166:	68e0      	ldr	r0, [r4, #12]
 8002168:	9b0f      	ldr	r3, [sp, #60]	@ 0x3c
 800216a:	4298      	cmp	r0, r3
 800216c:	bfb8      	it	lt
 800216e:	4618      	movlt	r0, r3
 8002170:	e731      	b.n	8001fd6 <_printf_float+0xba>
 8002172:	2301      	movs	r3, #1
 8002174:	4652      	mov	r2, sl
 8002176:	4631      	mov	r1, r6
 8002178:	4628      	mov	r0, r5
 800217a:	47b8      	blx	r7
 800217c:	3001      	adds	r0, #1
 800217e:	f43f af28 	beq.w	8001fd2 <_printf_float+0xb6>
 8002182:	f109 0901 	add.w	r9, r9, #1
 8002186:	e7e8      	b.n	800215a <_printf_float+0x23e>
 8002188:	9b0d      	ldr	r3, [sp, #52]	@ 0x34
 800218a:	2b00      	cmp	r3, #0
 800218c:	dc38      	bgt.n	8002200 <_printf_float+0x2e4>
 800218e:	2301      	movs	r3, #1
 8002190:	4631      	mov	r1, r6
 8002192:	4628      	mov	r0, r5
 8002194:	4a19      	ldr	r2, [pc, #100]	@ (80021fc <_printf_float+0x2e0>)
 8002196:	47b8      	blx	r7
 8002198:	3001      	adds	r0, #1
 800219a:	f43f af1a 	beq.w	8001fd2 <_printf_float+0xb6>
 800219e:	e9dd 390d 	ldrd	r3, r9, [sp, #52]	@ 0x34
 80021a2:	ea59 0303 	orrs.w	r3, r9, r3
 80021a6:	d102      	bne.n	80021ae <_printf_float+0x292>
 80021a8:	6823      	ldr	r3, [r4, #0]
 80021aa:	07d9      	lsls	r1, r3, #31
 80021ac:	d5d7      	bpl.n	800215e <_printf_float+0x242>
 80021ae:	e9dd 2308 	ldrd	r2, r3, [sp, #32]
 80021b2:	4631      	mov	r1, r6
 80021b4:	4628      	mov	r0, r5
 80021b6:	47b8      	blx	r7
 80021b8:	3001      	adds	r0, #1
 80021ba:	f43f af0a 	beq.w	8001fd2 <_printf_float+0xb6>
 80021be:	f04f 0a00 	mov.w	sl, #0
 80021c2:	f104 0b1a 	add.w	fp, r4, #26
 80021c6:	9b0d      	ldr	r3, [sp, #52]	@ 0x34
 80021c8:	425b      	negs	r3, r3
 80021ca:	4553      	cmp	r3, sl
 80021cc:	dc01      	bgt.n	80021d2 <_printf_float+0x2b6>
 80021ce:	464b      	mov	r3, r9
 80021d0:	e793      	b.n	80020fa <_printf_float+0x1de>
 80021d2:	2301      	movs	r3, #1
 80021d4:	465a      	mov	r2, fp
 80021d6:	4631      	mov	r1, r6
 80021d8:	4628      	mov	r0, r5
 80021da:	47b8      	blx	r7
 80021dc:	3001      	adds	r0, #1
 80021de:	f43f aef8 	beq.w	8001fd2 <_printf_float+0xb6>
 80021e2:	f10a 0a01 	add.w	sl, sl, #1
 80021e6:	e7ee      	b.n	80021c6 <_printf_float+0x2aa>
 80021e8:	7fefffff 	.word	0x7fefffff
 80021ec:	08004782 	.word	0x08004782
 80021f0:	08004786 	.word	0x08004786
 80021f4:	0800478a 	.word	0x0800478a
 80021f8:	0800478e 	.word	0x0800478e
 80021fc:	08004792 	.word	0x08004792
 8002200:	6da3      	ldr	r3, [r4, #88]	@ 0x58
 8002202:	f8dd a038 	ldr.w	sl, [sp, #56]	@ 0x38
 8002206:	4553      	cmp	r3, sl
 8002208:	bfa8      	it	ge
 800220a:	4653      	movge	r3, sl
 800220c:	2b00      	cmp	r3, #0
 800220e:	4699      	mov	r9, r3
 8002210:	dc36      	bgt.n	8002280 <_printf_float+0x364>
 8002212:	f04f 0b00 	mov.w	fp, #0
 8002216:	ea29 79e9 	bic.w	r9, r9, r9, asr #31
 800221a:	f104 021a 	add.w	r2, r4, #26
 800221e:	6da3      	ldr	r3, [r4, #88]	@ 0x58
 8002220:	930a      	str	r3, [sp, #40]	@ 0x28
 8002222:	eba3 0309 	sub.w	r3, r3, r9
 8002226:	455b      	cmp	r3, fp
 8002228:	dc31      	bgt.n	800228e <_printf_float+0x372>
 800222a:	9b0d      	ldr	r3, [sp, #52]	@ 0x34
 800222c:	459a      	cmp	sl, r3
 800222e:	dc3a      	bgt.n	80022a6 <_printf_float+0x38a>
 8002230:	6823      	ldr	r3, [r4, #0]
 8002232:	07da      	lsls	r2, r3, #31
 8002234:	d437      	bmi.n	80022a6 <_printf_float+0x38a>
 8002236:	9b0d      	ldr	r3, [sp, #52]	@ 0x34
 8002238:	ebaa 0903 	sub.w	r9, sl, r3
 800223c:	9b0a      	ldr	r3, [sp, #40]	@ 0x28
 800223e:	ebaa 0303 	sub.w	r3, sl, r3
 8002242:	4599      	cmp	r9, r3
 8002244:	bfa8      	it	ge
 8002246:	4699      	movge	r9, r3
 8002248:	f1b9 0f00 	cmp.w	r9, #0
 800224c:	dc33      	bgt.n	80022b6 <_printf_float+0x39a>
 800224e:	f04f 0800 	mov.w	r8, #0
 8002252:	ea29 79e9 	bic.w	r9, r9, r9, asr #31
 8002256:	f104 0b1a 	add.w	fp, r4, #26
 800225a:	9b0d      	ldr	r3, [sp, #52]	@ 0x34
 800225c:	ebaa 0303 	sub.w	r3, sl, r3
 8002260:	eba3 0309 	sub.w	r3, r3, r9
 8002264:	4543      	cmp	r3, r8
 8002266:	f77f af7a 	ble.w	800215e <_printf_float+0x242>
 800226a:	2301      	movs	r3, #1
 800226c:	465a      	mov	r2, fp
 800226e:	4631      	mov	r1, r6
 8002270:	4628      	mov	r0, r5
 8002272:	47b8      	blx	r7
 8002274:	3001      	adds	r0, #1
 8002276:	f43f aeac 	beq.w	8001fd2 <_printf_float+0xb6>
 800227a:	f108 0801 	add.w	r8, r8, #1
 800227e:	e7ec      	b.n	800225a <_printf_float+0x33e>
 8002280:	4642      	mov	r2, r8
 8002282:	4631      	mov	r1, r6
 8002284:	4628      	mov	r0, r5
 8002286:	47b8      	blx	r7
 8002288:	3001      	adds	r0, #1
 800228a:	d1c2      	bne.n	8002212 <_printf_float+0x2f6>
 800228c:	e6a1      	b.n	8001fd2 <_printf_float+0xb6>
 800228e:	2301      	movs	r3, #1
 8002290:	4631      	mov	r1, r6
 8002292:	4628      	mov	r0, r5
 8002294:	920a      	str	r2, [sp, #40]	@ 0x28
 8002296:	47b8      	blx	r7
 8002298:	3001      	adds	r0, #1
 800229a:	f43f ae9a 	beq.w	8001fd2 <_printf_float+0xb6>
 800229e:	9a0a      	ldr	r2, [sp, #40]	@ 0x28
 80022a0:	f10b 0b01 	add.w	fp, fp, #1
 80022a4:	e7bb      	b.n	800221e <_printf_float+0x302>
 80022a6:	4631      	mov	r1, r6
 80022a8:	e9dd 2308 	ldrd	r2, r3, [sp, #32]
 80022ac:	4628      	mov	r0, r5
 80022ae:	47b8      	blx	r7
 80022b0:	3001      	adds	r0, #1
 80022b2:	d1c0      	bne.n	8002236 <_printf_float+0x31a>
 80022b4:	e68d      	b.n	8001fd2 <_printf_float+0xb6>
 80022b6:	9a0a      	ldr	r2, [sp, #40]	@ 0x28
 80022b8:	464b      	mov	r3, r9
 80022ba:	4631      	mov	r1, r6
 80022bc:	4628      	mov	r0, r5
 80022be:	4442      	add	r2, r8
 80022c0:	47b8      	blx	r7
 80022c2:	3001      	adds	r0, #1
 80022c4:	d1c3      	bne.n	800224e <_printf_float+0x332>
 80022c6:	e684      	b.n	8001fd2 <_printf_float+0xb6>
 80022c8:	f8dd a038 	ldr.w	sl, [sp, #56]	@ 0x38
 80022cc:	f1ba 0f01 	cmp.w	sl, #1
 80022d0:	dc01      	bgt.n	80022d6 <_printf_float+0x3ba>
 80022d2:	07db      	lsls	r3, r3, #31
 80022d4:	d536      	bpl.n	8002344 <_printf_float+0x428>
 80022d6:	2301      	movs	r3, #1
 80022d8:	4642      	mov	r2, r8
 80022da:	4631      	mov	r1, r6
 80022dc:	4628      	mov	r0, r5
 80022de:	47b8      	blx	r7
 80022e0:	3001      	adds	r0, #1
 80022e2:	f43f ae76 	beq.w	8001fd2 <_printf_float+0xb6>
 80022e6:	e9dd 2308 	ldrd	r2, r3, [sp, #32]
 80022ea:	4631      	mov	r1, r6
 80022ec:	4628      	mov	r0, r5
 80022ee:	47b8      	blx	r7
 80022f0:	3001      	adds	r0, #1
 80022f2:	f43f ae6e 	beq.w	8001fd2 <_printf_float+0xb6>
 80022f6:	e9d4 0112 	ldrd	r0, r1, [r4, #72]	@ 0x48
 80022fa:	2200      	movs	r2, #0
 80022fc:	2300      	movs	r3, #0
 80022fe:	f10a 3aff 	add.w	sl, sl, #4294967295
 8002302:	f7fe fc15 	bl	8000b30 <__aeabi_dcmpeq>
 8002306:	b9c0      	cbnz	r0, 800233a <_printf_float+0x41e>
 8002308:	4653      	mov	r3, sl
 800230a:	f108 0201 	add.w	r2, r8, #1
 800230e:	4631      	mov	r1, r6
 8002310:	4628      	mov	r0, r5
 8002312:	47b8      	blx	r7
 8002314:	3001      	adds	r0, #1
 8002316:	d10c      	bne.n	8002332 <_printf_float+0x416>
 8002318:	e65b      	b.n	8001fd2 <_printf_float+0xb6>
 800231a:	2301      	movs	r3, #1
 800231c:	465a      	mov	r2, fp
 800231e:	4631      	mov	r1, r6
 8002320:	4628      	mov	r0, r5
 8002322:	47b8      	blx	r7
 8002324:	3001      	adds	r0, #1
 8002326:	f43f ae54 	beq.w	8001fd2 <_printf_float+0xb6>
 800232a:	f108 0801 	add.w	r8, r8, #1
 800232e:	45d0      	cmp	r8, sl
 8002330:	dbf3      	blt.n	800231a <_printf_float+0x3fe>
 8002332:	464b      	mov	r3, r9
 8002334:	f104 0250 	add.w	r2, r4, #80	@ 0x50
 8002338:	e6e0      	b.n	80020fc <_printf_float+0x1e0>
 800233a:	f04f 0800 	mov.w	r8, #0
 800233e:	f104 0b1a 	add.w	fp, r4, #26
 8002342:	e7f4      	b.n	800232e <_printf_float+0x412>
 8002344:	2301      	movs	r3, #1
 8002346:	4642      	mov	r2, r8
 8002348:	e7e1      	b.n	800230e <_printf_float+0x3f2>
 800234a:	2301      	movs	r3, #1
 800234c:	464a      	mov	r2, r9
 800234e:	4631      	mov	r1, r6
 8002350:	4628      	mov	r0, r5
 8002352:	47b8      	blx	r7
 8002354:	3001      	adds	r0, #1
 8002356:	f43f ae3c 	beq.w	8001fd2 <_printf_float+0xb6>
 800235a:	f108 0801 	add.w	r8, r8, #1
 800235e:	68e3      	ldr	r3, [r4, #12]
 8002360:	990f      	ldr	r1, [sp, #60]	@ 0x3c
 8002362:	1a5b      	subs	r3, r3, r1
 8002364:	4543      	cmp	r3, r8
 8002366:	dcf0      	bgt.n	800234a <_printf_float+0x42e>
 8002368:	e6fd      	b.n	8002166 <_printf_float+0x24a>
 800236a:	f04f 0800 	mov.w	r8, #0
 800236e:	f104 0919 	add.w	r9, r4, #25
 8002372:	e7f4      	b.n	800235e <_printf_float+0x442>

08002374 <_printf_common>:
 8002374:	e92d 47f0 	stmdb	sp!, {r4, r5, r6, r7, r8, r9, sl, lr}
 8002378:	4616      	mov	r6, r2
 800237a:	4698      	mov	r8, r3
 800237c:	688a      	ldr	r2, [r1, #8]
 800237e:	690b      	ldr	r3, [r1, #16]
 8002380:	4607      	mov	r7, r0
 8002382:	4293      	cmp	r3, r2
 8002384:	bfb8      	it	lt
 8002386:	4613      	movlt	r3, r2
 8002388:	6033      	str	r3, [r6, #0]
 800238a:	f891 2043 	ldrb.w	r2, [r1, #67]	@ 0x43
 800238e:	460c      	mov	r4, r1
 8002390:	f8dd 9020 	ldr.w	r9, [sp, #32]
 8002394:	b10a      	cbz	r2, 800239a <_printf_common+0x26>
 8002396:	3301      	adds	r3, #1
 8002398:	6033      	str	r3, [r6, #0]
 800239a:	6823      	ldr	r3, [r4, #0]
 800239c:	0699      	lsls	r1, r3, #26
 800239e:	bf42      	ittt	mi
 80023a0:	6833      	ldrmi	r3, [r6, #0]
 80023a2:	3302      	addmi	r3, #2
 80023a4:	6033      	strmi	r3, [r6, #0]
 80023a6:	6825      	ldr	r5, [r4, #0]
 80023a8:	f015 0506 	ands.w	r5, r5, #6
 80023ac:	d106      	bne.n	80023bc <_printf_common+0x48>
 80023ae:	f104 0a19 	add.w	sl, r4, #25
 80023b2:	68e3      	ldr	r3, [r4, #12]
 80023b4:	6832      	ldr	r2, [r6, #0]
 80023b6:	1a9b      	subs	r3, r3, r2
 80023b8:	42ab      	cmp	r3, r5
 80023ba:	dc2b      	bgt.n	8002414 <_printf_common+0xa0>
 80023bc:	f894 3043 	ldrb.w	r3, [r4, #67]	@ 0x43
 80023c0:	6822      	ldr	r2, [r4, #0]
 80023c2:	3b00      	subs	r3, #0
 80023c4:	bf18      	it	ne
 80023c6:	2301      	movne	r3, #1
 80023c8:	0692      	lsls	r2, r2, #26
 80023ca:	d430      	bmi.n	800242e <_printf_common+0xba>
 80023cc:	4641      	mov	r1, r8
 80023ce:	4638      	mov	r0, r7
 80023d0:	f104 0243 	add.w	r2, r4, #67	@ 0x43
 80023d4:	47c8      	blx	r9
 80023d6:	3001      	adds	r0, #1
 80023d8:	d023      	beq.n	8002422 <_printf_common+0xae>
 80023da:	6823      	ldr	r3, [r4, #0]
 80023dc:	6922      	ldr	r2, [r4, #16]
 80023de:	f003 0306 	and.w	r3, r3, #6
 80023e2:	2b04      	cmp	r3, #4
 80023e4:	bf14      	ite	ne
 80023e6:	2500      	movne	r5, #0
 80023e8:	6833      	ldreq	r3, [r6, #0]
 80023ea:	f04f 0600 	mov.w	r6, #0
 80023ee:	bf08      	it	eq
 80023f0:	68e5      	ldreq	r5, [r4, #12]
 80023f2:	f104 041a 	add.w	r4, r4, #26
 80023f6:	bf08      	it	eq
 80023f8:	1aed      	subeq	r5, r5, r3
 80023fa:	f854 3c12 	ldr.w	r3, [r4, #-18]
 80023fe:	bf08      	it	eq
 8002400:	ea25 75e5 	biceq.w	r5, r5, r5, asr #31
 8002404:	4293      	cmp	r3, r2
 8002406:	bfc4      	itt	gt
 8002408:	1a9b      	subgt	r3, r3, r2
 800240a:	18ed      	addgt	r5, r5, r3
 800240c:	42b5      	cmp	r5, r6
 800240e:	d11a      	bne.n	8002446 <_printf_common+0xd2>
 8002410:	2000      	movs	r0, #0
 8002412:	e008      	b.n	8002426 <_printf_common+0xb2>
 8002414:	2301      	movs	r3, #1
 8002416:	4652      	mov	r2, sl
 8002418:	4641      	mov	r1, r8
 800241a:	4638      	mov	r0, r7
 800241c:	47c8      	blx	r9
 800241e:	3001      	adds	r0, #1
 8002420:	d103      	bne.n	800242a <_printf_common+0xb6>
 8002422:	f04f 30ff 	mov.w	r0, #4294967295
 8002426:	e8bd 87f0 	ldmia.w	sp!, {r4, r5, r6, r7, r8, r9, sl, pc}
 800242a:	3501      	adds	r5, #1
 800242c:	e7c1      	b.n	80023b2 <_printf_common+0x3e>
 800242e:	2030      	movs	r0, #48	@ 0x30
 8002430:	18e1      	adds	r1, r4, r3
 8002432:	f881 0043 	strb.w	r0, [r1, #67]	@ 0x43
 8002436:	1c5a      	adds	r2, r3, #1
 8002438:	f894 1045 	ldrb.w	r1, [r4, #69]	@ 0x45
 800243c:	4422      	add	r2, r4
 800243e:	3302      	adds	r3, #2
 8002440:	f882 1043 	strb.w	r1, [r2, #67]	@ 0x43
 8002444:	e7c2      	b.n	80023cc <_printf_common+0x58>
 8002446:	2301      	movs	r3, #1
 8002448:	4622      	mov	r2, r4
 800244a:	4641      	mov	r1, r8
 800244c:	4638      	mov	r0, r7
 800244e:	47c8      	blx	r9
 8002450:	3001      	adds	r0, #1
 8002452:	d0e6      	beq.n	8002422 <_printf_common+0xae>
 8002454:	3601      	adds	r6, #1
 8002456:	e7d9      	b.n	800240c <_printf_common+0x98>

08002458 <_printf_i>:
 8002458:	e92d 47ff 	stmdb	sp!, {r0, r1, r2, r3, r4, r5, r6, r7, r8, r9, sl, lr}
 800245c:	7e0f      	ldrb	r7, [r1, #24]
 800245e:	4691      	mov	r9, r2
 8002460:	2f78      	cmp	r7, #120	@ 0x78
 8002462:	4680      	mov	r8, r0
 8002464:	460c      	mov	r4, r1
 8002466:	469a      	mov	sl, r3
 8002468:	9e0c      	ldr	r6, [sp, #48]	@ 0x30
 800246a:	f101 0243 	add.w	r2, r1, #67	@ 0x43
 800246e:	d807      	bhi.n	8002480 <_printf_i+0x28>
 8002470:	2f62      	cmp	r7, #98	@ 0x62
 8002472:	d80a      	bhi.n	800248a <_printf_i+0x32>
 8002474:	2f00      	cmp	r7, #0
 8002476:	f000 80d3 	beq.w	8002620 <_printf_i+0x1c8>
 800247a:	2f58      	cmp	r7, #88	@ 0x58
 800247c:	f000 80ba 	beq.w	80025f4 <_printf_i+0x19c>
 8002480:	f104 0642 	add.w	r6, r4, #66	@ 0x42
 8002484:	f884 7042 	strb.w	r7, [r4, #66]	@ 0x42
 8002488:	e03a      	b.n	8002500 <_printf_i+0xa8>
 800248a:	f1a7 0363 	sub.w	r3, r7, #99	@ 0x63
 800248e:	2b15      	cmp	r3, #21
 8002490:	d8f6      	bhi.n	8002480 <_printf_i+0x28>
 8002492:	a101      	add	r1, pc, #4	@ (adr r1, 8002498 <_printf_i+0x40>)
 8002494:	f851 f023 	ldr.w	pc, [r1, r3, lsl #2]
 8002498:	080024f1 	.word	0x080024f1
 800249c:	08002505 	.word	0x08002505
 80024a0:	08002481 	.word	0x08002481
 80024a4:	08002481 	.word	0x08002481
 80024a8:	08002481 	.word	0x08002481
 80024ac:	08002481 	.word	0x08002481
 80024b0:	08002505 	.word	0x08002505
 80024b4:	08002481 	.word	0x08002481
 80024b8:	08002481 	.word	0x08002481
 80024bc:	08002481 	.word	0x08002481
 80024c0:	08002481 	.word	0x08002481
 80024c4:	08002607 	.word	0x08002607
 80024c8:	0800252f 	.word	0x0800252f
 80024cc:	080025c1 	.word	0x080025c1
 80024d0:	08002481 	.word	0x08002481
 80024d4:	08002481 	.word	0x08002481
 80024d8:	08002629 	.word	0x08002629
 80024dc:	08002481 	.word	0x08002481
 80024e0:	0800252f 	.word	0x0800252f
 80024e4:	08002481 	.word	0x08002481
 80024e8:	08002481 	.word	0x08002481
 80024ec:	080025c9 	.word	0x080025c9
 80024f0:	6833      	ldr	r3, [r6, #0]
 80024f2:	1d1a      	adds	r2, r3, #4
 80024f4:	681b      	ldr	r3, [r3, #0]
 80024f6:	6032      	str	r2, [r6, #0]
 80024f8:	f104 0642 	add.w	r6, r4, #66	@ 0x42
 80024fc:	f884 3042 	strb.w	r3, [r4, #66]	@ 0x42
 8002500:	2301      	movs	r3, #1
 8002502:	e09e      	b.n	8002642 <_printf_i+0x1ea>
 8002504:	6833      	ldr	r3, [r6, #0]
 8002506:	6820      	ldr	r0, [r4, #0]
 8002508:	1d19      	adds	r1, r3, #4
 800250a:	6031      	str	r1, [r6, #0]
 800250c:	0606      	lsls	r6, r0, #24
 800250e:	d501      	bpl.n	8002514 <_printf_i+0xbc>
 8002510:	681d      	ldr	r5, [r3, #0]
 8002512:	e003      	b.n	800251c <_printf_i+0xc4>
 8002514:	0645      	lsls	r5, r0, #25
 8002516:	d5fb      	bpl.n	8002510 <_printf_i+0xb8>
 8002518:	f9b3 5000 	ldrsh.w	r5, [r3]
 800251c:	2d00      	cmp	r5, #0
 800251e:	da03      	bge.n	8002528 <_printf_i+0xd0>
 8002520:	232d      	movs	r3, #45	@ 0x2d
 8002522:	426d      	negs	r5, r5
 8002524:	f884 3043 	strb.w	r3, [r4, #67]	@ 0x43
 8002528:	230a      	movs	r3, #10
 800252a:	4859      	ldr	r0, [pc, #356]	@ (8002690 <_printf_i+0x238>)
 800252c:	e011      	b.n	8002552 <_printf_i+0xfa>
 800252e:	6821      	ldr	r1, [r4, #0]
 8002530:	6833      	ldr	r3, [r6, #0]
 8002532:	0608      	lsls	r0, r1, #24
 8002534:	f853 5b04 	ldr.w	r5, [r3], #4
 8002538:	d402      	bmi.n	8002540 <_printf_i+0xe8>
 800253a:	0649      	lsls	r1, r1, #25
 800253c:	bf48      	it	mi
 800253e:	b2ad      	uxthmi	r5, r5
 8002540:	2f6f      	cmp	r7, #111	@ 0x6f
 8002542:	6033      	str	r3, [r6, #0]
 8002544:	bf14      	ite	ne
 8002546:	230a      	movne	r3, #10
 8002548:	2308      	moveq	r3, #8
 800254a:	4851      	ldr	r0, [pc, #324]	@ (8002690 <_printf_i+0x238>)
 800254c:	2100      	movs	r1, #0
 800254e:	f884 1043 	strb.w	r1, [r4, #67]	@ 0x43
 8002552:	6866      	ldr	r6, [r4, #4]
 8002554:	2e00      	cmp	r6, #0
 8002556:	bfa8      	it	ge
 8002558:	6821      	ldrge	r1, [r4, #0]
 800255a:	60a6      	str	r6, [r4, #8]
 800255c:	bfa4      	itt	ge
 800255e:	f021 0104 	bicge.w	r1, r1, #4
 8002562:	6021      	strge	r1, [r4, #0]
 8002564:	b90d      	cbnz	r5, 800256a <_printf_i+0x112>
 8002566:	2e00      	cmp	r6, #0
 8002568:	d04b      	beq.n	8002602 <_printf_i+0x1aa>
 800256a:	4616      	mov	r6, r2
 800256c:	fbb5 f1f3 	udiv	r1, r5, r3
 8002570:	fb03 5711 	mls	r7, r3, r1, r5
 8002574:	5dc7      	ldrb	r7, [r0, r7]
 8002576:	f806 7d01 	strb.w	r7, [r6, #-1]!
 800257a:	462f      	mov	r7, r5
 800257c:	42bb      	cmp	r3, r7
 800257e:	460d      	mov	r5, r1
 8002580:	d9f4      	bls.n	800256c <_printf_i+0x114>
 8002582:	2b08      	cmp	r3, #8
 8002584:	d10b      	bne.n	800259e <_printf_i+0x146>
 8002586:	6823      	ldr	r3, [r4, #0]
 8002588:	07df      	lsls	r7, r3, #31
 800258a:	d508      	bpl.n	800259e <_printf_i+0x146>
 800258c:	6923      	ldr	r3, [r4, #16]
 800258e:	6861      	ldr	r1, [r4, #4]
 8002590:	4299      	cmp	r1, r3
 8002592:	bfde      	ittt	le
 8002594:	2330      	movle	r3, #48	@ 0x30
 8002596:	f806 3c01 	strble.w	r3, [r6, #-1]
 800259a:	f106 36ff 	addle.w	r6, r6, #4294967295
 800259e:	1b92      	subs	r2, r2, r6
 80025a0:	6122      	str	r2, [r4, #16]
 80025a2:	464b      	mov	r3, r9
 80025a4:	4621      	mov	r1, r4
 80025a6:	4640      	mov	r0, r8
 80025a8:	f8cd a000 	str.w	sl, [sp]
 80025ac:	aa03      	add	r2, sp, #12
 80025ae:	f7ff fee1 	bl	8002374 <_printf_common>
 80025b2:	3001      	adds	r0, #1
 80025b4:	d14a      	bne.n	800264c <_printf_i+0x1f4>
 80025b6:	f04f 30ff 	mov.w	r0, #4294967295
 80025ba:	b004      	add	sp, #16
 80025bc:	e8bd 87f0 	ldmia.w	sp!, {r4, r5, r6, r7, r8, r9, sl, pc}
 80025c0:	6823      	ldr	r3, [r4, #0]
 80025c2:	f043 0320 	orr.w	r3, r3, #32
 80025c6:	6023      	str	r3, [r4, #0]
 80025c8:	2778      	movs	r7, #120	@ 0x78
 80025ca:	4832      	ldr	r0, [pc, #200]	@ (8002694 <_printf_i+0x23c>)
 80025cc:	f884 7045 	strb.w	r7, [r4, #69]	@ 0x45
 80025d0:	6823      	ldr	r3, [r4, #0]
 80025d2:	6831      	ldr	r1, [r6, #0]
 80025d4:	061f      	lsls	r7, r3, #24
 80025d6:	f851 5b04 	ldr.w	r5, [r1], #4
 80025da:	d402      	bmi.n	80025e2 <_printf_i+0x18a>
 80025dc:	065f      	lsls	r7, r3, #25
 80025de:	bf48      	it	mi
 80025e0:	b2ad      	uxthmi	r5, r5
 80025e2:	6031      	str	r1, [r6, #0]
 80025e4:	07d9      	lsls	r1, r3, #31
 80025e6:	bf44      	itt	mi
 80025e8:	f043 0320 	orrmi.w	r3, r3, #32
 80025ec:	6023      	strmi	r3, [r4, #0]
 80025ee:	b11d      	cbz	r5, 80025f8 <_printf_i+0x1a0>
 80025f0:	2310      	movs	r3, #16
 80025f2:	e7ab      	b.n	800254c <_printf_i+0xf4>
 80025f4:	4826      	ldr	r0, [pc, #152]	@ (8002690 <_printf_i+0x238>)
 80025f6:	e7e9      	b.n	80025cc <_printf_i+0x174>
 80025f8:	6823      	ldr	r3, [r4, #0]
 80025fa:	f023 0320 	bic.w	r3, r3, #32
 80025fe:	6023      	str	r3, [r4, #0]
 8002600:	e7f6      	b.n	80025f0 <_printf_i+0x198>
 8002602:	4616      	mov	r6, r2
 8002604:	e7bd      	b.n	8002582 <_printf_i+0x12a>
 8002606:	6833      	ldr	r3, [r6, #0]
 8002608:	6825      	ldr	r5, [r4, #0]
 800260a:	1d18      	adds	r0, r3, #4
 800260c:	6961      	ldr	r1, [r4, #20]
 800260e:	6030      	str	r0, [r6, #0]
 8002610:	062e      	lsls	r6, r5, #24
 8002612:	681b      	ldr	r3, [r3, #0]
 8002614:	d501      	bpl.n	800261a <_printf_i+0x1c2>
 8002616:	6019      	str	r1, [r3, #0]
 8002618:	e002      	b.n	8002620 <_printf_i+0x1c8>
 800261a:	0668      	lsls	r0, r5, #25
 800261c:	d5fb      	bpl.n	8002616 <_printf_i+0x1be>
 800261e:	8019      	strh	r1, [r3, #0]
 8002620:	2300      	movs	r3, #0
 8002622:	4616      	mov	r6, r2
 8002624:	6123      	str	r3, [r4, #16]
 8002626:	e7bc      	b.n	80025a2 <_printf_i+0x14a>
 8002628:	6833      	ldr	r3, [r6, #0]
 800262a:	2100      	movs	r1, #0
 800262c:	1d1a      	adds	r2, r3, #4
 800262e:	6032      	str	r2, [r6, #0]
 8002630:	681e      	ldr	r6, [r3, #0]
 8002632:	6862      	ldr	r2, [r4, #4]
 8002634:	4630      	mov	r0, r6
 8002636:	f000 f9c6 	bl	80029c6 <memchr>
 800263a:	b108      	cbz	r0, 8002640 <_printf_i+0x1e8>
 800263c:	1b80      	subs	r0, r0, r6
 800263e:	6060      	str	r0, [r4, #4]
 8002640:	6863      	ldr	r3, [r4, #4]
 8002642:	6123      	str	r3, [r4, #16]
 8002644:	2300      	movs	r3, #0
 8002646:	f884 3043 	strb.w	r3, [r4, #67]	@ 0x43
 800264a:	e7aa      	b.n	80025a2 <_printf_i+0x14a>
 800264c:	4632      	mov	r2, r6
 800264e:	4649      	mov	r1, r9
 8002650:	4640      	mov	r0, r8
 8002652:	6923      	ldr	r3, [r4, #16]
 8002654:	47d0      	blx	sl
 8002656:	3001      	adds	r0, #1
 8002658:	d0ad      	beq.n	80025b6 <_printf_i+0x15e>
 800265a:	6823      	ldr	r3, [r4, #0]
 800265c:	079b      	lsls	r3, r3, #30
 800265e:	d413      	bmi.n	8002688 <_printf_i+0x230>
 8002660:	68e0      	ldr	r0, [r4, #12]
 8002662:	9b03      	ldr	r3, [sp, #12]
 8002664:	4298      	cmp	r0, r3
 8002666:	bfb8      	it	lt
 8002668:	4618      	movlt	r0, r3
 800266a:	e7a6      	b.n	80025ba <_printf_i+0x162>
 800266c:	2301      	movs	r3, #1
 800266e:	4632      	mov	r2, r6
 8002670:	4649      	mov	r1, r9
 8002672:	4640      	mov	r0, r8
 8002674:	47d0      	blx	sl
 8002676:	3001      	adds	r0, #1
 8002678:	d09d      	beq.n	80025b6 <_printf_i+0x15e>
 800267a:	3501      	adds	r5, #1
 800267c:	68e3      	ldr	r3, [r4, #12]
 800267e:	9903      	ldr	r1, [sp, #12]
 8002680:	1a5b      	subs	r3, r3, r1
 8002682:	42ab      	cmp	r3, r5
 8002684:	dcf2      	bgt.n	800266c <_printf_i+0x214>
 8002686:	e7eb      	b.n	8002660 <_printf_i+0x208>
 8002688:	2500      	movs	r5, #0
 800268a:	f104 0619 	add.w	r6, r4, #25
 800268e:	e7f5      	b.n	800267c <_printf_i+0x224>
 8002690:	08004794 	.word	0x08004794
 8002694:	080047a5 	.word	0x080047a5

08002698 <std>:
 8002698:	2300      	movs	r3, #0
 800269a:	b510      	push	{r4, lr}
 800269c:	4604      	mov	r4, r0
 800269e:	e9c0 3300 	strd	r3, r3, [r0]
 80026a2:	e9c0 3304 	strd	r3, r3, [r0, #16]
 80026a6:	6083      	str	r3, [r0, #8]
 80026a8:	8181      	strh	r1, [r0, #12]
 80026aa:	6643      	str	r3, [r0, #100]	@ 0x64
 80026ac:	81c2      	strh	r2, [r0, #14]
 80026ae:	6183      	str	r3, [r0, #24]
 80026b0:	4619      	mov	r1, r3
 80026b2:	2208      	movs	r2, #8
 80026b4:	305c      	adds	r0, #92	@ 0x5c
 80026b6:	f000 f906 	bl	80028c6 <memset>
 80026ba:	4b0d      	ldr	r3, [pc, #52]	@ (80026f0 <std+0x58>)
 80026bc:	6224      	str	r4, [r4, #32]
 80026be:	6263      	str	r3, [r4, #36]	@ 0x24
 80026c0:	4b0c      	ldr	r3, [pc, #48]	@ (80026f4 <std+0x5c>)
 80026c2:	62a3      	str	r3, [r4, #40]	@ 0x28
 80026c4:	4b0c      	ldr	r3, [pc, #48]	@ (80026f8 <std+0x60>)
 80026c6:	62e3      	str	r3, [r4, #44]	@ 0x2c
 80026c8:	4b0c      	ldr	r3, [pc, #48]	@ (80026fc <std+0x64>)
 80026ca:	6323      	str	r3, [r4, #48]	@ 0x30
 80026cc:	4b0c      	ldr	r3, [pc, #48]	@ (8002700 <std+0x68>)
 80026ce:	429c      	cmp	r4, r3
 80026d0:	d006      	beq.n	80026e0 <std+0x48>
 80026d2:	f103 0268 	add.w	r2, r3, #104	@ 0x68
 80026d6:	4294      	cmp	r4, r2
 80026d8:	d002      	beq.n	80026e0 <std+0x48>
 80026da:	33d0      	adds	r3, #208	@ 0xd0
 80026dc:	429c      	cmp	r4, r3
 80026de:	d105      	bne.n	80026ec <std+0x54>
 80026e0:	f104 0058 	add.w	r0, r4, #88	@ 0x58
 80026e4:	e8bd 4010 	ldmia.w	sp!, {r4, lr}
 80026e8:	f000 b96a 	b.w	80029c0 <__retarget_lock_init_recursive>
 80026ec:	bd10      	pop	{r4, pc}
 80026ee:	bf00      	nop
 80026f0:	08002841 	.word	0x08002841
 80026f4:	08002863 	.word	0x08002863
 80026f8:	0800289b 	.word	0x0800289b
 80026fc:	080028bf 	.word	0x080028bf
 8002700:	2000041c 	.word	0x2000041c

08002704 <stdio_exit_handler>:
 8002704:	4a02      	ldr	r2, [pc, #8]	@ (8002710 <stdio_exit_handler+0xc>)
 8002706:	4903      	ldr	r1, [pc, #12]	@ (8002714 <stdio_exit_handler+0x10>)
 8002708:	4803      	ldr	r0, [pc, #12]	@ (8002718 <stdio_exit_handler+0x14>)
 800270a:	f000 b869 	b.w	80027e0 <_fwalk_sglue>
 800270e:	bf00      	nop
 8002710:	20000004 	.word	0x20000004
 8002714:	08004305 	.word	0x08004305
 8002718:	20000014 	.word	0x20000014

0800271c <cleanup_stdio>:
 800271c:	6841      	ldr	r1, [r0, #4]
 800271e:	4b0c      	ldr	r3, [pc, #48]	@ (8002750 <cleanup_stdio+0x34>)
 8002720:	b510      	push	{r4, lr}
 8002722:	4299      	cmp	r1, r3
 8002724:	4604      	mov	r4, r0
 8002726:	d001      	beq.n	800272c <cleanup_stdio+0x10>
 8002728:	f001 fdec 	bl	8004304 <_fflush_r>
 800272c:	68a1      	ldr	r1, [r4, #8]
 800272e:	4b09      	ldr	r3, [pc, #36]	@ (8002754 <cleanup_stdio+0x38>)
 8002730:	4299      	cmp	r1, r3
 8002732:	d002      	beq.n	800273a <cleanup_stdio+0x1e>
 8002734:	4620      	mov	r0, r4
 8002736:	f001 fde5 	bl	8004304 <_fflush_r>
 800273a:	68e1      	ldr	r1, [r4, #12]
 800273c:	4b06      	ldr	r3, [pc, #24]	@ (8002758 <cleanup_stdio+0x3c>)
 800273e:	4299      	cmp	r1, r3
 8002740:	d004      	beq.n	800274c <cleanup_stdio+0x30>
 8002742:	4620      	mov	r0, r4
 8002744:	e8bd 4010 	ldmia.w	sp!, {r4, lr}
 8002748:	f001 bddc 	b.w	8004304 <_fflush_r>
 800274c:	bd10      	pop	{r4, pc}
 800274e:	bf00      	nop
 8002750:	2000041c 	.word	0x2000041c
 8002754:	20000484 	.word	0x20000484
 8002758:	200004ec 	.word	0x200004ec

0800275c <global_stdio_init.part.0>:
 800275c:	b510      	push	{r4, lr}
 800275e:	4b0b      	ldr	r3, [pc, #44]	@ (800278c <global_stdio_init.part.0+0x30>)
 8002760:	4c0b      	ldr	r4, [pc, #44]	@ (8002790 <global_stdio_init.part.0+0x34>)
 8002762:	4a0c      	ldr	r2, [pc, #48]	@ (8002794 <global_stdio_init.part.0+0x38>)
 8002764:	4620      	mov	r0, r4
 8002766:	601a      	str	r2, [r3, #0]
 8002768:	2104      	movs	r1, #4
 800276a:	2200      	movs	r2, #0
 800276c:	f7ff ff94 	bl	8002698 <std>
 8002770:	f104 0068 	add.w	r0, r4, #104	@ 0x68
 8002774:	2201      	movs	r2, #1
 8002776:	2109      	movs	r1, #9
 8002778:	f7ff ff8e 	bl	8002698 <std>
 800277c:	f104 00d0 	add.w	r0, r4, #208	@ 0xd0
 8002780:	2202      	movs	r2, #2
 8002782:	e8bd 4010 	ldmia.w	sp!, {r4, lr}
 8002786:	2112      	movs	r1, #18
 8002788:	f7ff bf86 	b.w	8002698 <std>
 800278c:	20000554 	.word	0x20000554
 8002790:	2000041c 	.word	0x2000041c
 8002794:	08002705 	.word	0x08002705

08002798 <__sfp_lock_acquire>:
 8002798:	4801      	ldr	r0, [pc, #4]	@ (80027a0 <__sfp_lock_acquire+0x8>)
 800279a:	f000 b912 	b.w	80029c2 <__retarget_lock_acquire_recursive>
 800279e:	bf00      	nop
 80027a0:	2000055d 	.word	0x2000055d

080027a4 <__sfp_lock_release>:
 80027a4:	4801      	ldr	r0, [pc, #4]	@ (80027ac <__sfp_lock_release+0x8>)
 80027a6:	f000 b90d 	b.w	80029c4 <__retarget_lock_release_recursive>
 80027aa:	bf00      	nop
 80027ac:	2000055d 	.word	0x2000055d

080027b0 <__sinit>:
 80027b0:	b510      	push	{r4, lr}
 80027b2:	4604      	mov	r4, r0
 80027b4:	f7ff fff0 	bl	8002798 <__sfp_lock_acquire>
 80027b8:	6a23      	ldr	r3, [r4, #32]
 80027ba:	b11b      	cbz	r3, 80027c4 <__sinit+0x14>
 80027bc:	e8bd 4010 	ldmia.w	sp!, {r4, lr}
 80027c0:	f7ff bff0 	b.w	80027a4 <__sfp_lock_release>
 80027c4:	4b04      	ldr	r3, [pc, #16]	@ (80027d8 <__sinit+0x28>)
 80027c6:	6223      	str	r3, [r4, #32]
 80027c8:	4b04      	ldr	r3, [pc, #16]	@ (80027dc <__sinit+0x2c>)
 80027ca:	681b      	ldr	r3, [r3, #0]
 80027cc:	2b00      	cmp	r3, #0
 80027ce:	d1f5      	bne.n	80027bc <__sinit+0xc>
 80027d0:	f7ff ffc4 	bl	800275c <global_stdio_init.part.0>
 80027d4:	e7f2      	b.n	80027bc <__sinit+0xc>
 80027d6:	bf00      	nop
 80027d8:	0800271d 	.word	0x0800271d
 80027dc:	20000554 	.word	0x20000554

080027e0 <_fwalk_sglue>:
 80027e0:	e92d 43f8 	stmdb	sp!, {r3, r4, r5, r6, r7, r8, r9, lr}
 80027e4:	4607      	mov	r7, r0
 80027e6:	4688      	mov	r8, r1
 80027e8:	4614      	mov	r4, r2
 80027ea:	2600      	movs	r6, #0
 80027ec:	e9d4 9501 	ldrd	r9, r5, [r4, #4]
 80027f0:	f1b9 0901 	subs.w	r9, r9, #1
 80027f4:	d505      	bpl.n	8002802 <_fwalk_sglue+0x22>
 80027f6:	6824      	ldr	r4, [r4, #0]
 80027f8:	2c00      	cmp	r4, #0
 80027fa:	d1f7      	bne.n	80027ec <_fwalk_sglue+0xc>
 80027fc:	4630      	mov	r0, r6
 80027fe:	e8bd 83f8 	ldmia.w	sp!, {r3, r4, r5, r6, r7, r8, r9, pc}
 8002802:	89ab      	ldrh	r3, [r5, #12]
 8002804:	2b01      	cmp	r3, #1
 8002806:	d907      	bls.n	8002818 <_fwalk_sglue+0x38>
 8002808:	f9b5 300e 	ldrsh.w	r3, [r5, #14]
 800280c:	3301      	adds	r3, #1
 800280e:	d003      	beq.n	8002818 <_fwalk_sglue+0x38>
 8002810:	4629      	mov	r1, r5
 8002812:	4638      	mov	r0, r7
 8002814:	47c0      	blx	r8
 8002816:	4306      	orrs	r6, r0
 8002818:	3568      	adds	r5, #104	@ 0x68
 800281a:	e7e9      	b.n	80027f0 <_fwalk_sglue+0x10>

0800281c <iprintf>:
 800281c:	b40f      	push	{r0, r1, r2, r3}
 800281e:	b507      	push	{r0, r1, r2, lr}
 8002820:	4906      	ldr	r1, [pc, #24]	@ (800283c <iprintf+0x20>)
 8002822:	ab04      	add	r3, sp, #16
 8002824:	6808      	ldr	r0, [r1, #0]
 8002826:	f853 2b04 	ldr.w	r2, [r3], #4
 800282a:	6881      	ldr	r1, [r0, #8]
 800282c:	9301      	str	r3, [sp, #4]
 800282e:	f001 fbd1 	bl	8003fd4 <_vfiprintf_r>
 8002832:	b003      	add	sp, #12
 8002834:	f85d eb04 	ldr.w	lr, [sp], #4
 8002838:	b004      	add	sp, #16
 800283a:	4770      	bx	lr
 800283c:	20000010 	.word	0x20000010

08002840 <__sread>:
 8002840:	b510      	push	{r4, lr}
 8002842:	460c      	mov	r4, r1
 8002844:	f9b1 100e 	ldrsh.w	r1, [r1, #14]
 8002848:	f000 f86c 	bl	8002924 <_read_r>
 800284c:	2800      	cmp	r0, #0
 800284e:	bfab      	itete	ge
 8002850:	6d63      	ldrge	r3, [r4, #84]	@ 0x54
 8002852:	89a3      	ldrhlt	r3, [r4, #12]
 8002854:	181b      	addge	r3, r3, r0
 8002856:	f423 5380 	biclt.w	r3, r3, #4096	@ 0x1000
 800285a:	bfac      	ite	ge
 800285c:	6563      	strge	r3, [r4, #84]	@ 0x54
 800285e:	81a3      	strhlt	r3, [r4, #12]
 8002860:	bd10      	pop	{r4, pc}

08002862 <__swrite>:
 8002862:	e92d 41f0 	stmdb	sp!, {r4, r5, r6, r7, r8, lr}
 8002866:	461f      	mov	r7, r3
 8002868:	898b      	ldrh	r3, [r1, #12]
 800286a:	4605      	mov	r5, r0
 800286c:	05db      	lsls	r3, r3, #23
 800286e:	460c      	mov	r4, r1
 8002870:	4616      	mov	r6, r2
 8002872:	d505      	bpl.n	8002880 <__swrite+0x1e>
 8002874:	2302      	movs	r3, #2
 8002876:	2200      	movs	r2, #0
 8002878:	f9b1 100e 	ldrsh.w	r1, [r1, #14]
 800287c:	f000 f840 	bl	8002900 <_lseek_r>
 8002880:	89a3      	ldrh	r3, [r4, #12]
 8002882:	4632      	mov	r2, r6
 8002884:	f423 5380 	bic.w	r3, r3, #4096	@ 0x1000
 8002888:	81a3      	strh	r3, [r4, #12]
 800288a:	4628      	mov	r0, r5
 800288c:	463b      	mov	r3, r7
 800288e:	f9b4 100e 	ldrsh.w	r1, [r4, #14]
 8002892:	e8bd 41f0 	ldmia.w	sp!, {r4, r5, r6, r7, r8, lr}
 8002896:	f000 b857 	b.w	8002948 <_write_r>

0800289a <__sseek>:
 800289a:	b510      	push	{r4, lr}
 800289c:	460c      	mov	r4, r1
 800289e:	f9b1 100e 	ldrsh.w	r1, [r1, #14]
 80028a2:	f000 f82d 	bl	8002900 <_lseek_r>
 80028a6:	1c43      	adds	r3, r0, #1
 80028a8:	89a3      	ldrh	r3, [r4, #12]
 80028aa:	bf15      	itete	ne
 80028ac:	6560      	strne	r0, [r4, #84]	@ 0x54
 80028ae:	f423 5380 	biceq.w	r3, r3, #4096	@ 0x1000
 80028b2:	f443 5380 	orrne.w	r3, r3, #4096	@ 0x1000
 80028b6:	81a3      	strheq	r3, [r4, #12]
 80028b8:	bf18      	it	ne
 80028ba:	81a3      	strhne	r3, [r4, #12]
 80028bc:	bd10      	pop	{r4, pc}

080028be <__sclose>:
 80028be:	f9b1 100e 	ldrsh.w	r1, [r1, #14]
 80028c2:	f000 b80d 	b.w	80028e0 <_close_r>

080028c6 <memset>:
 80028c6:	4603      	mov	r3, r0
 80028c8:	4402      	add	r2, r0
 80028ca:	4293      	cmp	r3, r2
 80028cc:	d100      	bne.n	80028d0 <memset+0xa>
 80028ce:	4770      	bx	lr
 80028d0:	f803 1b01 	strb.w	r1, [r3], #1
 80028d4:	e7f9      	b.n	80028ca <memset+0x4>
	...

080028d8 <_localeconv_r>:
 80028d8:	4800      	ldr	r0, [pc, #0]	@ (80028dc <_localeconv_r+0x4>)
 80028da:	4770      	bx	lr
 80028dc:	20000150 	.word	0x20000150

080028e0 <_close_r>:
 80028e0:	b538      	push	{r3, r4, r5, lr}
 80028e2:	2300      	movs	r3, #0
 80028e4:	4d05      	ldr	r5, [pc, #20]	@ (80028fc <_close_r+0x1c>)
 80028e6:	4604      	mov	r4, r0
 80028e8:	4608      	mov	r0, r1
 80028ea:	602b      	str	r3, [r5, #0]
 80028ec:	f7ff f9e7 	bl	8001cbe <_close>
 80028f0:	1c43      	adds	r3, r0, #1
 80028f2:	d102      	bne.n	80028fa <_close_r+0x1a>
 80028f4:	682b      	ldr	r3, [r5, #0]
 80028f6:	b103      	cbz	r3, 80028fa <_close_r+0x1a>
 80028f8:	6023      	str	r3, [r4, #0]
 80028fa:	bd38      	pop	{r3, r4, r5, pc}
 80028fc:	20000558 	.word	0x20000558

08002900 <_lseek_r>:
 8002900:	b538      	push	{r3, r4, r5, lr}
 8002902:	4604      	mov	r4, r0
 8002904:	4608      	mov	r0, r1
 8002906:	4611      	mov	r1, r2
 8002908:	2200      	movs	r2, #0
 800290a:	4d05      	ldr	r5, [pc, #20]	@ (8002920 <_lseek_r+0x20>)
 800290c:	602a      	str	r2, [r5, #0]
 800290e:	461a      	mov	r2, r3
 8002910:	f7ff f9f9 	bl	8001d06 <_lseek>
 8002914:	1c43      	adds	r3, r0, #1
 8002916:	d102      	bne.n	800291e <_lseek_r+0x1e>
 8002918:	682b      	ldr	r3, [r5, #0]
 800291a:	b103      	cbz	r3, 800291e <_lseek_r+0x1e>
 800291c:	6023      	str	r3, [r4, #0]
 800291e:	bd38      	pop	{r3, r4, r5, pc}
 8002920:	20000558 	.word	0x20000558

08002924 <_read_r>:
 8002924:	b538      	push	{r3, r4, r5, lr}
 8002926:	4604      	mov	r4, r0
 8002928:	4608      	mov	r0, r1
 800292a:	4611      	mov	r1, r2
 800292c:	2200      	movs	r2, #0
 800292e:	4d05      	ldr	r5, [pc, #20]	@ (8002944 <_read_r+0x20>)
 8002930:	602a      	str	r2, [r5, #0]
 8002932:	461a      	mov	r2, r3
 8002934:	f7ff f98a 	bl	8001c4c <_read>
 8002938:	1c43      	adds	r3, r0, #1
 800293a:	d102      	bne.n	8002942 <_read_r+0x1e>
 800293c:	682b      	ldr	r3, [r5, #0]
 800293e:	b103      	cbz	r3, 8002942 <_read_r+0x1e>
 8002940:	6023      	str	r3, [r4, #0]
 8002942:	bd38      	pop	{r3, r4, r5, pc}
 8002944:	20000558 	.word	0x20000558

08002948 <_write_r>:
 8002948:	b538      	push	{r3, r4, r5, lr}
 800294a:	4604      	mov	r4, r0
 800294c:	4608      	mov	r0, r1
 800294e:	4611      	mov	r1, r2
 8002950:	2200      	movs	r2, #0
 8002952:	4d05      	ldr	r5, [pc, #20]	@ (8002968 <_write_r+0x20>)
 8002954:	602a      	str	r2, [r5, #0]
 8002956:	461a      	mov	r2, r3
 8002958:	f7ff f995 	bl	8001c86 <_write>
 800295c:	1c43      	adds	r3, r0, #1
 800295e:	d102      	bne.n	8002966 <_write_r+0x1e>
 8002960:	682b      	ldr	r3, [r5, #0]
 8002962:	b103      	cbz	r3, 8002966 <_write_r+0x1e>
 8002964:	6023      	str	r3, [r4, #0]
 8002966:	bd38      	pop	{r3, r4, r5, pc}
 8002968:	20000558 	.word	0x20000558

0800296c <__errno>:
 800296c:	4b01      	ldr	r3, [pc, #4]	@ (8002974 <__errno+0x8>)
 800296e:	6818      	ldr	r0, [r3, #0]
 8002970:	4770      	bx	lr
 8002972:	bf00      	nop
 8002974:	20000010 	.word	0x20000010

08002978 <__libc_init_array>:
 8002978:	b570      	push	{r4, r5, r6, lr}
 800297a:	2600      	movs	r6, #0
 800297c:	4d0c      	ldr	r5, [pc, #48]	@ (80029b0 <__libc_init_array+0x38>)
 800297e:	4c0d      	ldr	r4, [pc, #52]	@ (80029b4 <__libc_init_array+0x3c>)
 8002980:	1b64      	subs	r4, r4, r5
 8002982:	10a4      	asrs	r4, r4, #2
 8002984:	42a6      	cmp	r6, r4
 8002986:	d109      	bne.n	800299c <__libc_init_array+0x24>
 8002988:	f001 feca 	bl	8004720 <_init>
 800298c:	2600      	movs	r6, #0
 800298e:	4d0a      	ldr	r5, [pc, #40]	@ (80029b8 <__libc_init_array+0x40>)
 8002990:	4c0a      	ldr	r4, [pc, #40]	@ (80029bc <__libc_init_array+0x44>)
 8002992:	1b64      	subs	r4, r4, r5
 8002994:	10a4      	asrs	r4, r4, #2
 8002996:	42a6      	cmp	r6, r4
 8002998:	d105      	bne.n	80029a6 <__libc_init_array+0x2e>
 800299a:	bd70      	pop	{r4, r5, r6, pc}
 800299c:	f855 3b04 	ldr.w	r3, [r5], #4
 80029a0:	4798      	blx	r3
 80029a2:	3601      	adds	r6, #1
 80029a4:	e7ee      	b.n	8002984 <__libc_init_array+0xc>
 80029a6:	f855 3b04 	ldr.w	r3, [r5], #4
 80029aa:	4798      	blx	r3
 80029ac:	3601      	adds	r6, #1
 80029ae:	e7f2      	b.n	8002996 <__libc_init_array+0x1e>
 80029b0:	08004af8 	.word	0x08004af8
 80029b4:	08004af8 	.word	0x08004af8
 80029b8:	08004af8 	.word	0x08004af8
 80029bc:	08004afc 	.word	0x08004afc

080029c0 <__retarget_lock_init_recursive>:
 80029c0:	4770      	bx	lr

080029c2 <__retarget_lock_acquire_recursive>:
 80029c2:	4770      	bx	lr

080029c4 <__retarget_lock_release_recursive>:
 80029c4:	4770      	bx	lr

080029c6 <memchr>:
 80029c6:	4603      	mov	r3, r0
 80029c8:	b510      	push	{r4, lr}
 80029ca:	b2c9      	uxtb	r1, r1
 80029cc:	4402      	add	r2, r0
 80029ce:	4293      	cmp	r3, r2
 80029d0:	4618      	mov	r0, r3
 80029d2:	d101      	bne.n	80029d8 <memchr+0x12>
 80029d4:	2000      	movs	r0, #0
 80029d6:	e003      	b.n	80029e0 <memchr+0x1a>
 80029d8:	7804      	ldrb	r4, [r0, #0]
 80029da:	3301      	adds	r3, #1
 80029dc:	428c      	cmp	r4, r1
 80029de:	d1f6      	bne.n	80029ce <memchr+0x8>
 80029e0:	bd10      	pop	{r4, pc}

080029e2 <quorem>:
 80029e2:	e92d 4ff7 	stmdb	sp!, {r0, r1, r2, r4, r5, r6, r7, r8, r9, sl, fp, lr}
 80029e6:	6903      	ldr	r3, [r0, #16]
 80029e8:	690c      	ldr	r4, [r1, #16]
 80029ea:	4607      	mov	r7, r0
 80029ec:	42a3      	cmp	r3, r4
 80029ee:	db7e      	blt.n	8002aee <quorem+0x10c>
 80029f0:	3c01      	subs	r4, #1
 80029f2:	00a3      	lsls	r3, r4, #2
 80029f4:	f100 0514 	add.w	r5, r0, #20
 80029f8:	f101 0814 	add.w	r8, r1, #20
 80029fc:	9300      	str	r3, [sp, #0]
 80029fe:	eb05 0384 	add.w	r3, r5, r4, lsl #2
 8002a02:	9301      	str	r3, [sp, #4]
 8002a04:	f858 3024 	ldr.w	r3, [r8, r4, lsl #2]
 8002a08:	f855 2024 	ldr.w	r2, [r5, r4, lsl #2]
 8002a0c:	3301      	adds	r3, #1
 8002a0e:	429a      	cmp	r2, r3
 8002a10:	fbb2 f6f3 	udiv	r6, r2, r3
 8002a14:	eb08 0984 	add.w	r9, r8, r4, lsl #2
 8002a18:	d32e      	bcc.n	8002a78 <quorem+0x96>
 8002a1a:	f04f 0a00 	mov.w	sl, #0
 8002a1e:	46c4      	mov	ip, r8
 8002a20:	46ae      	mov	lr, r5
 8002a22:	46d3      	mov	fp, sl
 8002a24:	f85c 3b04 	ldr.w	r3, [ip], #4
 8002a28:	b298      	uxth	r0, r3
 8002a2a:	fb06 a000 	mla	r0, r6, r0, sl
 8002a2e:	0c1b      	lsrs	r3, r3, #16
 8002a30:	0c02      	lsrs	r2, r0, #16
 8002a32:	fb06 2303 	mla	r3, r6, r3, r2
 8002a36:	f8de 2000 	ldr.w	r2, [lr]
 8002a3a:	b280      	uxth	r0, r0
 8002a3c:	b292      	uxth	r2, r2
 8002a3e:	1a12      	subs	r2, r2, r0
 8002a40:	445a      	add	r2, fp
 8002a42:	f8de 0000 	ldr.w	r0, [lr]
 8002a46:	ea4f 4a13 	mov.w	sl, r3, lsr #16
 8002a4a:	b29b      	uxth	r3, r3
 8002a4c:	ebc3 4322 	rsb	r3, r3, r2, asr #16
 8002a50:	eb03 4310 	add.w	r3, r3, r0, lsr #16
 8002a54:	b292      	uxth	r2, r2
 8002a56:	ea42 4203 	orr.w	r2, r2, r3, lsl #16
 8002a5a:	45e1      	cmp	r9, ip
 8002a5c:	ea4f 4b23 	mov.w	fp, r3, asr #16
 8002a60:	f84e 2b04 	str.w	r2, [lr], #4
 8002a64:	d2de      	bcs.n	8002a24 <quorem+0x42>
 8002a66:	9b00      	ldr	r3, [sp, #0]
 8002a68:	58eb      	ldr	r3, [r5, r3]
 8002a6a:	b92b      	cbnz	r3, 8002a78 <quorem+0x96>
 8002a6c:	9b01      	ldr	r3, [sp, #4]
 8002a6e:	3b04      	subs	r3, #4
 8002a70:	429d      	cmp	r5, r3
 8002a72:	461a      	mov	r2, r3
 8002a74:	d32f      	bcc.n	8002ad6 <quorem+0xf4>
 8002a76:	613c      	str	r4, [r7, #16]
 8002a78:	4638      	mov	r0, r7
 8002a7a:	f001 f97b 	bl	8003d74 <__mcmp>
 8002a7e:	2800      	cmp	r0, #0
 8002a80:	db25      	blt.n	8002ace <quorem+0xec>
 8002a82:	4629      	mov	r1, r5
 8002a84:	2000      	movs	r0, #0
 8002a86:	f858 2b04 	ldr.w	r2, [r8], #4
 8002a8a:	f8d1 c000 	ldr.w	ip, [r1]
 8002a8e:	fa1f fe82 	uxth.w	lr, r2
 8002a92:	fa1f f38c 	uxth.w	r3, ip
 8002a96:	eba3 030e 	sub.w	r3, r3, lr
 8002a9a:	4403      	add	r3, r0
 8002a9c:	0c12      	lsrs	r2, r2, #16
 8002a9e:	ebc2 4223 	rsb	r2, r2, r3, asr #16
 8002aa2:	eb02 421c 	add.w	r2, r2, ip, lsr #16
 8002aa6:	b29b      	uxth	r3, r3
 8002aa8:	ea43 4302 	orr.w	r3, r3, r2, lsl #16
 8002aac:	45c1      	cmp	r9, r8
 8002aae:	ea4f 4022 	mov.w	r0, r2, asr #16
 8002ab2:	f841 3b04 	str.w	r3, [r1], #4
 8002ab6:	d2e6      	bcs.n	8002a86 <quorem+0xa4>
 8002ab8:	f855 2024 	ldr.w	r2, [r5, r4, lsl #2]
 8002abc:	eb05 0384 	add.w	r3, r5, r4, lsl #2
 8002ac0:	b922      	cbnz	r2, 8002acc <quorem+0xea>
 8002ac2:	3b04      	subs	r3, #4
 8002ac4:	429d      	cmp	r5, r3
 8002ac6:	461a      	mov	r2, r3
 8002ac8:	d30b      	bcc.n	8002ae2 <quorem+0x100>
 8002aca:	613c      	str	r4, [r7, #16]
 8002acc:	3601      	adds	r6, #1
 8002ace:	4630      	mov	r0, r6
 8002ad0:	b003      	add	sp, #12
 8002ad2:	e8bd 8ff0 	ldmia.w	sp!, {r4, r5, r6, r7, r8, r9, sl, fp, pc}
 8002ad6:	6812      	ldr	r2, [r2, #0]
 8002ad8:	3b04      	subs	r3, #4
 8002ada:	2a00      	cmp	r2, #0
 8002adc:	d1cb      	bne.n	8002a76 <quorem+0x94>
 8002ade:	3c01      	subs	r4, #1
 8002ae0:	e7c6      	b.n	8002a70 <quorem+0x8e>
 8002ae2:	6812      	ldr	r2, [r2, #0]
 8002ae4:	3b04      	subs	r3, #4
 8002ae6:	2a00      	cmp	r2, #0
 8002ae8:	d1ef      	bne.n	8002aca <quorem+0xe8>
 8002aea:	3c01      	subs	r4, #1
 8002aec:	e7ea      	b.n	8002ac4 <quorem+0xe2>
 8002aee:	2000      	movs	r0, #0
 8002af0:	e7ee      	b.n	8002ad0 <quorem+0xee>
 8002af2:	0000      	movs	r0, r0
 8002af4:	0000      	movs	r0, r0
	...

08002af8 <_dtoa_r>:
 8002af8:	e92d 4ff0 	stmdb	sp!, {r4, r5, r6, r7, r8, r9, sl, fp, lr}
 8002afc:	4614      	mov	r4, r2
 8002afe:	461d      	mov	r5, r3
 8002b00:	69c7      	ldr	r7, [r0, #28]
 8002b02:	b097      	sub	sp, #92	@ 0x5c
 8002b04:	4683      	mov	fp, r0
 8002b06:	e9cd 4502 	strd	r4, r5, [sp, #8]
 8002b0a:	9e23      	ldr	r6, [sp, #140]	@ 0x8c
 8002b0c:	b97f      	cbnz	r7, 8002b2e <_dtoa_r+0x36>
 8002b0e:	2010      	movs	r0, #16
 8002b10:	f000 fe02 	bl	8003718 <malloc>
 8002b14:	4602      	mov	r2, r0
 8002b16:	f8cb 001c 	str.w	r0, [fp, #28]
 8002b1a:	b920      	cbnz	r0, 8002b26 <_dtoa_r+0x2e>
 8002b1c:	21ef      	movs	r1, #239	@ 0xef
 8002b1e:	4ba8      	ldr	r3, [pc, #672]	@ (8002dc0 <_dtoa_r+0x2c8>)
 8002b20:	48a8      	ldr	r0, [pc, #672]	@ (8002dc4 <_dtoa_r+0x2cc>)
 8002b22:	f001 fcc9 	bl	80044b8 <__assert_func>
 8002b26:	e9c0 7701 	strd	r7, r7, [r0, #4]
 8002b2a:	6007      	str	r7, [r0, #0]
 8002b2c:	60c7      	str	r7, [r0, #12]
 8002b2e:	f8db 301c 	ldr.w	r3, [fp, #28]
 8002b32:	6819      	ldr	r1, [r3, #0]
 8002b34:	b159      	cbz	r1, 8002b4e <_dtoa_r+0x56>
 8002b36:	685a      	ldr	r2, [r3, #4]
 8002b38:	2301      	movs	r3, #1
 8002b3a:	4093      	lsls	r3, r2
 8002b3c:	604a      	str	r2, [r1, #4]
 8002b3e:	608b      	str	r3, [r1, #8]
 8002b40:	4658      	mov	r0, fp
 8002b42:	f000 fedf 	bl	8003904 <_Bfree>
 8002b46:	2200      	movs	r2, #0
 8002b48:	f8db 301c 	ldr.w	r3, [fp, #28]
 8002b4c:	601a      	str	r2, [r3, #0]
 8002b4e:	1e2b      	subs	r3, r5, #0
 8002b50:	bfaf      	iteee	ge
 8002b52:	2300      	movge	r3, #0
 8002b54:	2201      	movlt	r2, #1
 8002b56:	f023 4300 	biclt.w	r3, r3, #2147483648	@ 0x80000000
 8002b5a:	9303      	strlt	r3, [sp, #12]
 8002b5c:	bfa8      	it	ge
 8002b5e:	6033      	strge	r3, [r6, #0]
 8002b60:	f8dd 800c 	ldr.w	r8, [sp, #12]
 8002b64:	4b98      	ldr	r3, [pc, #608]	@ (8002dc8 <_dtoa_r+0x2d0>)
 8002b66:	bfb8      	it	lt
 8002b68:	6032      	strlt	r2, [r6, #0]
 8002b6a:	ea33 0308 	bics.w	r3, r3, r8
 8002b6e:	d112      	bne.n	8002b96 <_dtoa_r+0x9e>
 8002b70:	f242 730f 	movw	r3, #9999	@ 0x270f
 8002b74:	9a22      	ldr	r2, [sp, #136]	@ 0x88
 8002b76:	6013      	str	r3, [r2, #0]
 8002b78:	f3c8 0313 	ubfx	r3, r8, #0, #20
 8002b7c:	4323      	orrs	r3, r4
 8002b7e:	f000 8550 	beq.w	8003622 <_dtoa_r+0xb2a>
 8002b82:	9b24      	ldr	r3, [sp, #144]	@ 0x90
 8002b84:	f8df a244 	ldr.w	sl, [pc, #580]	@ 8002dcc <_dtoa_r+0x2d4>
 8002b88:	2b00      	cmp	r3, #0
 8002b8a:	f000 8552 	beq.w	8003632 <_dtoa_r+0xb3a>
 8002b8e:	f10a 0303 	add.w	r3, sl, #3
 8002b92:	f000 bd4c 	b.w	800362e <_dtoa_r+0xb36>
 8002b96:	e9dd 2302 	ldrd	r2, r3, [sp, #8]
 8002b9a:	e9cd 230c 	strd	r2, r3, [sp, #48]	@ 0x30
 8002b9e:	e9dd 010c 	ldrd	r0, r1, [sp, #48]	@ 0x30
 8002ba2:	2200      	movs	r2, #0
 8002ba4:	2300      	movs	r3, #0
 8002ba6:	f7fd ffc3 	bl	8000b30 <__aeabi_dcmpeq>
 8002baa:	4607      	mov	r7, r0
 8002bac:	b158      	cbz	r0, 8002bc6 <_dtoa_r+0xce>
 8002bae:	2301      	movs	r3, #1
 8002bb0:	9a22      	ldr	r2, [sp, #136]	@ 0x88
 8002bb2:	6013      	str	r3, [r2, #0]
 8002bb4:	9b24      	ldr	r3, [sp, #144]	@ 0x90
 8002bb6:	b113      	cbz	r3, 8002bbe <_dtoa_r+0xc6>
 8002bb8:	4b85      	ldr	r3, [pc, #532]	@ (8002dd0 <_dtoa_r+0x2d8>)
 8002bba:	9a24      	ldr	r2, [sp, #144]	@ 0x90
 8002bbc:	6013      	str	r3, [r2, #0]
 8002bbe:	f8df a214 	ldr.w	sl, [pc, #532]	@ 8002dd4 <_dtoa_r+0x2dc>
 8002bc2:	f000 bd36 	b.w	8003632 <_dtoa_r+0xb3a>
 8002bc6:	ab14      	add	r3, sp, #80	@ 0x50
 8002bc8:	9301      	str	r3, [sp, #4]
 8002bca:	ab15      	add	r3, sp, #84	@ 0x54
 8002bcc:	9300      	str	r3, [sp, #0]
 8002bce:	4658      	mov	r0, fp
 8002bd0:	e9dd 230c 	ldrd	r2, r3, [sp, #48]	@ 0x30
 8002bd4:	f001 f97e 	bl	8003ed4 <__d2b>
 8002bd8:	f3c8 560a 	ubfx	r6, r8, #20, #11
 8002bdc:	4681      	mov	r9, r0
 8002bde:	2e00      	cmp	r6, #0
 8002be0:	d077      	beq.n	8002cd2 <_dtoa_r+0x1da>
 8002be2:	e9dd 010c 	ldrd	r0, r1, [sp, #48]	@ 0x30
 8002be6:	9b0d      	ldr	r3, [sp, #52]	@ 0x34
 8002be8:	f2a6 36ff 	subw	r6, r6, #1023	@ 0x3ff
 8002bec:	f3c3 0313 	ubfx	r3, r3, #0, #20
 8002bf0:	f043 537f 	orr.w	r3, r3, #1069547520	@ 0x3fc00000
 8002bf4:	f443 1340 	orr.w	r3, r3, #3145728	@ 0x300000
 8002bf8:	9712      	str	r7, [sp, #72]	@ 0x48
 8002bfa:	4619      	mov	r1, r3
 8002bfc:	2200      	movs	r2, #0
 8002bfe:	4b76      	ldr	r3, [pc, #472]	@ (8002dd8 <_dtoa_r+0x2e0>)
 8002c00:	f7fd fb76 	bl	80002f0 <__aeabi_dsub>
 8002c04:	a368      	add	r3, pc, #416	@ (adr r3, 8002da8 <_dtoa_r+0x2b0>)
 8002c06:	e9d3 2300 	ldrd	r2, r3, [r3]
 8002c0a:	f7fd fd29 	bl	8000660 <__aeabi_dmul>
 8002c0e:	a368      	add	r3, pc, #416	@ (adr r3, 8002db0 <_dtoa_r+0x2b8>)
 8002c10:	e9d3 2300 	ldrd	r2, r3, [r3]
 8002c14:	f7fd fb6e 	bl	80002f4 <__adddf3>
 8002c18:	4604      	mov	r4, r0
 8002c1a:	4630      	mov	r0, r6
 8002c1c:	460d      	mov	r5, r1
 8002c1e:	f7fd fcb5 	bl	800058c <__aeabi_i2d>
 8002c22:	a365      	add	r3, pc, #404	@ (adr r3, 8002db8 <_dtoa_r+0x2c0>)
 8002c24:	e9d3 2300 	ldrd	r2, r3, [r3]
 8002c28:	f7fd fd1a 	bl	8000660 <__aeabi_dmul>
 8002c2c:	4602      	mov	r2, r0
 8002c2e:	460b      	mov	r3, r1
 8002c30:	4620      	mov	r0, r4
 8002c32:	4629      	mov	r1, r5
 8002c34:	f7fd fb5e 	bl	80002f4 <__adddf3>
 8002c38:	4604      	mov	r4, r0
 8002c3a:	460d      	mov	r5, r1
 8002c3c:	f7fd ffc0 	bl	8000bc0 <__aeabi_d2iz>
 8002c40:	2200      	movs	r2, #0
 8002c42:	4607      	mov	r7, r0
 8002c44:	2300      	movs	r3, #0
 8002c46:	4620      	mov	r0, r4
 8002c48:	4629      	mov	r1, r5
 8002c4a:	f7fd ff7b 	bl	8000b44 <__aeabi_dcmplt>
 8002c4e:	b140      	cbz	r0, 8002c62 <_dtoa_r+0x16a>
 8002c50:	4638      	mov	r0, r7
 8002c52:	f7fd fc9b 	bl	800058c <__aeabi_i2d>
 8002c56:	4622      	mov	r2, r4
 8002c58:	462b      	mov	r3, r5
 8002c5a:	f7fd ff69 	bl	8000b30 <__aeabi_dcmpeq>
 8002c5e:	b900      	cbnz	r0, 8002c62 <_dtoa_r+0x16a>
 8002c60:	3f01      	subs	r7, #1
 8002c62:	2f16      	cmp	r7, #22
 8002c64:	d853      	bhi.n	8002d0e <_dtoa_r+0x216>
 8002c66:	e9dd 010c 	ldrd	r0, r1, [sp, #48]	@ 0x30
 8002c6a:	4b5c      	ldr	r3, [pc, #368]	@ (8002ddc <_dtoa_r+0x2e4>)
 8002c6c:	eb03 03c7 	add.w	r3, r3, r7, lsl #3
 8002c70:	e9d3 2300 	ldrd	r2, r3, [r3]
 8002c74:	f7fd ff66 	bl	8000b44 <__aeabi_dcmplt>
 8002c78:	2800      	cmp	r0, #0
 8002c7a:	d04a      	beq.n	8002d12 <_dtoa_r+0x21a>
 8002c7c:	2300      	movs	r3, #0
 8002c7e:	3f01      	subs	r7, #1
 8002c80:	930f      	str	r3, [sp, #60]	@ 0x3c
 8002c82:	9b14      	ldr	r3, [sp, #80]	@ 0x50
 8002c84:	1b9b      	subs	r3, r3, r6
 8002c86:	1e5a      	subs	r2, r3, #1
 8002c88:	bf46      	itte	mi
 8002c8a:	f1c3 0801 	rsbmi	r8, r3, #1
 8002c8e:	2300      	movmi	r3, #0
 8002c90:	f04f 0800 	movpl.w	r8, #0
 8002c94:	9209      	str	r2, [sp, #36]	@ 0x24
 8002c96:	bf48      	it	mi
 8002c98:	9309      	strmi	r3, [sp, #36]	@ 0x24
 8002c9a:	2f00      	cmp	r7, #0
 8002c9c:	db3b      	blt.n	8002d16 <_dtoa_r+0x21e>
 8002c9e:	9b09      	ldr	r3, [sp, #36]	@ 0x24
 8002ca0:	970e      	str	r7, [sp, #56]	@ 0x38
 8002ca2:	443b      	add	r3, r7
 8002ca4:	9309      	str	r3, [sp, #36]	@ 0x24
 8002ca6:	2300      	movs	r3, #0
 8002ca8:	930a      	str	r3, [sp, #40]	@ 0x28
 8002caa:	9b20      	ldr	r3, [sp, #128]	@ 0x80
 8002cac:	2b09      	cmp	r3, #9
 8002cae:	d866      	bhi.n	8002d7e <_dtoa_r+0x286>
 8002cb0:	2b05      	cmp	r3, #5
 8002cb2:	bfc4      	itt	gt
 8002cb4:	3b04      	subgt	r3, #4
 8002cb6:	9320      	strgt	r3, [sp, #128]	@ 0x80
 8002cb8:	9b20      	ldr	r3, [sp, #128]	@ 0x80
 8002cba:	bfc8      	it	gt
 8002cbc:	2400      	movgt	r4, #0
 8002cbe:	f1a3 0302 	sub.w	r3, r3, #2
 8002cc2:	bfd8      	it	le
 8002cc4:	2401      	movle	r4, #1
 8002cc6:	2b03      	cmp	r3, #3
 8002cc8:	d864      	bhi.n	8002d94 <_dtoa_r+0x29c>
 8002cca:	e8df f003 	tbb	[pc, r3]
 8002cce:	382b      	.short	0x382b
 8002cd0:	5636      	.short	0x5636
 8002cd2:	e9dd 6314 	ldrd	r6, r3, [sp, #80]	@ 0x50
 8002cd6:	441e      	add	r6, r3
 8002cd8:	f206 4332 	addw	r3, r6, #1074	@ 0x432
 8002cdc:	2b20      	cmp	r3, #32
 8002cde:	bfc1      	itttt	gt
 8002ce0:	f1c3 0340 	rsbgt	r3, r3, #64	@ 0x40
 8002ce4:	fa08 f803 	lslgt.w	r8, r8, r3
 8002ce8:	f206 4312 	addwgt	r3, r6, #1042	@ 0x412
 8002cec:	fa24 f303 	lsrgt.w	r3, r4, r3
 8002cf0:	bfd6      	itet	le
 8002cf2:	f1c3 0320 	rsble	r3, r3, #32
 8002cf6:	ea48 0003 	orrgt.w	r0, r8, r3
 8002cfa:	fa04 f003 	lslle.w	r0, r4, r3
 8002cfe:	f7fd fc35 	bl	800056c <__aeabi_ui2d>
 8002d02:	2201      	movs	r2, #1
 8002d04:	f1a1 73f8 	sub.w	r3, r1, #32505856	@ 0x1f00000
 8002d08:	3e01      	subs	r6, #1
 8002d0a:	9212      	str	r2, [sp, #72]	@ 0x48
 8002d0c:	e775      	b.n	8002bfa <_dtoa_r+0x102>
 8002d0e:	2301      	movs	r3, #1
 8002d10:	e7b6      	b.n	8002c80 <_dtoa_r+0x188>
 8002d12:	900f      	str	r0, [sp, #60]	@ 0x3c
 8002d14:	e7b5      	b.n	8002c82 <_dtoa_r+0x18a>
 8002d16:	427b      	negs	r3, r7
 8002d18:	930a      	str	r3, [sp, #40]	@ 0x28
 8002d1a:	2300      	movs	r3, #0
 8002d1c:	eba8 0807 	sub.w	r8, r8, r7
 8002d20:	930e      	str	r3, [sp, #56]	@ 0x38
 8002d22:	e7c2      	b.n	8002caa <_dtoa_r+0x1b2>
 8002d24:	2300      	movs	r3, #0
 8002d26:	930b      	str	r3, [sp, #44]	@ 0x2c
 8002d28:	9b21      	ldr	r3, [sp, #132]	@ 0x84
 8002d2a:	2b00      	cmp	r3, #0
 8002d2c:	dc35      	bgt.n	8002d9a <_dtoa_r+0x2a2>
 8002d2e:	2301      	movs	r3, #1
 8002d30:	461a      	mov	r2, r3
 8002d32:	e9cd 3307 	strd	r3, r3, [sp, #28]
 8002d36:	9221      	str	r2, [sp, #132]	@ 0x84
 8002d38:	e00b      	b.n	8002d52 <_dtoa_r+0x25a>
 8002d3a:	2301      	movs	r3, #1
 8002d3c:	e7f3      	b.n	8002d26 <_dtoa_r+0x22e>
 8002d3e:	2300      	movs	r3, #0
 8002d40:	930b      	str	r3, [sp, #44]	@ 0x2c
 8002d42:	9b21      	ldr	r3, [sp, #132]	@ 0x84
 8002d44:	18fb      	adds	r3, r7, r3
 8002d46:	9308      	str	r3, [sp, #32]
 8002d48:	3301      	adds	r3, #1
 8002d4a:	2b01      	cmp	r3, #1
 8002d4c:	9307      	str	r3, [sp, #28]
 8002d4e:	bfb8      	it	lt
 8002d50:	2301      	movlt	r3, #1
 8002d52:	2100      	movs	r1, #0
 8002d54:	2204      	movs	r2, #4
 8002d56:	f8db 001c 	ldr.w	r0, [fp, #28]
 8002d5a:	f102 0514 	add.w	r5, r2, #20
 8002d5e:	429d      	cmp	r5, r3
 8002d60:	d91f      	bls.n	8002da2 <_dtoa_r+0x2aa>
 8002d62:	6041      	str	r1, [r0, #4]
 8002d64:	4658      	mov	r0, fp
 8002d66:	f000 fd8d 	bl	8003884 <_Balloc>
 8002d6a:	4682      	mov	sl, r0
 8002d6c:	2800      	cmp	r0, #0
 8002d6e:	d139      	bne.n	8002de4 <_dtoa_r+0x2ec>
 8002d70:	4602      	mov	r2, r0
 8002d72:	f240 11af 	movw	r1, #431	@ 0x1af
 8002d76:	4b1a      	ldr	r3, [pc, #104]	@ (8002de0 <_dtoa_r+0x2e8>)
 8002d78:	e6d2      	b.n	8002b20 <_dtoa_r+0x28>
 8002d7a:	2301      	movs	r3, #1
 8002d7c:	e7e0      	b.n	8002d40 <_dtoa_r+0x248>
 8002d7e:	2401      	movs	r4, #1
 8002d80:	2300      	movs	r3, #0
 8002d82:	940b      	str	r4, [sp, #44]	@ 0x2c
 8002d84:	9320      	str	r3, [sp, #128]	@ 0x80
 8002d86:	f04f 33ff 	mov.w	r3, #4294967295
 8002d8a:	2200      	movs	r2, #0
 8002d8c:	e9cd 3307 	strd	r3, r3, [sp, #28]
 8002d90:	2312      	movs	r3, #18
 8002d92:	e7d0      	b.n	8002d36 <_dtoa_r+0x23e>
 8002d94:	2301      	movs	r3, #1
 8002d96:	930b      	str	r3, [sp, #44]	@ 0x2c
 8002d98:	e7f5      	b.n	8002d86 <_dtoa_r+0x28e>
 8002d9a:	9b21      	ldr	r3, [sp, #132]	@ 0x84
 8002d9c:	e9cd 3307 	strd	r3, r3, [sp, #28]
 8002da0:	e7d7      	b.n	8002d52 <_dtoa_r+0x25a>
 8002da2:	3101      	adds	r1, #1
 8002da4:	0052      	lsls	r2, r2, #1
 8002da6:	e7d8      	b.n	8002d5a <_dtoa_r+0x262>
 8002da8:	636f4361 	.word	0x636f4361
 8002dac:	3fd287a7 	.word	0x3fd287a7
 8002db0:	8b60c8b3 	.word	0x8b60c8b3
 8002db4:	3fc68a28 	.word	0x3fc68a28
 8002db8:	509f79fb 	.word	0x509f79fb
 8002dbc:	3fd34413 	.word	0x3fd34413
 8002dc0:	080047c3 	.word	0x080047c3
 8002dc4:	080047da 	.word	0x080047da
 8002dc8:	7ff00000 	.word	0x7ff00000
 8002dcc:	080047bf 	.word	0x080047bf
 8002dd0:	08004793 	.word	0x08004793
 8002dd4:	08004792 	.word	0x08004792
 8002dd8:	3ff80000 	.word	0x3ff80000
 8002ddc:	080048d0 	.word	0x080048d0
 8002de0:	08004832 	.word	0x08004832
 8002de4:	f8db 301c 	ldr.w	r3, [fp, #28]
 8002de8:	6018      	str	r0, [r3, #0]
 8002dea:	9b07      	ldr	r3, [sp, #28]
 8002dec:	2b0e      	cmp	r3, #14
 8002dee:	f200 80a4 	bhi.w	8002f3a <_dtoa_r+0x442>
 8002df2:	2c00      	cmp	r4, #0
 8002df4:	f000 80a1 	beq.w	8002f3a <_dtoa_r+0x442>
 8002df8:	2f00      	cmp	r7, #0
 8002dfa:	dd33      	ble.n	8002e64 <_dtoa_r+0x36c>
 8002dfc:	4b86      	ldr	r3, [pc, #536]	@ (8003018 <_dtoa_r+0x520>)
 8002dfe:	f007 020f 	and.w	r2, r7, #15
 8002e02:	eb03 03c2 	add.w	r3, r3, r2, lsl #3
 8002e06:	05f8      	lsls	r0, r7, #23
 8002e08:	e9d3 3400 	ldrd	r3, r4, [r3]
 8002e0c:	e9cd 3404 	strd	r3, r4, [sp, #16]
 8002e10:	ea4f 1427 	mov.w	r4, r7, asr #4
 8002e14:	d516      	bpl.n	8002e44 <_dtoa_r+0x34c>
 8002e16:	e9dd 010c 	ldrd	r0, r1, [sp, #48]	@ 0x30
 8002e1a:	4b80      	ldr	r3, [pc, #512]	@ (800301c <_dtoa_r+0x524>)
 8002e1c:	2603      	movs	r6, #3
 8002e1e:	e9d3 2308 	ldrd	r2, r3, [r3, #32]
 8002e22:	f7fd fd47 	bl	80008b4 <__aeabi_ddiv>
 8002e26:	e9cd 0102 	strd	r0, r1, [sp, #8]
 8002e2a:	f004 040f 	and.w	r4, r4, #15
 8002e2e:	4d7b      	ldr	r5, [pc, #492]	@ (800301c <_dtoa_r+0x524>)
 8002e30:	b954      	cbnz	r4, 8002e48 <_dtoa_r+0x350>
 8002e32:	e9dd 2304 	ldrd	r2, r3, [sp, #16]
 8002e36:	e9dd 0102 	ldrd	r0, r1, [sp, #8]
 8002e3a:	f7fd fd3b 	bl	80008b4 <__aeabi_ddiv>
 8002e3e:	e9cd 0102 	strd	r0, r1, [sp, #8]
 8002e42:	e028      	b.n	8002e96 <_dtoa_r+0x39e>
 8002e44:	2602      	movs	r6, #2
 8002e46:	e7f2      	b.n	8002e2e <_dtoa_r+0x336>
 8002e48:	07e1      	lsls	r1, r4, #31
 8002e4a:	d508      	bpl.n	8002e5e <_dtoa_r+0x366>
 8002e4c:	e9dd 0104 	ldrd	r0, r1, [sp, #16]
 8002e50:	e9d5 2300 	ldrd	r2, r3, [r5]
 8002e54:	f7fd fc04 	bl	8000660 <__aeabi_dmul>
 8002e58:	e9cd 0104 	strd	r0, r1, [sp, #16]
 8002e5c:	3601      	adds	r6, #1
 8002e5e:	1064      	asrs	r4, r4, #1
 8002e60:	3508      	adds	r5, #8
 8002e62:	e7e5      	b.n	8002e30 <_dtoa_r+0x338>
 8002e64:	f000 80d2 	beq.w	800300c <_dtoa_r+0x514>
 8002e68:	e9dd 010c 	ldrd	r0, r1, [sp, #48]	@ 0x30
 8002e6c:	427c      	negs	r4, r7
 8002e6e:	4b6a      	ldr	r3, [pc, #424]	@ (8003018 <_dtoa_r+0x520>)
 8002e70:	f004 020f 	and.w	r2, r4, #15
 8002e74:	eb03 03c2 	add.w	r3, r3, r2, lsl #3
 8002e78:	e9d3 2300 	ldrd	r2, r3, [r3]
 8002e7c:	f7fd fbf0 	bl	8000660 <__aeabi_dmul>
 8002e80:	2602      	movs	r6, #2
 8002e82:	2300      	movs	r3, #0
 8002e84:	e9cd 0102 	strd	r0, r1, [sp, #8]
 8002e88:	4d64      	ldr	r5, [pc, #400]	@ (800301c <_dtoa_r+0x524>)
 8002e8a:	1124      	asrs	r4, r4, #4
 8002e8c:	2c00      	cmp	r4, #0
 8002e8e:	f040 80b2 	bne.w	8002ff6 <_dtoa_r+0x4fe>
 8002e92:	2b00      	cmp	r3, #0
 8002e94:	d1d3      	bne.n	8002e3e <_dtoa_r+0x346>
 8002e96:	e9dd 4502 	ldrd	r4, r5, [sp, #8]
 8002e9a:	9b0f      	ldr	r3, [sp, #60]	@ 0x3c
 8002e9c:	2b00      	cmp	r3, #0
 8002e9e:	f000 80b7 	beq.w	8003010 <_dtoa_r+0x518>
 8002ea2:	2200      	movs	r2, #0
 8002ea4:	4620      	mov	r0, r4
 8002ea6:	4629      	mov	r1, r5
 8002ea8:	4b5d      	ldr	r3, [pc, #372]	@ (8003020 <_dtoa_r+0x528>)
 8002eaa:	f7fd fe4b 	bl	8000b44 <__aeabi_dcmplt>
 8002eae:	2800      	cmp	r0, #0
 8002eb0:	f000 80ae 	beq.w	8003010 <_dtoa_r+0x518>
 8002eb4:	9b07      	ldr	r3, [sp, #28]
 8002eb6:	2b00      	cmp	r3, #0
 8002eb8:	f000 80aa 	beq.w	8003010 <_dtoa_r+0x518>
 8002ebc:	9b08      	ldr	r3, [sp, #32]
 8002ebe:	2b00      	cmp	r3, #0
 8002ec0:	dd37      	ble.n	8002f32 <_dtoa_r+0x43a>
 8002ec2:	1e7b      	subs	r3, r7, #1
 8002ec4:	4620      	mov	r0, r4
 8002ec6:	9304      	str	r3, [sp, #16]
 8002ec8:	2200      	movs	r2, #0
 8002eca:	4629      	mov	r1, r5
 8002ecc:	4b55      	ldr	r3, [pc, #340]	@ (8003024 <_dtoa_r+0x52c>)
 8002ece:	f7fd fbc7 	bl	8000660 <__aeabi_dmul>
 8002ed2:	e9cd 0102 	strd	r0, r1, [sp, #8]
 8002ed6:	9c08      	ldr	r4, [sp, #32]
 8002ed8:	3601      	adds	r6, #1
 8002eda:	4630      	mov	r0, r6
 8002edc:	f7fd fb56 	bl	800058c <__aeabi_i2d>
 8002ee0:	e9dd 2302 	ldrd	r2, r3, [sp, #8]
 8002ee4:	f7fd fbbc 	bl	8000660 <__aeabi_dmul>
 8002ee8:	2200      	movs	r2, #0
 8002eea:	4b4f      	ldr	r3, [pc, #316]	@ (8003028 <_dtoa_r+0x530>)
 8002eec:	f7fd fa02 	bl	80002f4 <__adddf3>
 8002ef0:	4605      	mov	r5, r0
 8002ef2:	f1a1 7650 	sub.w	r6, r1, #54525952	@ 0x3400000
 8002ef6:	2c00      	cmp	r4, #0
 8002ef8:	f040 809a 	bne.w	8003030 <_dtoa_r+0x538>
 8002efc:	e9dd 0102 	ldrd	r0, r1, [sp, #8]
 8002f00:	2200      	movs	r2, #0
 8002f02:	4b4a      	ldr	r3, [pc, #296]	@ (800302c <_dtoa_r+0x534>)
 8002f04:	f7fd f9f4 	bl	80002f0 <__aeabi_dsub>
 8002f08:	4602      	mov	r2, r0
 8002f0a:	460b      	mov	r3, r1
 8002f0c:	e9cd 2302 	strd	r2, r3, [sp, #8]
 8002f10:	462a      	mov	r2, r5
 8002f12:	4633      	mov	r3, r6
 8002f14:	f7fd fe34 	bl	8000b80 <__aeabi_dcmpgt>
 8002f18:	2800      	cmp	r0, #0
 8002f1a:	f040 828e 	bne.w	800343a <_dtoa_r+0x942>
 8002f1e:	e9dd 0102 	ldrd	r0, r1, [sp, #8]
 8002f22:	462a      	mov	r2, r5
 8002f24:	f106 4300 	add.w	r3, r6, #2147483648	@ 0x80000000
 8002f28:	f7fd fe0c 	bl	8000b44 <__aeabi_dcmplt>
 8002f2c:	2800      	cmp	r0, #0
 8002f2e:	f040 8127 	bne.w	8003180 <_dtoa_r+0x688>
 8002f32:	e9dd 340c 	ldrd	r3, r4, [sp, #48]	@ 0x30
 8002f36:	e9cd 3402 	strd	r3, r4, [sp, #8]
 8002f3a:	9b15      	ldr	r3, [sp, #84]	@ 0x54
 8002f3c:	2b00      	cmp	r3, #0
 8002f3e:	f2c0 8163 	blt.w	8003208 <_dtoa_r+0x710>
 8002f42:	2f0e      	cmp	r7, #14
 8002f44:	f300 8160 	bgt.w	8003208 <_dtoa_r+0x710>
 8002f48:	4b33      	ldr	r3, [pc, #204]	@ (8003018 <_dtoa_r+0x520>)
 8002f4a:	eb03 03c7 	add.w	r3, r3, r7, lsl #3
 8002f4e:	e9d3 3400 	ldrd	r3, r4, [r3]
 8002f52:	e9cd 3404 	strd	r3, r4, [sp, #16]
 8002f56:	9b21      	ldr	r3, [sp, #132]	@ 0x84
 8002f58:	2b00      	cmp	r3, #0
 8002f5a:	da03      	bge.n	8002f64 <_dtoa_r+0x46c>
 8002f5c:	9b07      	ldr	r3, [sp, #28]
 8002f5e:	2b00      	cmp	r3, #0
 8002f60:	f340 8100 	ble.w	8003164 <_dtoa_r+0x66c>
 8002f64:	e9dd 4502 	ldrd	r4, r5, [sp, #8]
 8002f68:	4656      	mov	r6, sl
 8002f6a:	e9dd 2304 	ldrd	r2, r3, [sp, #16]
 8002f6e:	4620      	mov	r0, r4
 8002f70:	4629      	mov	r1, r5
 8002f72:	f7fd fc9f 	bl	80008b4 <__aeabi_ddiv>
 8002f76:	f7fd fe23 	bl	8000bc0 <__aeabi_d2iz>
 8002f7a:	4680      	mov	r8, r0
 8002f7c:	f7fd fb06 	bl	800058c <__aeabi_i2d>
 8002f80:	e9dd 2304 	ldrd	r2, r3, [sp, #16]
 8002f84:	f7fd fb6c 	bl	8000660 <__aeabi_dmul>
 8002f88:	4602      	mov	r2, r0
 8002f8a:	460b      	mov	r3, r1
 8002f8c:	4620      	mov	r0, r4
 8002f8e:	4629      	mov	r1, r5
 8002f90:	f7fd f9ae 	bl	80002f0 <__aeabi_dsub>
 8002f94:	f108 0430 	add.w	r4, r8, #48	@ 0x30
 8002f98:	9d07      	ldr	r5, [sp, #28]
 8002f9a:	f806 4b01 	strb.w	r4, [r6], #1
 8002f9e:	eba6 040a 	sub.w	r4, r6, sl
 8002fa2:	42a5      	cmp	r5, r4
 8002fa4:	4602      	mov	r2, r0
 8002fa6:	460b      	mov	r3, r1
 8002fa8:	f040 8116 	bne.w	80031d8 <_dtoa_r+0x6e0>
 8002fac:	f7fd f9a2 	bl	80002f4 <__adddf3>
 8002fb0:	e9dd 2304 	ldrd	r2, r3, [sp, #16]
 8002fb4:	4604      	mov	r4, r0
 8002fb6:	460d      	mov	r5, r1
 8002fb8:	f7fd fde2 	bl	8000b80 <__aeabi_dcmpgt>
 8002fbc:	2800      	cmp	r0, #0
 8002fbe:	f040 80f8 	bne.w	80031b2 <_dtoa_r+0x6ba>
 8002fc2:	e9dd 2304 	ldrd	r2, r3, [sp, #16]
 8002fc6:	4620      	mov	r0, r4
 8002fc8:	4629      	mov	r1, r5
 8002fca:	f7fd fdb1 	bl	8000b30 <__aeabi_dcmpeq>
 8002fce:	b118      	cbz	r0, 8002fd8 <_dtoa_r+0x4e0>
 8002fd0:	f018 0f01 	tst.w	r8, #1
 8002fd4:	f040 80ed 	bne.w	80031b2 <_dtoa_r+0x6ba>
 8002fd8:	4649      	mov	r1, r9
 8002fda:	4658      	mov	r0, fp
 8002fdc:	f000 fc92 	bl	8003904 <_Bfree>
 8002fe0:	2300      	movs	r3, #0
 8002fe2:	7033      	strb	r3, [r6, #0]
 8002fe4:	9b22      	ldr	r3, [sp, #136]	@ 0x88
 8002fe6:	3701      	adds	r7, #1
 8002fe8:	601f      	str	r7, [r3, #0]
 8002fea:	9b24      	ldr	r3, [sp, #144]	@ 0x90
 8002fec:	2b00      	cmp	r3, #0
 8002fee:	f000 8320 	beq.w	8003632 <_dtoa_r+0xb3a>
 8002ff2:	601e      	str	r6, [r3, #0]
 8002ff4:	e31d      	b.n	8003632 <_dtoa_r+0xb3a>
 8002ff6:	07e2      	lsls	r2, r4, #31
 8002ff8:	d505      	bpl.n	8003006 <_dtoa_r+0x50e>
 8002ffa:	e9d5 2300 	ldrd	r2, r3, [r5]
 8002ffe:	f7fd fb2f 	bl	8000660 <__aeabi_dmul>
 8003002:	2301      	movs	r3, #1
 8003004:	3601      	adds	r6, #1
 8003006:	1064      	asrs	r4, r4, #1
 8003008:	3508      	adds	r5, #8
 800300a:	e73f      	b.n	8002e8c <_dtoa_r+0x394>
 800300c:	2602      	movs	r6, #2
 800300e:	e742      	b.n	8002e96 <_dtoa_r+0x39e>
 8003010:	9c07      	ldr	r4, [sp, #28]
 8003012:	9704      	str	r7, [sp, #16]
 8003014:	e761      	b.n	8002eda <_dtoa_r+0x3e2>
 8003016:	bf00      	nop
 8003018:	080048d0 	.word	0x080048d0
 800301c:	080048a8 	.word	0x080048a8
 8003020:	3ff00000 	.word	0x3ff00000
 8003024:	40240000 	.word	0x40240000
 8003028:	401c0000 	.word	0x401c0000
 800302c:	40140000 	.word	0x40140000
 8003030:	4b70      	ldr	r3, [pc, #448]	@ (80031f4 <_dtoa_r+0x6fc>)
 8003032:	990b      	ldr	r1, [sp, #44]	@ 0x2c
 8003034:	eb03 03c4 	add.w	r3, r3, r4, lsl #3
 8003038:	e953 2302 	ldrd	r2, r3, [r3, #-8]
 800303c:	4454      	add	r4, sl
 800303e:	2900      	cmp	r1, #0
 8003040:	d045      	beq.n	80030ce <_dtoa_r+0x5d6>
 8003042:	2000      	movs	r0, #0
 8003044:	496c      	ldr	r1, [pc, #432]	@ (80031f8 <_dtoa_r+0x700>)
 8003046:	f7fd fc35 	bl	80008b4 <__aeabi_ddiv>
 800304a:	4633      	mov	r3, r6
 800304c:	462a      	mov	r2, r5
 800304e:	f7fd f94f 	bl	80002f0 <__aeabi_dsub>
 8003052:	4656      	mov	r6, sl
 8003054:	e9cd 0110 	strd	r0, r1, [sp, #64]	@ 0x40
 8003058:	e9dd 0102 	ldrd	r0, r1, [sp, #8]
 800305c:	f7fd fdb0 	bl	8000bc0 <__aeabi_d2iz>
 8003060:	4605      	mov	r5, r0
 8003062:	f7fd fa93 	bl	800058c <__aeabi_i2d>
 8003066:	4602      	mov	r2, r0
 8003068:	460b      	mov	r3, r1
 800306a:	e9dd 0102 	ldrd	r0, r1, [sp, #8]
 800306e:	f7fd f93f 	bl	80002f0 <__aeabi_dsub>
 8003072:	4602      	mov	r2, r0
 8003074:	460b      	mov	r3, r1
 8003076:	3530      	adds	r5, #48	@ 0x30
 8003078:	e9cd 2302 	strd	r2, r3, [sp, #8]
 800307c:	e9dd 2310 	ldrd	r2, r3, [sp, #64]	@ 0x40
 8003080:	f806 5b01 	strb.w	r5, [r6], #1
 8003084:	f7fd fd5e 	bl	8000b44 <__aeabi_dcmplt>
 8003088:	2800      	cmp	r0, #0
 800308a:	d163      	bne.n	8003154 <_dtoa_r+0x65c>
 800308c:	e9dd 2302 	ldrd	r2, r3, [sp, #8]
 8003090:	2000      	movs	r0, #0
 8003092:	495a      	ldr	r1, [pc, #360]	@ (80031fc <_dtoa_r+0x704>)
 8003094:	f7fd f92c 	bl	80002f0 <__aeabi_dsub>
 8003098:	e9dd 2310 	ldrd	r2, r3, [sp, #64]	@ 0x40
 800309c:	f7fd fd52 	bl	8000b44 <__aeabi_dcmplt>
 80030a0:	2800      	cmp	r0, #0
 80030a2:	f040 8087 	bne.w	80031b4 <_dtoa_r+0x6bc>
 80030a6:	42a6      	cmp	r6, r4
 80030a8:	f43f af43 	beq.w	8002f32 <_dtoa_r+0x43a>
 80030ac:	e9dd 0110 	ldrd	r0, r1, [sp, #64]	@ 0x40
 80030b0:	2200      	movs	r2, #0
 80030b2:	4b53      	ldr	r3, [pc, #332]	@ (8003200 <_dtoa_r+0x708>)
 80030b4:	f7fd fad4 	bl	8000660 <__aeabi_dmul>
 80030b8:	2200      	movs	r2, #0
 80030ba:	e9cd 0110 	strd	r0, r1, [sp, #64]	@ 0x40
 80030be:	e9dd 0102 	ldrd	r0, r1, [sp, #8]
 80030c2:	4b4f      	ldr	r3, [pc, #316]	@ (8003200 <_dtoa_r+0x708>)
 80030c4:	f7fd facc 	bl	8000660 <__aeabi_dmul>
 80030c8:	e9cd 0102 	strd	r0, r1, [sp, #8]
 80030cc:	e7c4      	b.n	8003058 <_dtoa_r+0x560>
 80030ce:	4631      	mov	r1, r6
 80030d0:	4628      	mov	r0, r5
 80030d2:	f7fd fac5 	bl	8000660 <__aeabi_dmul>
 80030d6:	4656      	mov	r6, sl
 80030d8:	e9cd 0110 	strd	r0, r1, [sp, #64]	@ 0x40
 80030dc:	9413      	str	r4, [sp, #76]	@ 0x4c
 80030de:	e9dd 0102 	ldrd	r0, r1, [sp, #8]
 80030e2:	f7fd fd6d 	bl	8000bc0 <__aeabi_d2iz>
 80030e6:	4605      	mov	r5, r0
 80030e8:	f7fd fa50 	bl	800058c <__aeabi_i2d>
 80030ec:	4602      	mov	r2, r0
 80030ee:	460b      	mov	r3, r1
 80030f0:	e9dd 0102 	ldrd	r0, r1, [sp, #8]
 80030f4:	f7fd f8fc 	bl	80002f0 <__aeabi_dsub>
 80030f8:	4602      	mov	r2, r0
 80030fa:	460b      	mov	r3, r1
 80030fc:	3530      	adds	r5, #48	@ 0x30
 80030fe:	f806 5b01 	strb.w	r5, [r6], #1
 8003102:	42a6      	cmp	r6, r4
 8003104:	e9cd 2302 	strd	r2, r3, [sp, #8]
 8003108:	f04f 0200 	mov.w	r2, #0
 800310c:	d124      	bne.n	8003158 <_dtoa_r+0x660>
 800310e:	e9dd 0110 	ldrd	r0, r1, [sp, #64]	@ 0x40
 8003112:	4b39      	ldr	r3, [pc, #228]	@ (80031f8 <_dtoa_r+0x700>)
 8003114:	f7fd f8ee 	bl	80002f4 <__adddf3>
 8003118:	4602      	mov	r2, r0
 800311a:	460b      	mov	r3, r1
 800311c:	e9dd 0102 	ldrd	r0, r1, [sp, #8]
 8003120:	f7fd fd2e 	bl	8000b80 <__aeabi_dcmpgt>
 8003124:	2800      	cmp	r0, #0
 8003126:	d145      	bne.n	80031b4 <_dtoa_r+0x6bc>
 8003128:	e9dd 2310 	ldrd	r2, r3, [sp, #64]	@ 0x40
 800312c:	2000      	movs	r0, #0
 800312e:	4932      	ldr	r1, [pc, #200]	@ (80031f8 <_dtoa_r+0x700>)
 8003130:	f7fd f8de 	bl	80002f0 <__aeabi_dsub>
 8003134:	4602      	mov	r2, r0
 8003136:	460b      	mov	r3, r1
 8003138:	e9dd 0102 	ldrd	r0, r1, [sp, #8]
 800313c:	f7fd fd02 	bl	8000b44 <__aeabi_dcmplt>
 8003140:	2800      	cmp	r0, #0
 8003142:	f43f aef6 	beq.w	8002f32 <_dtoa_r+0x43a>
 8003146:	9e13      	ldr	r6, [sp, #76]	@ 0x4c
 8003148:	1e73      	subs	r3, r6, #1
 800314a:	9313      	str	r3, [sp, #76]	@ 0x4c
 800314c:	f816 3c01 	ldrb.w	r3, [r6, #-1]
 8003150:	2b30      	cmp	r3, #48	@ 0x30
 8003152:	d0f8      	beq.n	8003146 <_dtoa_r+0x64e>
 8003154:	9f04      	ldr	r7, [sp, #16]
 8003156:	e73f      	b.n	8002fd8 <_dtoa_r+0x4e0>
 8003158:	4b29      	ldr	r3, [pc, #164]	@ (8003200 <_dtoa_r+0x708>)
 800315a:	f7fd fa81 	bl	8000660 <__aeabi_dmul>
 800315e:	e9cd 0102 	strd	r0, r1, [sp, #8]
 8003162:	e7bc      	b.n	80030de <_dtoa_r+0x5e6>
 8003164:	d10c      	bne.n	8003180 <_dtoa_r+0x688>
 8003166:	e9dd 0104 	ldrd	r0, r1, [sp, #16]
 800316a:	2200      	movs	r2, #0
 800316c:	4b25      	ldr	r3, [pc, #148]	@ (8003204 <_dtoa_r+0x70c>)
 800316e:	f7fd fa77 	bl	8000660 <__aeabi_dmul>
 8003172:	e9dd 2302 	ldrd	r2, r3, [sp, #8]
 8003176:	f7fd fcf9 	bl	8000b6c <__aeabi_dcmpge>
 800317a:	2800      	cmp	r0, #0
 800317c:	f000 815b 	beq.w	8003436 <_dtoa_r+0x93e>
 8003180:	2400      	movs	r4, #0
 8003182:	4625      	mov	r5, r4
 8003184:	9b21      	ldr	r3, [sp, #132]	@ 0x84
 8003186:	4656      	mov	r6, sl
 8003188:	43db      	mvns	r3, r3
 800318a:	9304      	str	r3, [sp, #16]
 800318c:	2700      	movs	r7, #0
 800318e:	4621      	mov	r1, r4
 8003190:	4658      	mov	r0, fp
 8003192:	f000 fbb7 	bl	8003904 <_Bfree>
 8003196:	2d00      	cmp	r5, #0
 8003198:	d0dc      	beq.n	8003154 <_dtoa_r+0x65c>
 800319a:	b12f      	cbz	r7, 80031a8 <_dtoa_r+0x6b0>
 800319c:	42af      	cmp	r7, r5
 800319e:	d003      	beq.n	80031a8 <_dtoa_r+0x6b0>
 80031a0:	4639      	mov	r1, r7
 80031a2:	4658      	mov	r0, fp
 80031a4:	f000 fbae 	bl	8003904 <_Bfree>
 80031a8:	4629      	mov	r1, r5
 80031aa:	4658      	mov	r0, fp
 80031ac:	f000 fbaa 	bl	8003904 <_Bfree>
 80031b0:	e7d0      	b.n	8003154 <_dtoa_r+0x65c>
 80031b2:	9704      	str	r7, [sp, #16]
 80031b4:	4633      	mov	r3, r6
 80031b6:	461e      	mov	r6, r3
 80031b8:	f813 2d01 	ldrb.w	r2, [r3, #-1]!
 80031bc:	2a39      	cmp	r2, #57	@ 0x39
 80031be:	d107      	bne.n	80031d0 <_dtoa_r+0x6d8>
 80031c0:	459a      	cmp	sl, r3
 80031c2:	d1f8      	bne.n	80031b6 <_dtoa_r+0x6be>
 80031c4:	9a04      	ldr	r2, [sp, #16]
 80031c6:	3201      	adds	r2, #1
 80031c8:	9204      	str	r2, [sp, #16]
 80031ca:	2230      	movs	r2, #48	@ 0x30
 80031cc:	f88a 2000 	strb.w	r2, [sl]
 80031d0:	781a      	ldrb	r2, [r3, #0]
 80031d2:	3201      	adds	r2, #1
 80031d4:	701a      	strb	r2, [r3, #0]
 80031d6:	e7bd      	b.n	8003154 <_dtoa_r+0x65c>
 80031d8:	2200      	movs	r2, #0
 80031da:	4b09      	ldr	r3, [pc, #36]	@ (8003200 <_dtoa_r+0x708>)
 80031dc:	f7fd fa40 	bl	8000660 <__aeabi_dmul>
 80031e0:	2200      	movs	r2, #0
 80031e2:	2300      	movs	r3, #0
 80031e4:	4604      	mov	r4, r0
 80031e6:	460d      	mov	r5, r1
 80031e8:	f7fd fca2 	bl	8000b30 <__aeabi_dcmpeq>
 80031ec:	2800      	cmp	r0, #0
 80031ee:	f43f aebc 	beq.w	8002f6a <_dtoa_r+0x472>
 80031f2:	e6f1      	b.n	8002fd8 <_dtoa_r+0x4e0>
 80031f4:	080048d0 	.word	0x080048d0
 80031f8:	3fe00000 	.word	0x3fe00000
 80031fc:	3ff00000 	.word	0x3ff00000
 8003200:	40240000 	.word	0x40240000
 8003204:	40140000 	.word	0x40140000
 8003208:	9a0b      	ldr	r2, [sp, #44]	@ 0x2c
 800320a:	2a00      	cmp	r2, #0
 800320c:	f000 80db 	beq.w	80033c6 <_dtoa_r+0x8ce>
 8003210:	9a20      	ldr	r2, [sp, #128]	@ 0x80
 8003212:	2a01      	cmp	r2, #1
 8003214:	f300 80bf 	bgt.w	8003396 <_dtoa_r+0x89e>
 8003218:	9a12      	ldr	r2, [sp, #72]	@ 0x48
 800321a:	2a00      	cmp	r2, #0
 800321c:	f000 80b7 	beq.w	800338e <_dtoa_r+0x896>
 8003220:	f203 4333 	addw	r3, r3, #1075	@ 0x433
 8003224:	4646      	mov	r6, r8
 8003226:	9c0a      	ldr	r4, [sp, #40]	@ 0x28
 8003228:	9a09      	ldr	r2, [sp, #36]	@ 0x24
 800322a:	2101      	movs	r1, #1
 800322c:	441a      	add	r2, r3
 800322e:	4658      	mov	r0, fp
 8003230:	4498      	add	r8, r3
 8003232:	9209      	str	r2, [sp, #36]	@ 0x24
 8003234:	f000 fc1a 	bl	8003a6c <__i2b>
 8003238:	4605      	mov	r5, r0
 800323a:	b15e      	cbz	r6, 8003254 <_dtoa_r+0x75c>
 800323c:	9b09      	ldr	r3, [sp, #36]	@ 0x24
 800323e:	2b00      	cmp	r3, #0
 8003240:	dd08      	ble.n	8003254 <_dtoa_r+0x75c>
 8003242:	42b3      	cmp	r3, r6
 8003244:	bfa8      	it	ge
 8003246:	4633      	movge	r3, r6
 8003248:	9a09      	ldr	r2, [sp, #36]	@ 0x24
 800324a:	eba8 0803 	sub.w	r8, r8, r3
 800324e:	1af6      	subs	r6, r6, r3
 8003250:	1ad3      	subs	r3, r2, r3
 8003252:	9309      	str	r3, [sp, #36]	@ 0x24
 8003254:	9b0a      	ldr	r3, [sp, #40]	@ 0x28
 8003256:	b1f3      	cbz	r3, 8003296 <_dtoa_r+0x79e>
 8003258:	9b0b      	ldr	r3, [sp, #44]	@ 0x2c
 800325a:	2b00      	cmp	r3, #0
 800325c:	f000 80b7 	beq.w	80033ce <_dtoa_r+0x8d6>
 8003260:	b18c      	cbz	r4, 8003286 <_dtoa_r+0x78e>
 8003262:	4629      	mov	r1, r5
 8003264:	4622      	mov	r2, r4
 8003266:	4658      	mov	r0, fp
 8003268:	f000 fcbe 	bl	8003be8 <__pow5mult>
 800326c:	464a      	mov	r2, r9
 800326e:	4601      	mov	r1, r0
 8003270:	4605      	mov	r5, r0
 8003272:	4658      	mov	r0, fp
 8003274:	f000 fc10 	bl	8003a98 <__multiply>
 8003278:	4649      	mov	r1, r9
 800327a:	9004      	str	r0, [sp, #16]
 800327c:	4658      	mov	r0, fp
 800327e:	f000 fb41 	bl	8003904 <_Bfree>
 8003282:	9b04      	ldr	r3, [sp, #16]
 8003284:	4699      	mov	r9, r3
 8003286:	9b0a      	ldr	r3, [sp, #40]	@ 0x28
 8003288:	1b1a      	subs	r2, r3, r4
 800328a:	d004      	beq.n	8003296 <_dtoa_r+0x79e>
 800328c:	4649      	mov	r1, r9
 800328e:	4658      	mov	r0, fp
 8003290:	f000 fcaa 	bl	8003be8 <__pow5mult>
 8003294:	4681      	mov	r9, r0
 8003296:	2101      	movs	r1, #1
 8003298:	4658      	mov	r0, fp
 800329a:	f000 fbe7 	bl	8003a6c <__i2b>
 800329e:	9b0e      	ldr	r3, [sp, #56]	@ 0x38
 80032a0:	4604      	mov	r4, r0
 80032a2:	2b00      	cmp	r3, #0
 80032a4:	f000 81c9 	beq.w	800363a <_dtoa_r+0xb42>
 80032a8:	461a      	mov	r2, r3
 80032aa:	4601      	mov	r1, r0
 80032ac:	4658      	mov	r0, fp
 80032ae:	f000 fc9b 	bl	8003be8 <__pow5mult>
 80032b2:	9b20      	ldr	r3, [sp, #128]	@ 0x80
 80032b4:	4604      	mov	r4, r0
 80032b6:	2b01      	cmp	r3, #1
 80032b8:	f300 808f 	bgt.w	80033da <_dtoa_r+0x8e2>
 80032bc:	9b02      	ldr	r3, [sp, #8]
 80032be:	2b00      	cmp	r3, #0
 80032c0:	f040 8087 	bne.w	80033d2 <_dtoa_r+0x8da>
 80032c4:	9b03      	ldr	r3, [sp, #12]
 80032c6:	f3c3 0313 	ubfx	r3, r3, #0, #20
 80032ca:	2b00      	cmp	r3, #0
 80032cc:	f040 8083 	bne.w	80033d6 <_dtoa_r+0x8de>
 80032d0:	9b03      	ldr	r3, [sp, #12]
 80032d2:	f023 4300 	bic.w	r3, r3, #2147483648	@ 0x80000000
 80032d6:	0d1b      	lsrs	r3, r3, #20
 80032d8:	051b      	lsls	r3, r3, #20
 80032da:	b12b      	cbz	r3, 80032e8 <_dtoa_r+0x7f0>
 80032dc:	9b09      	ldr	r3, [sp, #36]	@ 0x24
 80032de:	f108 0801 	add.w	r8, r8, #1
 80032e2:	3301      	adds	r3, #1
 80032e4:	9309      	str	r3, [sp, #36]	@ 0x24
 80032e6:	2301      	movs	r3, #1
 80032e8:	930a      	str	r3, [sp, #40]	@ 0x28
 80032ea:	9b0e      	ldr	r3, [sp, #56]	@ 0x38
 80032ec:	2b00      	cmp	r3, #0
 80032ee:	f000 81aa 	beq.w	8003646 <_dtoa_r+0xb4e>
 80032f2:	6923      	ldr	r3, [r4, #16]
 80032f4:	eb04 0383 	add.w	r3, r4, r3, lsl #2
 80032f8:	6918      	ldr	r0, [r3, #16]
 80032fa:	f000 fb6b 	bl	80039d4 <__hi0bits>
 80032fe:	f1c0 0020 	rsb	r0, r0, #32
 8003302:	9b09      	ldr	r3, [sp, #36]	@ 0x24
 8003304:	4418      	add	r0, r3
 8003306:	f010 001f 	ands.w	r0, r0, #31
 800330a:	d071      	beq.n	80033f0 <_dtoa_r+0x8f8>
 800330c:	f1c0 0320 	rsb	r3, r0, #32
 8003310:	2b04      	cmp	r3, #4
 8003312:	dd65      	ble.n	80033e0 <_dtoa_r+0x8e8>
 8003314:	9b09      	ldr	r3, [sp, #36]	@ 0x24
 8003316:	f1c0 001c 	rsb	r0, r0, #28
 800331a:	4403      	add	r3, r0
 800331c:	4480      	add	r8, r0
 800331e:	4406      	add	r6, r0
 8003320:	9309      	str	r3, [sp, #36]	@ 0x24
 8003322:	f1b8 0f00 	cmp.w	r8, #0
 8003326:	dd05      	ble.n	8003334 <_dtoa_r+0x83c>
 8003328:	4649      	mov	r1, r9
 800332a:	4642      	mov	r2, r8
 800332c:	4658      	mov	r0, fp
 800332e:	f000 fcb5 	bl	8003c9c <__lshift>
 8003332:	4681      	mov	r9, r0
 8003334:	9b09      	ldr	r3, [sp, #36]	@ 0x24
 8003336:	2b00      	cmp	r3, #0
 8003338:	dd05      	ble.n	8003346 <_dtoa_r+0x84e>
 800333a:	4621      	mov	r1, r4
 800333c:	461a      	mov	r2, r3
 800333e:	4658      	mov	r0, fp
 8003340:	f000 fcac 	bl	8003c9c <__lshift>
 8003344:	4604      	mov	r4, r0
 8003346:	9b0f      	ldr	r3, [sp, #60]	@ 0x3c
 8003348:	2b00      	cmp	r3, #0
 800334a:	d053      	beq.n	80033f4 <_dtoa_r+0x8fc>
 800334c:	4621      	mov	r1, r4
 800334e:	4648      	mov	r0, r9
 8003350:	f000 fd10 	bl	8003d74 <__mcmp>
 8003354:	2800      	cmp	r0, #0
 8003356:	da4d      	bge.n	80033f4 <_dtoa_r+0x8fc>
 8003358:	1e7b      	subs	r3, r7, #1
 800335a:	4649      	mov	r1, r9
 800335c:	9304      	str	r3, [sp, #16]
 800335e:	220a      	movs	r2, #10
 8003360:	2300      	movs	r3, #0
 8003362:	4658      	mov	r0, fp
 8003364:	f000 faf0 	bl	8003948 <__multadd>
 8003368:	9b0b      	ldr	r3, [sp, #44]	@ 0x2c
 800336a:	4681      	mov	r9, r0
 800336c:	2b00      	cmp	r3, #0
 800336e:	f000 816c 	beq.w	800364a <_dtoa_r+0xb52>
 8003372:	2300      	movs	r3, #0
 8003374:	4629      	mov	r1, r5
 8003376:	220a      	movs	r2, #10
 8003378:	4658      	mov	r0, fp
 800337a:	f000 fae5 	bl	8003948 <__multadd>
 800337e:	9b08      	ldr	r3, [sp, #32]
 8003380:	4605      	mov	r5, r0
 8003382:	2b00      	cmp	r3, #0
 8003384:	dc61      	bgt.n	800344a <_dtoa_r+0x952>
 8003386:	9b20      	ldr	r3, [sp, #128]	@ 0x80
 8003388:	2b02      	cmp	r3, #2
 800338a:	dc3b      	bgt.n	8003404 <_dtoa_r+0x90c>
 800338c:	e05d      	b.n	800344a <_dtoa_r+0x952>
 800338e:	9b14      	ldr	r3, [sp, #80]	@ 0x50
 8003390:	f1c3 0336 	rsb	r3, r3, #54	@ 0x36
 8003394:	e746      	b.n	8003224 <_dtoa_r+0x72c>
 8003396:	9b07      	ldr	r3, [sp, #28]
 8003398:	1e5c      	subs	r4, r3, #1
 800339a:	9b0a      	ldr	r3, [sp, #40]	@ 0x28
 800339c:	42a3      	cmp	r3, r4
 800339e:	bfbf      	itttt	lt
 80033a0:	9b0a      	ldrlt	r3, [sp, #40]	@ 0x28
 80033a2:	9a0e      	ldrlt	r2, [sp, #56]	@ 0x38
 80033a4:	1ae3      	sublt	r3, r4, r3
 80033a6:	18d2      	addlt	r2, r2, r3
 80033a8:	bfa8      	it	ge
 80033aa:	1b1c      	subge	r4, r3, r4
 80033ac:	9b07      	ldr	r3, [sp, #28]
 80033ae:	bfbe      	ittt	lt
 80033b0:	940a      	strlt	r4, [sp, #40]	@ 0x28
 80033b2:	920e      	strlt	r2, [sp, #56]	@ 0x38
 80033b4:	2400      	movlt	r4, #0
 80033b6:	2b00      	cmp	r3, #0
 80033b8:	bfb5      	itete	lt
 80033ba:	eba8 0603 	sublt.w	r6, r8, r3
 80033be:	4646      	movge	r6, r8
 80033c0:	2300      	movlt	r3, #0
 80033c2:	9b07      	ldrge	r3, [sp, #28]
 80033c4:	e730      	b.n	8003228 <_dtoa_r+0x730>
 80033c6:	4646      	mov	r6, r8
 80033c8:	9c0a      	ldr	r4, [sp, #40]	@ 0x28
 80033ca:	9d0b      	ldr	r5, [sp, #44]	@ 0x2c
 80033cc:	e735      	b.n	800323a <_dtoa_r+0x742>
 80033ce:	9a0a      	ldr	r2, [sp, #40]	@ 0x28
 80033d0:	e75c      	b.n	800328c <_dtoa_r+0x794>
 80033d2:	2300      	movs	r3, #0
 80033d4:	e788      	b.n	80032e8 <_dtoa_r+0x7f0>
 80033d6:	9b02      	ldr	r3, [sp, #8]
 80033d8:	e786      	b.n	80032e8 <_dtoa_r+0x7f0>
 80033da:	2300      	movs	r3, #0
 80033dc:	930a      	str	r3, [sp, #40]	@ 0x28
 80033de:	e788      	b.n	80032f2 <_dtoa_r+0x7fa>
 80033e0:	d09f      	beq.n	8003322 <_dtoa_r+0x82a>
 80033e2:	9a09      	ldr	r2, [sp, #36]	@ 0x24
 80033e4:	331c      	adds	r3, #28
 80033e6:	441a      	add	r2, r3
 80033e8:	4498      	add	r8, r3
 80033ea:	441e      	add	r6, r3
 80033ec:	9209      	str	r2, [sp, #36]	@ 0x24
 80033ee:	e798      	b.n	8003322 <_dtoa_r+0x82a>
 80033f0:	4603      	mov	r3, r0
 80033f2:	e7f6      	b.n	80033e2 <_dtoa_r+0x8ea>
 80033f4:	9b07      	ldr	r3, [sp, #28]
 80033f6:	9704      	str	r7, [sp, #16]
 80033f8:	2b00      	cmp	r3, #0
 80033fa:	dc20      	bgt.n	800343e <_dtoa_r+0x946>
 80033fc:	9308      	str	r3, [sp, #32]
 80033fe:	9b20      	ldr	r3, [sp, #128]	@ 0x80
 8003400:	2b02      	cmp	r3, #2
 8003402:	dd1e      	ble.n	8003442 <_dtoa_r+0x94a>
 8003404:	9b08      	ldr	r3, [sp, #32]
 8003406:	2b00      	cmp	r3, #0
 8003408:	f47f aebc 	bne.w	8003184 <_dtoa_r+0x68c>
 800340c:	4621      	mov	r1, r4
 800340e:	2205      	movs	r2, #5
 8003410:	4658      	mov	r0, fp
 8003412:	f000 fa99 	bl	8003948 <__multadd>
 8003416:	4601      	mov	r1, r0
 8003418:	4604      	mov	r4, r0
 800341a:	4648      	mov	r0, r9
 800341c:	f000 fcaa 	bl	8003d74 <__mcmp>
 8003420:	2800      	cmp	r0, #0
 8003422:	f77f aeaf 	ble.w	8003184 <_dtoa_r+0x68c>
 8003426:	2331      	movs	r3, #49	@ 0x31
 8003428:	4656      	mov	r6, sl
 800342a:	f806 3b01 	strb.w	r3, [r6], #1
 800342e:	9b04      	ldr	r3, [sp, #16]
 8003430:	3301      	adds	r3, #1
 8003432:	9304      	str	r3, [sp, #16]
 8003434:	e6aa      	b.n	800318c <_dtoa_r+0x694>
 8003436:	9c07      	ldr	r4, [sp, #28]
 8003438:	9704      	str	r7, [sp, #16]
 800343a:	4625      	mov	r5, r4
 800343c:	e7f3      	b.n	8003426 <_dtoa_r+0x92e>
 800343e:	9b07      	ldr	r3, [sp, #28]
 8003440:	9308      	str	r3, [sp, #32]
 8003442:	9b0b      	ldr	r3, [sp, #44]	@ 0x2c
 8003444:	2b00      	cmp	r3, #0
 8003446:	f000 8104 	beq.w	8003652 <_dtoa_r+0xb5a>
 800344a:	2e00      	cmp	r6, #0
 800344c:	dd05      	ble.n	800345a <_dtoa_r+0x962>
 800344e:	4629      	mov	r1, r5
 8003450:	4632      	mov	r2, r6
 8003452:	4658      	mov	r0, fp
 8003454:	f000 fc22 	bl	8003c9c <__lshift>
 8003458:	4605      	mov	r5, r0
 800345a:	9b0a      	ldr	r3, [sp, #40]	@ 0x28
 800345c:	2b00      	cmp	r3, #0
 800345e:	d05a      	beq.n	8003516 <_dtoa_r+0xa1e>
 8003460:	4658      	mov	r0, fp
 8003462:	6869      	ldr	r1, [r5, #4]
 8003464:	f000 fa0e 	bl	8003884 <_Balloc>
 8003468:	4606      	mov	r6, r0
 800346a:	b928      	cbnz	r0, 8003478 <_dtoa_r+0x980>
 800346c:	4602      	mov	r2, r0
 800346e:	f240 21ef 	movw	r1, #751	@ 0x2ef
 8003472:	4b83      	ldr	r3, [pc, #524]	@ (8003680 <_dtoa_r+0xb88>)
 8003474:	f7ff bb54 	b.w	8002b20 <_dtoa_r+0x28>
 8003478:	692a      	ldr	r2, [r5, #16]
 800347a:	f105 010c 	add.w	r1, r5, #12
 800347e:	3202      	adds	r2, #2
 8003480:	0092      	lsls	r2, r2, #2
 8003482:	300c      	adds	r0, #12
 8003484:	f001 f80a 	bl	800449c <memcpy>
 8003488:	2201      	movs	r2, #1
 800348a:	4631      	mov	r1, r6
 800348c:	4658      	mov	r0, fp
 800348e:	f000 fc05 	bl	8003c9c <__lshift>
 8003492:	462f      	mov	r7, r5
 8003494:	4605      	mov	r5, r0
 8003496:	f10a 0301 	add.w	r3, sl, #1
 800349a:	9307      	str	r3, [sp, #28]
 800349c:	9b08      	ldr	r3, [sp, #32]
 800349e:	4453      	add	r3, sl
 80034a0:	930b      	str	r3, [sp, #44]	@ 0x2c
 80034a2:	9b02      	ldr	r3, [sp, #8]
 80034a4:	f003 0301 	and.w	r3, r3, #1
 80034a8:	930a      	str	r3, [sp, #40]	@ 0x28
 80034aa:	9b07      	ldr	r3, [sp, #28]
 80034ac:	4621      	mov	r1, r4
 80034ae:	3b01      	subs	r3, #1
 80034b0:	4648      	mov	r0, r9
 80034b2:	9302      	str	r3, [sp, #8]
 80034b4:	f7ff fa95 	bl	80029e2 <quorem>
 80034b8:	4639      	mov	r1, r7
 80034ba:	9008      	str	r0, [sp, #32]
 80034bc:	f100 0830 	add.w	r8, r0, #48	@ 0x30
 80034c0:	4648      	mov	r0, r9
 80034c2:	f000 fc57 	bl	8003d74 <__mcmp>
 80034c6:	462a      	mov	r2, r5
 80034c8:	9009      	str	r0, [sp, #36]	@ 0x24
 80034ca:	4621      	mov	r1, r4
 80034cc:	4658      	mov	r0, fp
 80034ce:	f000 fc6d 	bl	8003dac <__mdiff>
 80034d2:	68c2      	ldr	r2, [r0, #12]
 80034d4:	4606      	mov	r6, r0
 80034d6:	bb02      	cbnz	r2, 800351a <_dtoa_r+0xa22>
 80034d8:	4601      	mov	r1, r0
 80034da:	4648      	mov	r0, r9
 80034dc:	f000 fc4a 	bl	8003d74 <__mcmp>
 80034e0:	4602      	mov	r2, r0
 80034e2:	4631      	mov	r1, r6
 80034e4:	4658      	mov	r0, fp
 80034e6:	920c      	str	r2, [sp, #48]	@ 0x30
 80034e8:	f000 fa0c 	bl	8003904 <_Bfree>
 80034ec:	9b20      	ldr	r3, [sp, #128]	@ 0x80
 80034ee:	9a0c      	ldr	r2, [sp, #48]	@ 0x30
 80034f0:	9e07      	ldr	r6, [sp, #28]
 80034f2:	ea43 0102 	orr.w	r1, r3, r2
 80034f6:	9b0a      	ldr	r3, [sp, #40]	@ 0x28
 80034f8:	4319      	orrs	r1, r3
 80034fa:	d110      	bne.n	800351e <_dtoa_r+0xa26>
 80034fc:	f1b8 0f39 	cmp.w	r8, #57	@ 0x39
 8003500:	d029      	beq.n	8003556 <_dtoa_r+0xa5e>
 8003502:	9b09      	ldr	r3, [sp, #36]	@ 0x24
 8003504:	2b00      	cmp	r3, #0
 8003506:	dd02      	ble.n	800350e <_dtoa_r+0xa16>
 8003508:	9b08      	ldr	r3, [sp, #32]
 800350a:	f103 0831 	add.w	r8, r3, #49	@ 0x31
 800350e:	9b02      	ldr	r3, [sp, #8]
 8003510:	f883 8000 	strb.w	r8, [r3]
 8003514:	e63b      	b.n	800318e <_dtoa_r+0x696>
 8003516:	4628      	mov	r0, r5
 8003518:	e7bb      	b.n	8003492 <_dtoa_r+0x99a>
 800351a:	2201      	movs	r2, #1
 800351c:	e7e1      	b.n	80034e2 <_dtoa_r+0x9ea>
 800351e:	9b09      	ldr	r3, [sp, #36]	@ 0x24
 8003520:	2b00      	cmp	r3, #0
 8003522:	db04      	blt.n	800352e <_dtoa_r+0xa36>
 8003524:	9920      	ldr	r1, [sp, #128]	@ 0x80
 8003526:	430b      	orrs	r3, r1
 8003528:	990a      	ldr	r1, [sp, #40]	@ 0x28
 800352a:	430b      	orrs	r3, r1
 800352c:	d120      	bne.n	8003570 <_dtoa_r+0xa78>
 800352e:	2a00      	cmp	r2, #0
 8003530:	dded      	ble.n	800350e <_dtoa_r+0xa16>
 8003532:	4649      	mov	r1, r9
 8003534:	2201      	movs	r2, #1
 8003536:	4658      	mov	r0, fp
 8003538:	f000 fbb0 	bl	8003c9c <__lshift>
 800353c:	4621      	mov	r1, r4
 800353e:	4681      	mov	r9, r0
 8003540:	f000 fc18 	bl	8003d74 <__mcmp>
 8003544:	2800      	cmp	r0, #0
 8003546:	dc03      	bgt.n	8003550 <_dtoa_r+0xa58>
 8003548:	d1e1      	bne.n	800350e <_dtoa_r+0xa16>
 800354a:	f018 0f01 	tst.w	r8, #1
 800354e:	d0de      	beq.n	800350e <_dtoa_r+0xa16>
 8003550:	f1b8 0f39 	cmp.w	r8, #57	@ 0x39
 8003554:	d1d8      	bne.n	8003508 <_dtoa_r+0xa10>
 8003556:	2339      	movs	r3, #57	@ 0x39
 8003558:	9a02      	ldr	r2, [sp, #8]
 800355a:	7013      	strb	r3, [r2, #0]
 800355c:	4633      	mov	r3, r6
 800355e:	461e      	mov	r6, r3
 8003560:	f816 2c01 	ldrb.w	r2, [r6, #-1]
 8003564:	3b01      	subs	r3, #1
 8003566:	2a39      	cmp	r2, #57	@ 0x39
 8003568:	d052      	beq.n	8003610 <_dtoa_r+0xb18>
 800356a:	3201      	adds	r2, #1
 800356c:	701a      	strb	r2, [r3, #0]
 800356e:	e60e      	b.n	800318e <_dtoa_r+0x696>
 8003570:	2a00      	cmp	r2, #0
 8003572:	dd07      	ble.n	8003584 <_dtoa_r+0xa8c>
 8003574:	f1b8 0f39 	cmp.w	r8, #57	@ 0x39
 8003578:	d0ed      	beq.n	8003556 <_dtoa_r+0xa5e>
 800357a:	9a02      	ldr	r2, [sp, #8]
 800357c:	f108 0301 	add.w	r3, r8, #1
 8003580:	7013      	strb	r3, [r2, #0]
 8003582:	e604      	b.n	800318e <_dtoa_r+0x696>
 8003584:	9b07      	ldr	r3, [sp, #28]
 8003586:	9a07      	ldr	r2, [sp, #28]
 8003588:	f803 8c01 	strb.w	r8, [r3, #-1]
 800358c:	9b0b      	ldr	r3, [sp, #44]	@ 0x2c
 800358e:	4293      	cmp	r3, r2
 8003590:	d028      	beq.n	80035e4 <_dtoa_r+0xaec>
 8003592:	4649      	mov	r1, r9
 8003594:	2300      	movs	r3, #0
 8003596:	220a      	movs	r2, #10
 8003598:	4658      	mov	r0, fp
 800359a:	f000 f9d5 	bl	8003948 <__multadd>
 800359e:	42af      	cmp	r7, r5
 80035a0:	4681      	mov	r9, r0
 80035a2:	f04f 0300 	mov.w	r3, #0
 80035a6:	f04f 020a 	mov.w	r2, #10
 80035aa:	4639      	mov	r1, r7
 80035ac:	4658      	mov	r0, fp
 80035ae:	d107      	bne.n	80035c0 <_dtoa_r+0xac8>
 80035b0:	f000 f9ca 	bl	8003948 <__multadd>
 80035b4:	4607      	mov	r7, r0
 80035b6:	4605      	mov	r5, r0
 80035b8:	9b07      	ldr	r3, [sp, #28]
 80035ba:	3301      	adds	r3, #1
 80035bc:	9307      	str	r3, [sp, #28]
 80035be:	e774      	b.n	80034aa <_dtoa_r+0x9b2>
 80035c0:	f000 f9c2 	bl	8003948 <__multadd>
 80035c4:	4629      	mov	r1, r5
 80035c6:	4607      	mov	r7, r0
 80035c8:	2300      	movs	r3, #0
 80035ca:	220a      	movs	r2, #10
 80035cc:	4658      	mov	r0, fp
 80035ce:	f000 f9bb 	bl	8003948 <__multadd>
 80035d2:	4605      	mov	r5, r0
 80035d4:	e7f0      	b.n	80035b8 <_dtoa_r+0xac0>
 80035d6:	9b08      	ldr	r3, [sp, #32]
 80035d8:	2700      	movs	r7, #0
 80035da:	2b00      	cmp	r3, #0
 80035dc:	bfcc      	ite	gt
 80035de:	461e      	movgt	r6, r3
 80035e0:	2601      	movle	r6, #1
 80035e2:	4456      	add	r6, sl
 80035e4:	4649      	mov	r1, r9
 80035e6:	2201      	movs	r2, #1
 80035e8:	4658      	mov	r0, fp
 80035ea:	f000 fb57 	bl	8003c9c <__lshift>
 80035ee:	4621      	mov	r1, r4
 80035f0:	4681      	mov	r9, r0
 80035f2:	f000 fbbf 	bl	8003d74 <__mcmp>
 80035f6:	2800      	cmp	r0, #0
 80035f8:	dcb0      	bgt.n	800355c <_dtoa_r+0xa64>
 80035fa:	d102      	bne.n	8003602 <_dtoa_r+0xb0a>
 80035fc:	f018 0f01 	tst.w	r8, #1
 8003600:	d1ac      	bne.n	800355c <_dtoa_r+0xa64>
 8003602:	4633      	mov	r3, r6
 8003604:	461e      	mov	r6, r3
 8003606:	f813 2d01 	ldrb.w	r2, [r3, #-1]!
 800360a:	2a30      	cmp	r2, #48	@ 0x30
 800360c:	d0fa      	beq.n	8003604 <_dtoa_r+0xb0c>
 800360e:	e5be      	b.n	800318e <_dtoa_r+0x696>
 8003610:	459a      	cmp	sl, r3
 8003612:	d1a4      	bne.n	800355e <_dtoa_r+0xa66>
 8003614:	9b04      	ldr	r3, [sp, #16]
 8003616:	3301      	adds	r3, #1
 8003618:	9304      	str	r3, [sp, #16]
 800361a:	2331      	movs	r3, #49	@ 0x31
 800361c:	f88a 3000 	strb.w	r3, [sl]
 8003620:	e5b5      	b.n	800318e <_dtoa_r+0x696>
 8003622:	9b24      	ldr	r3, [sp, #144]	@ 0x90
 8003624:	f8df a05c 	ldr.w	sl, [pc, #92]	@ 8003684 <_dtoa_r+0xb8c>
 8003628:	b11b      	cbz	r3, 8003632 <_dtoa_r+0xb3a>
 800362a:	f10a 0308 	add.w	r3, sl, #8
 800362e:	9a24      	ldr	r2, [sp, #144]	@ 0x90
 8003630:	6013      	str	r3, [r2, #0]
 8003632:	4650      	mov	r0, sl
 8003634:	b017      	add	sp, #92	@ 0x5c
 8003636:	e8bd 8ff0 	ldmia.w	sp!, {r4, r5, r6, r7, r8, r9, sl, fp, pc}
 800363a:	9b20      	ldr	r3, [sp, #128]	@ 0x80
 800363c:	2b01      	cmp	r3, #1
 800363e:	f77f ae3d 	ble.w	80032bc <_dtoa_r+0x7c4>
 8003642:	9b0e      	ldr	r3, [sp, #56]	@ 0x38
 8003644:	930a      	str	r3, [sp, #40]	@ 0x28
 8003646:	2001      	movs	r0, #1
 8003648:	e65b      	b.n	8003302 <_dtoa_r+0x80a>
 800364a:	9b08      	ldr	r3, [sp, #32]
 800364c:	2b00      	cmp	r3, #0
 800364e:	f77f aed6 	ble.w	80033fe <_dtoa_r+0x906>
 8003652:	4656      	mov	r6, sl
 8003654:	4621      	mov	r1, r4
 8003656:	4648      	mov	r0, r9
 8003658:	f7ff f9c3 	bl	80029e2 <quorem>
 800365c:	f100 0830 	add.w	r8, r0, #48	@ 0x30
 8003660:	9b08      	ldr	r3, [sp, #32]
 8003662:	f806 8b01 	strb.w	r8, [r6], #1
 8003666:	eba6 020a 	sub.w	r2, r6, sl
 800366a:	4293      	cmp	r3, r2
 800366c:	ddb3      	ble.n	80035d6 <_dtoa_r+0xade>
 800366e:	4649      	mov	r1, r9
 8003670:	2300      	movs	r3, #0
 8003672:	220a      	movs	r2, #10
 8003674:	4658      	mov	r0, fp
 8003676:	f000 f967 	bl	8003948 <__multadd>
 800367a:	4681      	mov	r9, r0
 800367c:	e7ea      	b.n	8003654 <_dtoa_r+0xb5c>
 800367e:	bf00      	nop
 8003680:	08004832 	.word	0x08004832
 8003684:	080047b6 	.word	0x080047b6

08003688 <_free_r>:
 8003688:	b538      	push	{r3, r4, r5, lr}
 800368a:	4605      	mov	r5, r0
 800368c:	2900      	cmp	r1, #0
 800368e:	d040      	beq.n	8003712 <_free_r+0x8a>
 8003690:	f851 3c04 	ldr.w	r3, [r1, #-4]
 8003694:	1f0c      	subs	r4, r1, #4
 8003696:	2b00      	cmp	r3, #0
 8003698:	bfb8      	it	lt
 800369a:	18e4      	addlt	r4, r4, r3
 800369c:	f000 f8e6 	bl	800386c <__malloc_lock>
 80036a0:	4a1c      	ldr	r2, [pc, #112]	@ (8003714 <_free_r+0x8c>)
 80036a2:	6813      	ldr	r3, [r2, #0]
 80036a4:	b933      	cbnz	r3, 80036b4 <_free_r+0x2c>
 80036a6:	6063      	str	r3, [r4, #4]
 80036a8:	6014      	str	r4, [r2, #0]
 80036aa:	4628      	mov	r0, r5
 80036ac:	e8bd 4038 	ldmia.w	sp!, {r3, r4, r5, lr}
 80036b0:	f000 b8e2 	b.w	8003878 <__malloc_unlock>
 80036b4:	42a3      	cmp	r3, r4
 80036b6:	d908      	bls.n	80036ca <_free_r+0x42>
 80036b8:	6820      	ldr	r0, [r4, #0]
 80036ba:	1821      	adds	r1, r4, r0
 80036bc:	428b      	cmp	r3, r1
 80036be:	bf01      	itttt	eq
 80036c0:	6819      	ldreq	r1, [r3, #0]
 80036c2:	685b      	ldreq	r3, [r3, #4]
 80036c4:	1809      	addeq	r1, r1, r0
 80036c6:	6021      	streq	r1, [r4, #0]
 80036c8:	e7ed      	b.n	80036a6 <_free_r+0x1e>
 80036ca:	461a      	mov	r2, r3
 80036cc:	685b      	ldr	r3, [r3, #4]
 80036ce:	b10b      	cbz	r3, 80036d4 <_free_r+0x4c>
 80036d0:	42a3      	cmp	r3, r4
 80036d2:	d9fa      	bls.n	80036ca <_free_r+0x42>
 80036d4:	6811      	ldr	r1, [r2, #0]
 80036d6:	1850      	adds	r0, r2, r1
 80036d8:	42a0      	cmp	r0, r4
 80036da:	d10b      	bne.n	80036f4 <_free_r+0x6c>
 80036dc:	6820      	ldr	r0, [r4, #0]
 80036de:	4401      	add	r1, r0
 80036e0:	1850      	adds	r0, r2, r1
 80036e2:	4283      	cmp	r3, r0
 80036e4:	6011      	str	r1, [r2, #0]
 80036e6:	d1e0      	bne.n	80036aa <_free_r+0x22>
 80036e8:	6818      	ldr	r0, [r3, #0]
 80036ea:	685b      	ldr	r3, [r3, #4]
 80036ec:	4408      	add	r0, r1
 80036ee:	6010      	str	r0, [r2, #0]
 80036f0:	6053      	str	r3, [r2, #4]
 80036f2:	e7da      	b.n	80036aa <_free_r+0x22>
 80036f4:	d902      	bls.n	80036fc <_free_r+0x74>
 80036f6:	230c      	movs	r3, #12
 80036f8:	602b      	str	r3, [r5, #0]
 80036fa:	e7d6      	b.n	80036aa <_free_r+0x22>
 80036fc:	6820      	ldr	r0, [r4, #0]
 80036fe:	1821      	adds	r1, r4, r0
 8003700:	428b      	cmp	r3, r1
 8003702:	bf01      	itttt	eq
 8003704:	6819      	ldreq	r1, [r3, #0]
 8003706:	685b      	ldreq	r3, [r3, #4]
 8003708:	1809      	addeq	r1, r1, r0
 800370a:	6021      	streq	r1, [r4, #0]
 800370c:	6063      	str	r3, [r4, #4]
 800370e:	6054      	str	r4, [r2, #4]
 8003710:	e7cb      	b.n	80036aa <_free_r+0x22>
 8003712:	bd38      	pop	{r3, r4, r5, pc}
 8003714:	20000564 	.word	0x20000564

08003718 <malloc>:
 8003718:	4b02      	ldr	r3, [pc, #8]	@ (8003724 <malloc+0xc>)
 800371a:	4601      	mov	r1, r0
 800371c:	6818      	ldr	r0, [r3, #0]
 800371e:	f000 b825 	b.w	800376c <_malloc_r>
 8003722:	bf00      	nop
 8003724:	20000010 	.word	0x20000010

08003728 <sbrk_aligned>:
 8003728:	b570      	push	{r4, r5, r6, lr}
 800372a:	4e0f      	ldr	r6, [pc, #60]	@ (8003768 <sbrk_aligned+0x40>)
 800372c:	460c      	mov	r4, r1
 800372e:	6831      	ldr	r1, [r6, #0]
 8003730:	4605      	mov	r5, r0
 8003732:	b911      	cbnz	r1, 800373a <sbrk_aligned+0x12>
 8003734:	f000 fea2 	bl	800447c <_sbrk_r>
 8003738:	6030      	str	r0, [r6, #0]
 800373a:	4621      	mov	r1, r4
 800373c:	4628      	mov	r0, r5
 800373e:	f000 fe9d 	bl	800447c <_sbrk_r>
 8003742:	1c43      	adds	r3, r0, #1
 8003744:	d103      	bne.n	800374e <sbrk_aligned+0x26>
 8003746:	f04f 34ff 	mov.w	r4, #4294967295
 800374a:	4620      	mov	r0, r4
 800374c:	bd70      	pop	{r4, r5, r6, pc}
 800374e:	1cc4      	adds	r4, r0, #3
 8003750:	f024 0403 	bic.w	r4, r4, #3
 8003754:	42a0      	cmp	r0, r4
 8003756:	d0f8      	beq.n	800374a <sbrk_aligned+0x22>
 8003758:	1a21      	subs	r1, r4, r0
 800375a:	4628      	mov	r0, r5
 800375c:	f000 fe8e 	bl	800447c <_sbrk_r>
 8003760:	3001      	adds	r0, #1
 8003762:	d1f2      	bne.n	800374a <sbrk_aligned+0x22>
 8003764:	e7ef      	b.n	8003746 <sbrk_aligned+0x1e>
 8003766:	bf00      	nop
 8003768:	20000560 	.word	0x20000560

0800376c <_malloc_r>:
 800376c:	e92d 43f8 	stmdb	sp!, {r3, r4, r5, r6, r7, r8, r9, lr}
 8003770:	1ccd      	adds	r5, r1, #3
 8003772:	f025 0503 	bic.w	r5, r5, #3
 8003776:	3508      	adds	r5, #8
 8003778:	2d0c      	cmp	r5, #12
 800377a:	bf38      	it	cc
 800377c:	250c      	movcc	r5, #12
 800377e:	2d00      	cmp	r5, #0
 8003780:	4606      	mov	r6, r0
 8003782:	db01      	blt.n	8003788 <_malloc_r+0x1c>
 8003784:	42a9      	cmp	r1, r5
 8003786:	d904      	bls.n	8003792 <_malloc_r+0x26>
 8003788:	230c      	movs	r3, #12
 800378a:	6033      	str	r3, [r6, #0]
 800378c:	2000      	movs	r0, #0
 800378e:	e8bd 83f8 	ldmia.w	sp!, {r3, r4, r5, r6, r7, r8, r9, pc}
 8003792:	f8df 80d4 	ldr.w	r8, [pc, #212]	@ 8003868 <_malloc_r+0xfc>
 8003796:	f000 f869 	bl	800386c <__malloc_lock>
 800379a:	f8d8 3000 	ldr.w	r3, [r8]
 800379e:	461c      	mov	r4, r3
 80037a0:	bb44      	cbnz	r4, 80037f4 <_malloc_r+0x88>
 80037a2:	4629      	mov	r1, r5
 80037a4:	4630      	mov	r0, r6
 80037a6:	f7ff ffbf 	bl	8003728 <sbrk_aligned>
 80037aa:	1c43      	adds	r3, r0, #1
 80037ac:	4604      	mov	r4, r0
 80037ae:	d158      	bne.n	8003862 <_malloc_r+0xf6>
 80037b0:	f8d8 4000 	ldr.w	r4, [r8]
 80037b4:	4627      	mov	r7, r4
 80037b6:	2f00      	cmp	r7, #0
 80037b8:	d143      	bne.n	8003842 <_malloc_r+0xd6>
 80037ba:	2c00      	cmp	r4, #0
 80037bc:	d04b      	beq.n	8003856 <_malloc_r+0xea>
 80037be:	6823      	ldr	r3, [r4, #0]
 80037c0:	4639      	mov	r1, r7
 80037c2:	4630      	mov	r0, r6
 80037c4:	eb04 0903 	add.w	r9, r4, r3
 80037c8:	f000 fe58 	bl	800447c <_sbrk_r>
 80037cc:	4581      	cmp	r9, r0
 80037ce:	d142      	bne.n	8003856 <_malloc_r+0xea>
 80037d0:	6821      	ldr	r1, [r4, #0]
 80037d2:	4630      	mov	r0, r6
 80037d4:	1a6d      	subs	r5, r5, r1
 80037d6:	4629      	mov	r1, r5
 80037d8:	f7ff ffa6 	bl	8003728 <sbrk_aligned>
 80037dc:	3001      	adds	r0, #1
 80037de:	d03a      	beq.n	8003856 <_malloc_r+0xea>
 80037e0:	6823      	ldr	r3, [r4, #0]
 80037e2:	442b      	add	r3, r5
 80037e4:	6023      	str	r3, [r4, #0]
 80037e6:	f8d8 3000 	ldr.w	r3, [r8]
 80037ea:	685a      	ldr	r2, [r3, #4]
 80037ec:	bb62      	cbnz	r2, 8003848 <_malloc_r+0xdc>
 80037ee:	f8c8 7000 	str.w	r7, [r8]
 80037f2:	e00f      	b.n	8003814 <_malloc_r+0xa8>
 80037f4:	6822      	ldr	r2, [r4, #0]
 80037f6:	1b52      	subs	r2, r2, r5
 80037f8:	d420      	bmi.n	800383c <_malloc_r+0xd0>
 80037fa:	2a0b      	cmp	r2, #11
 80037fc:	d917      	bls.n	800382e <_malloc_r+0xc2>
 80037fe:	1961      	adds	r1, r4, r5
 8003800:	42a3      	cmp	r3, r4
 8003802:	6025      	str	r5, [r4, #0]
 8003804:	bf18      	it	ne
 8003806:	6059      	strne	r1, [r3, #4]
 8003808:	6863      	ldr	r3, [r4, #4]
 800380a:	bf08      	it	eq
 800380c:	f8c8 1000 	streq.w	r1, [r8]
 8003810:	5162      	str	r2, [r4, r5]
 8003812:	604b      	str	r3, [r1, #4]
 8003814:	4630      	mov	r0, r6
 8003816:	f000 f82f 	bl	8003878 <__malloc_unlock>
 800381a:	f104 000b 	add.w	r0, r4, #11
 800381e:	1d23      	adds	r3, r4, #4
 8003820:	f020 0007 	bic.w	r0, r0, #7
 8003824:	1ac2      	subs	r2, r0, r3
 8003826:	bf1c      	itt	ne
 8003828:	1a1b      	subne	r3, r3, r0
 800382a:	50a3      	strne	r3, [r4, r2]
 800382c:	e7af      	b.n	800378e <_malloc_r+0x22>
 800382e:	6862      	ldr	r2, [r4, #4]
 8003830:	42a3      	cmp	r3, r4
 8003832:	bf0c      	ite	eq
 8003834:	f8c8 2000 	streq.w	r2, [r8]
 8003838:	605a      	strne	r2, [r3, #4]
 800383a:	e7eb      	b.n	8003814 <_malloc_r+0xa8>
 800383c:	4623      	mov	r3, r4
 800383e:	6864      	ldr	r4, [r4, #4]
 8003840:	e7ae      	b.n	80037a0 <_malloc_r+0x34>
 8003842:	463c      	mov	r4, r7
 8003844:	687f      	ldr	r7, [r7, #4]
 8003846:	e7b6      	b.n	80037b6 <_malloc_r+0x4a>
 8003848:	461a      	mov	r2, r3
 800384a:	685b      	ldr	r3, [r3, #4]
 800384c:	42a3      	cmp	r3, r4
 800384e:	d1fb      	bne.n	8003848 <_malloc_r+0xdc>
 8003850:	2300      	movs	r3, #0
 8003852:	6053      	str	r3, [r2, #4]
 8003854:	e7de      	b.n	8003814 <_malloc_r+0xa8>
 8003856:	230c      	movs	r3, #12
 8003858:	4630      	mov	r0, r6
 800385a:	6033      	str	r3, [r6, #0]
 800385c:	f000 f80c 	bl	8003878 <__malloc_unlock>
 8003860:	e794      	b.n	800378c <_malloc_r+0x20>
 8003862:	6005      	str	r5, [r0, #0]
 8003864:	e7d6      	b.n	8003814 <_malloc_r+0xa8>
 8003866:	bf00      	nop
 8003868:	20000564 	.word	0x20000564

0800386c <__malloc_lock>:
 800386c:	4801      	ldr	r0, [pc, #4]	@ (8003874 <__malloc_lock+0x8>)
 800386e:	f7ff b8a8 	b.w	80029c2 <__retarget_lock_acquire_recursive>
 8003872:	bf00      	nop
 8003874:	2000055c 	.word	0x2000055c

08003878 <__malloc_unlock>:
 8003878:	4801      	ldr	r0, [pc, #4]	@ (8003880 <__malloc_unlock+0x8>)
 800387a:	f7ff b8a3 	b.w	80029c4 <__retarget_lock_release_recursive>
 800387e:	bf00      	nop
 8003880:	2000055c 	.word	0x2000055c

08003884 <_Balloc>:
 8003884:	b570      	push	{r4, r5, r6, lr}
 8003886:	69c6      	ldr	r6, [r0, #28]
 8003888:	4604      	mov	r4, r0
 800388a:	460d      	mov	r5, r1
 800388c:	b976      	cbnz	r6, 80038ac <_Balloc+0x28>
 800388e:	2010      	movs	r0, #16
 8003890:	f7ff ff42 	bl	8003718 <malloc>
 8003894:	4602      	mov	r2, r0
 8003896:	61e0      	str	r0, [r4, #28]
 8003898:	b920      	cbnz	r0, 80038a4 <_Balloc+0x20>
 800389a:	216b      	movs	r1, #107	@ 0x6b
 800389c:	4b17      	ldr	r3, [pc, #92]	@ (80038fc <_Balloc+0x78>)
 800389e:	4818      	ldr	r0, [pc, #96]	@ (8003900 <_Balloc+0x7c>)
 80038a0:	f000 fe0a 	bl	80044b8 <__assert_func>
 80038a4:	e9c0 6601 	strd	r6, r6, [r0, #4]
 80038a8:	6006      	str	r6, [r0, #0]
 80038aa:	60c6      	str	r6, [r0, #12]
 80038ac:	69e6      	ldr	r6, [r4, #28]
 80038ae:	68f3      	ldr	r3, [r6, #12]
 80038b0:	b183      	cbz	r3, 80038d4 <_Balloc+0x50>
 80038b2:	69e3      	ldr	r3, [r4, #28]
 80038b4:	68db      	ldr	r3, [r3, #12]
 80038b6:	f853 0025 	ldr.w	r0, [r3, r5, lsl #2]
 80038ba:	b9b8      	cbnz	r0, 80038ec <_Balloc+0x68>
 80038bc:	2101      	movs	r1, #1
 80038be:	fa01 f605 	lsl.w	r6, r1, r5
 80038c2:	1d72      	adds	r2, r6, #5
 80038c4:	4620      	mov	r0, r4
 80038c6:	0092      	lsls	r2, r2, #2
 80038c8:	f000 fe14 	bl	80044f4 <_calloc_r>
 80038cc:	b160      	cbz	r0, 80038e8 <_Balloc+0x64>
 80038ce:	e9c0 5601 	strd	r5, r6, [r0, #4]
 80038d2:	e00e      	b.n	80038f2 <_Balloc+0x6e>
 80038d4:	2221      	movs	r2, #33	@ 0x21
 80038d6:	2104      	movs	r1, #4
 80038d8:	4620      	mov	r0, r4
 80038da:	f000 fe0b 	bl	80044f4 <_calloc_r>
 80038de:	69e3      	ldr	r3, [r4, #28]
 80038e0:	60f0      	str	r0, [r6, #12]
 80038e2:	68db      	ldr	r3, [r3, #12]
 80038e4:	2b00      	cmp	r3, #0
 80038e6:	d1e4      	bne.n	80038b2 <_Balloc+0x2e>
 80038e8:	2000      	movs	r0, #0
 80038ea:	bd70      	pop	{r4, r5, r6, pc}
 80038ec:	6802      	ldr	r2, [r0, #0]
 80038ee:	f843 2025 	str.w	r2, [r3, r5, lsl #2]
 80038f2:	2300      	movs	r3, #0
 80038f4:	e9c0 3303 	strd	r3, r3, [r0, #12]
 80038f8:	e7f7      	b.n	80038ea <_Balloc+0x66>
 80038fa:	bf00      	nop
 80038fc:	080047c3 	.word	0x080047c3
 8003900:	08004843 	.word	0x08004843

08003904 <_Bfree>:
 8003904:	b570      	push	{r4, r5, r6, lr}
 8003906:	69c6      	ldr	r6, [r0, #28]
 8003908:	4605      	mov	r5, r0
 800390a:	460c      	mov	r4, r1
 800390c:	b976      	cbnz	r6, 800392c <_Bfree+0x28>
 800390e:	2010      	movs	r0, #16
 8003910:	f7ff ff02 	bl	8003718 <malloc>
 8003914:	4602      	mov	r2, r0
 8003916:	61e8      	str	r0, [r5, #28]
 8003918:	b920      	cbnz	r0, 8003924 <_Bfree+0x20>
 800391a:	218f      	movs	r1, #143	@ 0x8f
 800391c:	4b08      	ldr	r3, [pc, #32]	@ (8003940 <_Bfree+0x3c>)
 800391e:	4809      	ldr	r0, [pc, #36]	@ (8003944 <_Bfree+0x40>)
 8003920:	f000 fdca 	bl	80044b8 <__assert_func>
 8003924:	e9c0 6601 	strd	r6, r6, [r0, #4]
 8003928:	6006      	str	r6, [r0, #0]
 800392a:	60c6      	str	r6, [r0, #12]
 800392c:	b13c      	cbz	r4, 800393e <_Bfree+0x3a>
 800392e:	69eb      	ldr	r3, [r5, #28]
 8003930:	6862      	ldr	r2, [r4, #4]
 8003932:	68db      	ldr	r3, [r3, #12]
 8003934:	f853 1022 	ldr.w	r1, [r3, r2, lsl #2]
 8003938:	6021      	str	r1, [r4, #0]
 800393a:	f843 4022 	str.w	r4, [r3, r2, lsl #2]
 800393e:	bd70      	pop	{r4, r5, r6, pc}
 8003940:	080047c3 	.word	0x080047c3
 8003944:	08004843 	.word	0x08004843

08003948 <__multadd>:
 8003948:	e92d 41f0 	stmdb	sp!, {r4, r5, r6, r7, r8, lr}
 800394c:	4607      	mov	r7, r0
 800394e:	460c      	mov	r4, r1
 8003950:	461e      	mov	r6, r3
 8003952:	2000      	movs	r0, #0
 8003954:	690d      	ldr	r5, [r1, #16]
 8003956:	f101 0c14 	add.w	ip, r1, #20
 800395a:	f8dc 3000 	ldr.w	r3, [ip]
 800395e:	3001      	adds	r0, #1
 8003960:	b299      	uxth	r1, r3
 8003962:	fb02 6101 	mla	r1, r2, r1, r6
 8003966:	0c1e      	lsrs	r6, r3, #16
 8003968:	0c0b      	lsrs	r3, r1, #16
 800396a:	fb02 3306 	mla	r3, r2, r6, r3
 800396e:	b289      	uxth	r1, r1
 8003970:	eb01 4103 	add.w	r1, r1, r3, lsl #16
 8003974:	4285      	cmp	r5, r0
 8003976:	ea4f 4613 	mov.w	r6, r3, lsr #16
 800397a:	f84c 1b04 	str.w	r1, [ip], #4
 800397e:	dcec      	bgt.n	800395a <__multadd+0x12>
 8003980:	b30e      	cbz	r6, 80039c6 <__multadd+0x7e>
 8003982:	68a3      	ldr	r3, [r4, #8]
 8003984:	42ab      	cmp	r3, r5
 8003986:	dc19      	bgt.n	80039bc <__multadd+0x74>
 8003988:	6861      	ldr	r1, [r4, #4]
 800398a:	4638      	mov	r0, r7
 800398c:	3101      	adds	r1, #1
 800398e:	f7ff ff79 	bl	8003884 <_Balloc>
 8003992:	4680      	mov	r8, r0
 8003994:	b928      	cbnz	r0, 80039a2 <__multadd+0x5a>
 8003996:	4602      	mov	r2, r0
 8003998:	21ba      	movs	r1, #186	@ 0xba
 800399a:	4b0c      	ldr	r3, [pc, #48]	@ (80039cc <__multadd+0x84>)
 800399c:	480c      	ldr	r0, [pc, #48]	@ (80039d0 <__multadd+0x88>)
 800399e:	f000 fd8b 	bl	80044b8 <__assert_func>
 80039a2:	6922      	ldr	r2, [r4, #16]
 80039a4:	f104 010c 	add.w	r1, r4, #12
 80039a8:	3202      	adds	r2, #2
 80039aa:	0092      	lsls	r2, r2, #2
 80039ac:	300c      	adds	r0, #12
 80039ae:	f000 fd75 	bl	800449c <memcpy>
 80039b2:	4621      	mov	r1, r4
 80039b4:	4638      	mov	r0, r7
 80039b6:	f7ff ffa5 	bl	8003904 <_Bfree>
 80039ba:	4644      	mov	r4, r8
 80039bc:	eb04 0385 	add.w	r3, r4, r5, lsl #2
 80039c0:	3501      	adds	r5, #1
 80039c2:	615e      	str	r6, [r3, #20]
 80039c4:	6125      	str	r5, [r4, #16]
 80039c6:	4620      	mov	r0, r4
 80039c8:	e8bd 81f0 	ldmia.w	sp!, {r4, r5, r6, r7, r8, pc}
 80039cc:	08004832 	.word	0x08004832
 80039d0:	08004843 	.word	0x08004843

080039d4 <__hi0bits>:
 80039d4:	4603      	mov	r3, r0
 80039d6:	f5b0 3f80 	cmp.w	r0, #65536	@ 0x10000
 80039da:	bf3a      	itte	cc
 80039dc:	0403      	lslcc	r3, r0, #16
 80039de:	2010      	movcc	r0, #16
 80039e0:	2000      	movcs	r0, #0
 80039e2:	f1b3 7f80 	cmp.w	r3, #16777216	@ 0x1000000
 80039e6:	bf3c      	itt	cc
 80039e8:	021b      	lslcc	r3, r3, #8
 80039ea:	3008      	addcc	r0, #8
 80039ec:	f1b3 5f80 	cmp.w	r3, #268435456	@ 0x10000000
 80039f0:	bf3c      	itt	cc
 80039f2:	011b      	lslcc	r3, r3, #4
 80039f4:	3004      	addcc	r0, #4
 80039f6:	f1b3 4f80 	cmp.w	r3, #1073741824	@ 0x40000000
 80039fa:	bf3c      	itt	cc
 80039fc:	009b      	lslcc	r3, r3, #2
 80039fe:	3002      	addcc	r0, #2
 8003a00:	2b00      	cmp	r3, #0
 8003a02:	db05      	blt.n	8003a10 <__hi0bits+0x3c>
 8003a04:	f013 4f80 	tst.w	r3, #1073741824	@ 0x40000000
 8003a08:	f100 0001 	add.w	r0, r0, #1
 8003a0c:	bf08      	it	eq
 8003a0e:	2020      	moveq	r0, #32
 8003a10:	4770      	bx	lr

08003a12 <__lo0bits>:
 8003a12:	6803      	ldr	r3, [r0, #0]
 8003a14:	4602      	mov	r2, r0
 8003a16:	f013 0007 	ands.w	r0, r3, #7
 8003a1a:	d00b      	beq.n	8003a34 <__lo0bits+0x22>
 8003a1c:	07d9      	lsls	r1, r3, #31
 8003a1e:	d421      	bmi.n	8003a64 <__lo0bits+0x52>
 8003a20:	0798      	lsls	r0, r3, #30
 8003a22:	bf49      	itett	mi
 8003a24:	085b      	lsrmi	r3, r3, #1
 8003a26:	089b      	lsrpl	r3, r3, #2
 8003a28:	2001      	movmi	r0, #1
 8003a2a:	6013      	strmi	r3, [r2, #0]
 8003a2c:	bf5c      	itt	pl
 8003a2e:	2002      	movpl	r0, #2
 8003a30:	6013      	strpl	r3, [r2, #0]
 8003a32:	4770      	bx	lr
 8003a34:	b299      	uxth	r1, r3
 8003a36:	b909      	cbnz	r1, 8003a3c <__lo0bits+0x2a>
 8003a38:	2010      	movs	r0, #16
 8003a3a:	0c1b      	lsrs	r3, r3, #16
 8003a3c:	b2d9      	uxtb	r1, r3
 8003a3e:	b909      	cbnz	r1, 8003a44 <__lo0bits+0x32>
 8003a40:	3008      	adds	r0, #8
 8003a42:	0a1b      	lsrs	r3, r3, #8
 8003a44:	0719      	lsls	r1, r3, #28
 8003a46:	bf04      	itt	eq
 8003a48:	091b      	lsreq	r3, r3, #4
 8003a4a:	3004      	addeq	r0, #4
 8003a4c:	0799      	lsls	r1, r3, #30
 8003a4e:	bf04      	itt	eq
 8003a50:	089b      	lsreq	r3, r3, #2
 8003a52:	3002      	addeq	r0, #2
 8003a54:	07d9      	lsls	r1, r3, #31
 8003a56:	d403      	bmi.n	8003a60 <__lo0bits+0x4e>
 8003a58:	085b      	lsrs	r3, r3, #1
 8003a5a:	f100 0001 	add.w	r0, r0, #1
 8003a5e:	d003      	beq.n	8003a68 <__lo0bits+0x56>
 8003a60:	6013      	str	r3, [r2, #0]
 8003a62:	4770      	bx	lr
 8003a64:	2000      	movs	r0, #0
 8003a66:	4770      	bx	lr
 8003a68:	2020      	movs	r0, #32
 8003a6a:	4770      	bx	lr

08003a6c <__i2b>:
 8003a6c:	b510      	push	{r4, lr}
 8003a6e:	460c      	mov	r4, r1
 8003a70:	2101      	movs	r1, #1
 8003a72:	f7ff ff07 	bl	8003884 <_Balloc>
 8003a76:	4602      	mov	r2, r0
 8003a78:	b928      	cbnz	r0, 8003a86 <__i2b+0x1a>
 8003a7a:	f240 1145 	movw	r1, #325	@ 0x145
 8003a7e:	4b04      	ldr	r3, [pc, #16]	@ (8003a90 <__i2b+0x24>)
 8003a80:	4804      	ldr	r0, [pc, #16]	@ (8003a94 <__i2b+0x28>)
 8003a82:	f000 fd19 	bl	80044b8 <__assert_func>
 8003a86:	2301      	movs	r3, #1
 8003a88:	6144      	str	r4, [r0, #20]
 8003a8a:	6103      	str	r3, [r0, #16]
 8003a8c:	bd10      	pop	{r4, pc}
 8003a8e:	bf00      	nop
 8003a90:	08004832 	.word	0x08004832
 8003a94:	08004843 	.word	0x08004843

08003a98 <__multiply>:
 8003a98:	e92d 4ff0 	stmdb	sp!, {r4, r5, r6, r7, r8, r9, sl, fp, lr}
 8003a9c:	4614      	mov	r4, r2
 8003a9e:	690a      	ldr	r2, [r1, #16]
 8003aa0:	6923      	ldr	r3, [r4, #16]
 8003aa2:	460f      	mov	r7, r1
 8003aa4:	429a      	cmp	r2, r3
 8003aa6:	bfa2      	ittt	ge
 8003aa8:	4623      	movge	r3, r4
 8003aaa:	460c      	movge	r4, r1
 8003aac:	461f      	movge	r7, r3
 8003aae:	f8d4 a010 	ldr.w	sl, [r4, #16]
 8003ab2:	f8d7 9010 	ldr.w	r9, [r7, #16]
 8003ab6:	68a3      	ldr	r3, [r4, #8]
 8003ab8:	6861      	ldr	r1, [r4, #4]
 8003aba:	eb0a 0609 	add.w	r6, sl, r9
 8003abe:	42b3      	cmp	r3, r6
 8003ac0:	b085      	sub	sp, #20
 8003ac2:	bfb8      	it	lt
 8003ac4:	3101      	addlt	r1, #1
 8003ac6:	f7ff fedd 	bl	8003884 <_Balloc>
 8003aca:	b930      	cbnz	r0, 8003ada <__multiply+0x42>
 8003acc:	4602      	mov	r2, r0
 8003ace:	f44f 71b1 	mov.w	r1, #354	@ 0x162
 8003ad2:	4b43      	ldr	r3, [pc, #268]	@ (8003be0 <__multiply+0x148>)
 8003ad4:	4843      	ldr	r0, [pc, #268]	@ (8003be4 <__multiply+0x14c>)
 8003ad6:	f000 fcef 	bl	80044b8 <__assert_func>
 8003ada:	f100 0514 	add.w	r5, r0, #20
 8003ade:	462b      	mov	r3, r5
 8003ae0:	2200      	movs	r2, #0
 8003ae2:	eb05 0886 	add.w	r8, r5, r6, lsl #2
 8003ae6:	4543      	cmp	r3, r8
 8003ae8:	d321      	bcc.n	8003b2e <__multiply+0x96>
 8003aea:	f107 0114 	add.w	r1, r7, #20
 8003aee:	f104 0214 	add.w	r2, r4, #20
 8003af2:	eb02 028a 	add.w	r2, r2, sl, lsl #2
 8003af6:	eb01 0389 	add.w	r3, r1, r9, lsl #2
 8003afa:	9302      	str	r3, [sp, #8]
 8003afc:	1b13      	subs	r3, r2, r4
 8003afe:	3b15      	subs	r3, #21
 8003b00:	f023 0303 	bic.w	r3, r3, #3
 8003b04:	3304      	adds	r3, #4
 8003b06:	f104 0715 	add.w	r7, r4, #21
 8003b0a:	42ba      	cmp	r2, r7
 8003b0c:	bf38      	it	cc
 8003b0e:	2304      	movcc	r3, #4
 8003b10:	9301      	str	r3, [sp, #4]
 8003b12:	9b02      	ldr	r3, [sp, #8]
 8003b14:	9103      	str	r1, [sp, #12]
 8003b16:	428b      	cmp	r3, r1
 8003b18:	d80c      	bhi.n	8003b34 <__multiply+0x9c>
 8003b1a:	2e00      	cmp	r6, #0
 8003b1c:	dd03      	ble.n	8003b26 <__multiply+0x8e>
 8003b1e:	f858 3d04 	ldr.w	r3, [r8, #-4]!
 8003b22:	2b00      	cmp	r3, #0
 8003b24:	d05a      	beq.n	8003bdc <__multiply+0x144>
 8003b26:	6106      	str	r6, [r0, #16]
 8003b28:	b005      	add	sp, #20
 8003b2a:	e8bd 8ff0 	ldmia.w	sp!, {r4, r5, r6, r7, r8, r9, sl, fp, pc}
 8003b2e:	f843 2b04 	str.w	r2, [r3], #4
 8003b32:	e7d8      	b.n	8003ae6 <__multiply+0x4e>
 8003b34:	f8b1 a000 	ldrh.w	sl, [r1]
 8003b38:	f1ba 0f00 	cmp.w	sl, #0
 8003b3c:	d023      	beq.n	8003b86 <__multiply+0xee>
 8003b3e:	46a9      	mov	r9, r5
 8003b40:	f04f 0c00 	mov.w	ip, #0
 8003b44:	f104 0e14 	add.w	lr, r4, #20
 8003b48:	f85e 7b04 	ldr.w	r7, [lr], #4
 8003b4c:	f8d9 3000 	ldr.w	r3, [r9]
 8003b50:	fa1f fb87 	uxth.w	fp, r7
 8003b54:	b29b      	uxth	r3, r3
 8003b56:	fb0a 330b 	mla	r3, sl, fp, r3
 8003b5a:	4463      	add	r3, ip
 8003b5c:	f8d9 c000 	ldr.w	ip, [r9]
 8003b60:	0c3f      	lsrs	r7, r7, #16
 8003b62:	ea4f 4c1c 	mov.w	ip, ip, lsr #16
 8003b66:	fb0a c707 	mla	r7, sl, r7, ip
 8003b6a:	eb07 4713 	add.w	r7, r7, r3, lsr #16
 8003b6e:	b29b      	uxth	r3, r3
 8003b70:	ea43 4307 	orr.w	r3, r3, r7, lsl #16
 8003b74:	4572      	cmp	r2, lr
 8003b76:	ea4f 4c17 	mov.w	ip, r7, lsr #16
 8003b7a:	f849 3b04 	str.w	r3, [r9], #4
 8003b7e:	d8e3      	bhi.n	8003b48 <__multiply+0xb0>
 8003b80:	9b01      	ldr	r3, [sp, #4]
 8003b82:	f845 c003 	str.w	ip, [r5, r3]
 8003b86:	9b03      	ldr	r3, [sp, #12]
 8003b88:	3104      	adds	r1, #4
 8003b8a:	f8b3 9002 	ldrh.w	r9, [r3, #2]
 8003b8e:	f1b9 0f00 	cmp.w	r9, #0
 8003b92:	d021      	beq.n	8003bd8 <__multiply+0x140>
 8003b94:	46ae      	mov	lr, r5
 8003b96:	f04f 0a00 	mov.w	sl, #0
 8003b9a:	682b      	ldr	r3, [r5, #0]
 8003b9c:	f104 0c14 	add.w	ip, r4, #20
 8003ba0:	f8bc b000 	ldrh.w	fp, [ip]
 8003ba4:	f8be 7002 	ldrh.w	r7, [lr, #2]
 8003ba8:	b29b      	uxth	r3, r3
 8003baa:	fb09 770b 	mla	r7, r9, fp, r7
 8003bae:	4457      	add	r7, sl
 8003bb0:	ea43 4307 	orr.w	r3, r3, r7, lsl #16
 8003bb4:	f84e 3b04 	str.w	r3, [lr], #4
 8003bb8:	f85c 3b04 	ldr.w	r3, [ip], #4
 8003bbc:	ea4f 4a13 	mov.w	sl, r3, lsr #16
 8003bc0:	f8be 3000 	ldrh.w	r3, [lr]
 8003bc4:	4562      	cmp	r2, ip
 8003bc6:	fb09 330a 	mla	r3, r9, sl, r3
 8003bca:	eb03 4317 	add.w	r3, r3, r7, lsr #16
 8003bce:	ea4f 4a13 	mov.w	sl, r3, lsr #16
 8003bd2:	d8e5      	bhi.n	8003ba0 <__multiply+0x108>
 8003bd4:	9f01      	ldr	r7, [sp, #4]
 8003bd6:	51eb      	str	r3, [r5, r7]
 8003bd8:	3504      	adds	r5, #4
 8003bda:	e79a      	b.n	8003b12 <__multiply+0x7a>
 8003bdc:	3e01      	subs	r6, #1
 8003bde:	e79c      	b.n	8003b1a <__multiply+0x82>
 8003be0:	08004832 	.word	0x08004832
 8003be4:	08004843 	.word	0x08004843

08003be8 <__pow5mult>:
 8003be8:	e92d 43f8 	stmdb	sp!, {r3, r4, r5, r6, r7, r8, r9, lr}
 8003bec:	4615      	mov	r5, r2
 8003bee:	f012 0203 	ands.w	r2, r2, #3
 8003bf2:	4607      	mov	r7, r0
 8003bf4:	460e      	mov	r6, r1
 8003bf6:	d007      	beq.n	8003c08 <__pow5mult+0x20>
 8003bf8:	4c25      	ldr	r4, [pc, #148]	@ (8003c90 <__pow5mult+0xa8>)
 8003bfa:	3a01      	subs	r2, #1
 8003bfc:	2300      	movs	r3, #0
 8003bfe:	f854 2022 	ldr.w	r2, [r4, r2, lsl #2]
 8003c02:	f7ff fea1 	bl	8003948 <__multadd>
 8003c06:	4606      	mov	r6, r0
 8003c08:	10ad      	asrs	r5, r5, #2
 8003c0a:	d03d      	beq.n	8003c88 <__pow5mult+0xa0>
 8003c0c:	69fc      	ldr	r4, [r7, #28]
 8003c0e:	b97c      	cbnz	r4, 8003c30 <__pow5mult+0x48>
 8003c10:	2010      	movs	r0, #16
 8003c12:	f7ff fd81 	bl	8003718 <malloc>
 8003c16:	4602      	mov	r2, r0
 8003c18:	61f8      	str	r0, [r7, #28]
 8003c1a:	b928      	cbnz	r0, 8003c28 <__pow5mult+0x40>
 8003c1c:	f240 11b3 	movw	r1, #435	@ 0x1b3
 8003c20:	4b1c      	ldr	r3, [pc, #112]	@ (8003c94 <__pow5mult+0xac>)
 8003c22:	481d      	ldr	r0, [pc, #116]	@ (8003c98 <__pow5mult+0xb0>)
 8003c24:	f000 fc48 	bl	80044b8 <__assert_func>
 8003c28:	e9c0 4401 	strd	r4, r4, [r0, #4]
 8003c2c:	6004      	str	r4, [r0, #0]
 8003c2e:	60c4      	str	r4, [r0, #12]
 8003c30:	f8d7 801c 	ldr.w	r8, [r7, #28]
 8003c34:	f8d8 4008 	ldr.w	r4, [r8, #8]
 8003c38:	b94c      	cbnz	r4, 8003c4e <__pow5mult+0x66>
 8003c3a:	f240 2171 	movw	r1, #625	@ 0x271
 8003c3e:	4638      	mov	r0, r7
 8003c40:	f7ff ff14 	bl	8003a6c <__i2b>
 8003c44:	2300      	movs	r3, #0
 8003c46:	4604      	mov	r4, r0
 8003c48:	f8c8 0008 	str.w	r0, [r8, #8]
 8003c4c:	6003      	str	r3, [r0, #0]
 8003c4e:	f04f 0900 	mov.w	r9, #0
 8003c52:	07eb      	lsls	r3, r5, #31
 8003c54:	d50a      	bpl.n	8003c6c <__pow5mult+0x84>
 8003c56:	4631      	mov	r1, r6
 8003c58:	4622      	mov	r2, r4
 8003c5a:	4638      	mov	r0, r7
 8003c5c:	f7ff ff1c 	bl	8003a98 <__multiply>
 8003c60:	4680      	mov	r8, r0
 8003c62:	4631      	mov	r1, r6
 8003c64:	4638      	mov	r0, r7
 8003c66:	f7ff fe4d 	bl	8003904 <_Bfree>
 8003c6a:	4646      	mov	r6, r8
 8003c6c:	106d      	asrs	r5, r5, #1
 8003c6e:	d00b      	beq.n	8003c88 <__pow5mult+0xa0>
 8003c70:	6820      	ldr	r0, [r4, #0]
 8003c72:	b938      	cbnz	r0, 8003c84 <__pow5mult+0x9c>
 8003c74:	4622      	mov	r2, r4
 8003c76:	4621      	mov	r1, r4
 8003c78:	4638      	mov	r0, r7
 8003c7a:	f7ff ff0d 	bl	8003a98 <__multiply>
 8003c7e:	6020      	str	r0, [r4, #0]
 8003c80:	f8c0 9000 	str.w	r9, [r0]
 8003c84:	4604      	mov	r4, r0
 8003c86:	e7e4      	b.n	8003c52 <__pow5mult+0x6a>
 8003c88:	4630      	mov	r0, r6
 8003c8a:	e8bd 83f8 	ldmia.w	sp!, {r3, r4, r5, r6, r7, r8, r9, pc}
 8003c8e:	bf00      	nop
 8003c90:	0800489c 	.word	0x0800489c
 8003c94:	080047c3 	.word	0x080047c3
 8003c98:	08004843 	.word	0x08004843

08003c9c <__lshift>:
 8003c9c:	e92d 47f0 	stmdb	sp!, {r4, r5, r6, r7, r8, r9, sl, lr}
 8003ca0:	460c      	mov	r4, r1
 8003ca2:	4607      	mov	r7, r0
 8003ca4:	4691      	mov	r9, r2
 8003ca6:	6923      	ldr	r3, [r4, #16]
 8003ca8:	6849      	ldr	r1, [r1, #4]
 8003caa:	eb03 1862 	add.w	r8, r3, r2, asr #5
 8003cae:	68a3      	ldr	r3, [r4, #8]
 8003cb0:	ea4f 1a62 	mov.w	sl, r2, asr #5
 8003cb4:	f108 0601 	add.w	r6, r8, #1
 8003cb8:	42b3      	cmp	r3, r6
 8003cba:	db0b      	blt.n	8003cd4 <__lshift+0x38>
 8003cbc:	4638      	mov	r0, r7
 8003cbe:	f7ff fde1 	bl	8003884 <_Balloc>
 8003cc2:	4605      	mov	r5, r0
 8003cc4:	b948      	cbnz	r0, 8003cda <__lshift+0x3e>
 8003cc6:	4602      	mov	r2, r0
 8003cc8:	f44f 71ef 	mov.w	r1, #478	@ 0x1de
 8003ccc:	4b27      	ldr	r3, [pc, #156]	@ (8003d6c <__lshift+0xd0>)
 8003cce:	4828      	ldr	r0, [pc, #160]	@ (8003d70 <__lshift+0xd4>)
 8003cd0:	f000 fbf2 	bl	80044b8 <__assert_func>
 8003cd4:	3101      	adds	r1, #1
 8003cd6:	005b      	lsls	r3, r3, #1
 8003cd8:	e7ee      	b.n	8003cb8 <__lshift+0x1c>
 8003cda:	2300      	movs	r3, #0
 8003cdc:	f100 0114 	add.w	r1, r0, #20
 8003ce0:	f100 0210 	add.w	r2, r0, #16
 8003ce4:	4618      	mov	r0, r3
 8003ce6:	4553      	cmp	r3, sl
 8003ce8:	db33      	blt.n	8003d52 <__lshift+0xb6>
 8003cea:	6920      	ldr	r0, [r4, #16]
 8003cec:	ea2a 7aea 	bic.w	sl, sl, sl, asr #31
 8003cf0:	f104 0314 	add.w	r3, r4, #20
 8003cf4:	f019 091f 	ands.w	r9, r9, #31
 8003cf8:	eb01 018a 	add.w	r1, r1, sl, lsl #2
 8003cfc:	eb03 0c80 	add.w	ip, r3, r0, lsl #2
 8003d00:	d02b      	beq.n	8003d5a <__lshift+0xbe>
 8003d02:	468a      	mov	sl, r1
 8003d04:	2200      	movs	r2, #0
 8003d06:	f1c9 0e20 	rsb	lr, r9, #32
 8003d0a:	6818      	ldr	r0, [r3, #0]
 8003d0c:	fa00 f009 	lsl.w	r0, r0, r9
 8003d10:	4310      	orrs	r0, r2
 8003d12:	f84a 0b04 	str.w	r0, [sl], #4
 8003d16:	f853 2b04 	ldr.w	r2, [r3], #4
 8003d1a:	459c      	cmp	ip, r3
 8003d1c:	fa22 f20e 	lsr.w	r2, r2, lr
 8003d20:	d8f3      	bhi.n	8003d0a <__lshift+0x6e>
 8003d22:	ebac 0304 	sub.w	r3, ip, r4
 8003d26:	3b15      	subs	r3, #21
 8003d28:	f023 0303 	bic.w	r3, r3, #3
 8003d2c:	3304      	adds	r3, #4
 8003d2e:	f104 0015 	add.w	r0, r4, #21
 8003d32:	4584      	cmp	ip, r0
 8003d34:	bf38      	it	cc
 8003d36:	2304      	movcc	r3, #4
 8003d38:	50ca      	str	r2, [r1, r3]
 8003d3a:	b10a      	cbz	r2, 8003d40 <__lshift+0xa4>
 8003d3c:	f108 0602 	add.w	r6, r8, #2
 8003d40:	3e01      	subs	r6, #1
 8003d42:	4638      	mov	r0, r7
 8003d44:	4621      	mov	r1, r4
 8003d46:	612e      	str	r6, [r5, #16]
 8003d48:	f7ff fddc 	bl	8003904 <_Bfree>
 8003d4c:	4628      	mov	r0, r5
 8003d4e:	e8bd 87f0 	ldmia.w	sp!, {r4, r5, r6, r7, r8, r9, sl, pc}
 8003d52:	f842 0f04 	str.w	r0, [r2, #4]!
 8003d56:	3301      	adds	r3, #1
 8003d58:	e7c5      	b.n	8003ce6 <__lshift+0x4a>
 8003d5a:	3904      	subs	r1, #4
 8003d5c:	f853 2b04 	ldr.w	r2, [r3], #4
 8003d60:	459c      	cmp	ip, r3
 8003d62:	f841 2f04 	str.w	r2, [r1, #4]!
 8003d66:	d8f9      	bhi.n	8003d5c <__lshift+0xc0>
 8003d68:	e7ea      	b.n	8003d40 <__lshift+0xa4>
 8003d6a:	bf00      	nop
 8003d6c:	08004832 	.word	0x08004832
 8003d70:	08004843 	.word	0x08004843

08003d74 <__mcmp>:
 8003d74:	4603      	mov	r3, r0
 8003d76:	690a      	ldr	r2, [r1, #16]
 8003d78:	6900      	ldr	r0, [r0, #16]
 8003d7a:	b530      	push	{r4, r5, lr}
 8003d7c:	1a80      	subs	r0, r0, r2
 8003d7e:	d10e      	bne.n	8003d9e <__mcmp+0x2a>
 8003d80:	3314      	adds	r3, #20
 8003d82:	3114      	adds	r1, #20
 8003d84:	eb03 0482 	add.w	r4, r3, r2, lsl #2
 8003d88:	eb01 0182 	add.w	r1, r1, r2, lsl #2
 8003d8c:	f854 5d04 	ldr.w	r5, [r4, #-4]!
 8003d90:	f851 2d04 	ldr.w	r2, [r1, #-4]!
 8003d94:	4295      	cmp	r5, r2
 8003d96:	d003      	beq.n	8003da0 <__mcmp+0x2c>
 8003d98:	d205      	bcs.n	8003da6 <__mcmp+0x32>
 8003d9a:	f04f 30ff 	mov.w	r0, #4294967295
 8003d9e:	bd30      	pop	{r4, r5, pc}
 8003da0:	42a3      	cmp	r3, r4
 8003da2:	d3f3      	bcc.n	8003d8c <__mcmp+0x18>
 8003da4:	e7fb      	b.n	8003d9e <__mcmp+0x2a>
 8003da6:	2001      	movs	r0, #1
 8003da8:	e7f9      	b.n	8003d9e <__mcmp+0x2a>
	...

08003dac <__mdiff>:
 8003dac:	e92d 4ff7 	stmdb	sp!, {r0, r1, r2, r4, r5, r6, r7, r8, r9, sl, fp, lr}
 8003db0:	4689      	mov	r9, r1
 8003db2:	4606      	mov	r6, r0
 8003db4:	4611      	mov	r1, r2
 8003db6:	4648      	mov	r0, r9
 8003db8:	4614      	mov	r4, r2
 8003dba:	f7ff ffdb 	bl	8003d74 <__mcmp>
 8003dbe:	1e05      	subs	r5, r0, #0
 8003dc0:	d112      	bne.n	8003de8 <__mdiff+0x3c>
 8003dc2:	4629      	mov	r1, r5
 8003dc4:	4630      	mov	r0, r6
 8003dc6:	f7ff fd5d 	bl	8003884 <_Balloc>
 8003dca:	4602      	mov	r2, r0
 8003dcc:	b928      	cbnz	r0, 8003dda <__mdiff+0x2e>
 8003dce:	f240 2137 	movw	r1, #567	@ 0x237
 8003dd2:	4b3e      	ldr	r3, [pc, #248]	@ (8003ecc <__mdiff+0x120>)
 8003dd4:	483e      	ldr	r0, [pc, #248]	@ (8003ed0 <__mdiff+0x124>)
 8003dd6:	f000 fb6f 	bl	80044b8 <__assert_func>
 8003dda:	2301      	movs	r3, #1
 8003ddc:	e9c0 3504 	strd	r3, r5, [r0, #16]
 8003de0:	4610      	mov	r0, r2
 8003de2:	b003      	add	sp, #12
 8003de4:	e8bd 8ff0 	ldmia.w	sp!, {r4, r5, r6, r7, r8, r9, sl, fp, pc}
 8003de8:	bfbc      	itt	lt
 8003dea:	464b      	movlt	r3, r9
 8003dec:	46a1      	movlt	r9, r4
 8003dee:	4630      	mov	r0, r6
 8003df0:	f8d9 1004 	ldr.w	r1, [r9, #4]
 8003df4:	bfba      	itte	lt
 8003df6:	461c      	movlt	r4, r3
 8003df8:	2501      	movlt	r5, #1
 8003dfa:	2500      	movge	r5, #0
 8003dfc:	f7ff fd42 	bl	8003884 <_Balloc>
 8003e00:	4602      	mov	r2, r0
 8003e02:	b918      	cbnz	r0, 8003e0c <__mdiff+0x60>
 8003e04:	f240 2145 	movw	r1, #581	@ 0x245
 8003e08:	4b30      	ldr	r3, [pc, #192]	@ (8003ecc <__mdiff+0x120>)
 8003e0a:	e7e3      	b.n	8003dd4 <__mdiff+0x28>
 8003e0c:	f100 0b14 	add.w	fp, r0, #20
 8003e10:	f8d9 7010 	ldr.w	r7, [r9, #16]
 8003e14:	f109 0310 	add.w	r3, r9, #16
 8003e18:	60c5      	str	r5, [r0, #12]
 8003e1a:	f04f 0c00 	mov.w	ip, #0
 8003e1e:	f109 0514 	add.w	r5, r9, #20
 8003e22:	46d9      	mov	r9, fp
 8003e24:	6926      	ldr	r6, [r4, #16]
 8003e26:	f104 0e14 	add.w	lr, r4, #20
 8003e2a:	eb05 0887 	add.w	r8, r5, r7, lsl #2
 8003e2e:	eb0e 0686 	add.w	r6, lr, r6, lsl #2
 8003e32:	9301      	str	r3, [sp, #4]
 8003e34:	9b01      	ldr	r3, [sp, #4]
 8003e36:	f85e 0b04 	ldr.w	r0, [lr], #4
 8003e3a:	f853 af04 	ldr.w	sl, [r3, #4]!
 8003e3e:	b281      	uxth	r1, r0
 8003e40:	9301      	str	r3, [sp, #4]
 8003e42:	fa1f f38a 	uxth.w	r3, sl
 8003e46:	1a5b      	subs	r3, r3, r1
 8003e48:	0c00      	lsrs	r0, r0, #16
 8003e4a:	4463      	add	r3, ip
 8003e4c:	ebc0 401a 	rsb	r0, r0, sl, lsr #16
 8003e50:	eb00 4023 	add.w	r0, r0, r3, asr #16
 8003e54:	b29b      	uxth	r3, r3
 8003e56:	ea43 4300 	orr.w	r3, r3, r0, lsl #16
 8003e5a:	4576      	cmp	r6, lr
 8003e5c:	ea4f 4c20 	mov.w	ip, r0, asr #16
 8003e60:	f849 3b04 	str.w	r3, [r9], #4
 8003e64:	d8e6      	bhi.n	8003e34 <__mdiff+0x88>
 8003e66:	1b33      	subs	r3, r6, r4
 8003e68:	3b15      	subs	r3, #21
 8003e6a:	f023 0303 	bic.w	r3, r3, #3
 8003e6e:	3415      	adds	r4, #21
 8003e70:	3304      	adds	r3, #4
 8003e72:	42a6      	cmp	r6, r4
 8003e74:	bf38      	it	cc
 8003e76:	2304      	movcc	r3, #4
 8003e78:	441d      	add	r5, r3
 8003e7a:	445b      	add	r3, fp
 8003e7c:	461e      	mov	r6, r3
 8003e7e:	462c      	mov	r4, r5
 8003e80:	4544      	cmp	r4, r8
 8003e82:	d30e      	bcc.n	8003ea2 <__mdiff+0xf6>
 8003e84:	f108 0103 	add.w	r1, r8, #3
 8003e88:	1b49      	subs	r1, r1, r5
 8003e8a:	f021 0103 	bic.w	r1, r1, #3
 8003e8e:	3d03      	subs	r5, #3
 8003e90:	45a8      	cmp	r8, r5
 8003e92:	bf38      	it	cc
 8003e94:	2100      	movcc	r1, #0
 8003e96:	440b      	add	r3, r1
 8003e98:	f853 1d04 	ldr.w	r1, [r3, #-4]!
 8003e9c:	b199      	cbz	r1, 8003ec6 <__mdiff+0x11a>
 8003e9e:	6117      	str	r7, [r2, #16]
 8003ea0:	e79e      	b.n	8003de0 <__mdiff+0x34>
 8003ea2:	46e6      	mov	lr, ip
 8003ea4:	f854 1b04 	ldr.w	r1, [r4], #4
 8003ea8:	fa1f fc81 	uxth.w	ip, r1
 8003eac:	44f4      	add	ip, lr
 8003eae:	0c08      	lsrs	r0, r1, #16
 8003eb0:	4471      	add	r1, lr
 8003eb2:	eb00 402c 	add.w	r0, r0, ip, asr #16
 8003eb6:	b289      	uxth	r1, r1
 8003eb8:	ea41 4100 	orr.w	r1, r1, r0, lsl #16
 8003ebc:	ea4f 4c20 	mov.w	ip, r0, asr #16
 8003ec0:	f846 1b04 	str.w	r1, [r6], #4
 8003ec4:	e7dc      	b.n	8003e80 <__mdiff+0xd4>
 8003ec6:	3f01      	subs	r7, #1
 8003ec8:	e7e6      	b.n	8003e98 <__mdiff+0xec>
 8003eca:	bf00      	nop
 8003ecc:	08004832 	.word	0x08004832
 8003ed0:	08004843 	.word	0x08004843

08003ed4 <__d2b>:
 8003ed4:	e92d 4373 	stmdb	sp!, {r0, r1, r4, r5, r6, r8, r9, lr}
 8003ed8:	2101      	movs	r1, #1
 8003eda:	4690      	mov	r8, r2
 8003edc:	4699      	mov	r9, r3
 8003ede:	9e08      	ldr	r6, [sp, #32]
 8003ee0:	f7ff fcd0 	bl	8003884 <_Balloc>
 8003ee4:	4604      	mov	r4, r0
 8003ee6:	b930      	cbnz	r0, 8003ef6 <__d2b+0x22>
 8003ee8:	4602      	mov	r2, r0
 8003eea:	f240 310f 	movw	r1, #783	@ 0x30f
 8003eee:	4b23      	ldr	r3, [pc, #140]	@ (8003f7c <__d2b+0xa8>)
 8003ef0:	4823      	ldr	r0, [pc, #140]	@ (8003f80 <__d2b+0xac>)
 8003ef2:	f000 fae1 	bl	80044b8 <__assert_func>
 8003ef6:	f3c9 550a 	ubfx	r5, r9, #20, #11
 8003efa:	f3c9 0313 	ubfx	r3, r9, #0, #20
 8003efe:	b10d      	cbz	r5, 8003f04 <__d2b+0x30>
 8003f00:	f443 1380 	orr.w	r3, r3, #1048576	@ 0x100000
 8003f04:	9301      	str	r3, [sp, #4]
 8003f06:	f1b8 0300 	subs.w	r3, r8, #0
 8003f0a:	d024      	beq.n	8003f56 <__d2b+0x82>
 8003f0c:	4668      	mov	r0, sp
 8003f0e:	9300      	str	r3, [sp, #0]
 8003f10:	f7ff fd7f 	bl	8003a12 <__lo0bits>
 8003f14:	e9dd 1200 	ldrd	r1, r2, [sp]
 8003f18:	b1d8      	cbz	r0, 8003f52 <__d2b+0x7e>
 8003f1a:	f1c0 0320 	rsb	r3, r0, #32
 8003f1e:	fa02 f303 	lsl.w	r3, r2, r3
 8003f22:	430b      	orrs	r3, r1
 8003f24:	40c2      	lsrs	r2, r0
 8003f26:	6163      	str	r3, [r4, #20]
 8003f28:	9201      	str	r2, [sp, #4]
 8003f2a:	9b01      	ldr	r3, [sp, #4]
 8003f2c:	2b00      	cmp	r3, #0
 8003f2e:	bf0c      	ite	eq
 8003f30:	2201      	moveq	r2, #1
 8003f32:	2202      	movne	r2, #2
 8003f34:	61a3      	str	r3, [r4, #24]
 8003f36:	6122      	str	r2, [r4, #16]
 8003f38:	b1ad      	cbz	r5, 8003f66 <__d2b+0x92>
 8003f3a:	f2a5 4533 	subw	r5, r5, #1075	@ 0x433
 8003f3e:	4405      	add	r5, r0
 8003f40:	6035      	str	r5, [r6, #0]
 8003f42:	f1c0 0035 	rsb	r0, r0, #53	@ 0x35
 8003f46:	9b09      	ldr	r3, [sp, #36]	@ 0x24
 8003f48:	6018      	str	r0, [r3, #0]
 8003f4a:	4620      	mov	r0, r4
 8003f4c:	b002      	add	sp, #8
 8003f4e:	e8bd 8370 	ldmia.w	sp!, {r4, r5, r6, r8, r9, pc}
 8003f52:	6161      	str	r1, [r4, #20]
 8003f54:	e7e9      	b.n	8003f2a <__d2b+0x56>
 8003f56:	a801      	add	r0, sp, #4
 8003f58:	f7ff fd5b 	bl	8003a12 <__lo0bits>
 8003f5c:	9b01      	ldr	r3, [sp, #4]
 8003f5e:	2201      	movs	r2, #1
 8003f60:	6163      	str	r3, [r4, #20]
 8003f62:	3020      	adds	r0, #32
 8003f64:	e7e7      	b.n	8003f36 <__d2b+0x62>
 8003f66:	f2a0 4032 	subw	r0, r0, #1074	@ 0x432
 8003f6a:	eb04 0382 	add.w	r3, r4, r2, lsl #2
 8003f6e:	6030      	str	r0, [r6, #0]
 8003f70:	6918      	ldr	r0, [r3, #16]
 8003f72:	f7ff fd2f 	bl	80039d4 <__hi0bits>
 8003f76:	ebc0 1042 	rsb	r0, r0, r2, lsl #5
 8003f7a:	e7e4      	b.n	8003f46 <__d2b+0x72>
 8003f7c:	08004832 	.word	0x08004832
 8003f80:	08004843 	.word	0x08004843

08003f84 <__sfputc_r>:
 8003f84:	6893      	ldr	r3, [r2, #8]
 8003f86:	b410      	push	{r4}
 8003f88:	3b01      	subs	r3, #1
 8003f8a:	2b00      	cmp	r3, #0
 8003f8c:	6093      	str	r3, [r2, #8]
 8003f8e:	da07      	bge.n	8003fa0 <__sfputc_r+0x1c>
 8003f90:	6994      	ldr	r4, [r2, #24]
 8003f92:	42a3      	cmp	r3, r4
 8003f94:	db01      	blt.n	8003f9a <__sfputc_r+0x16>
 8003f96:	290a      	cmp	r1, #10
 8003f98:	d102      	bne.n	8003fa0 <__sfputc_r+0x1c>
 8003f9a:	bc10      	pop	{r4}
 8003f9c:	f000 b9da 	b.w	8004354 <__swbuf_r>
 8003fa0:	6813      	ldr	r3, [r2, #0]
 8003fa2:	1c58      	adds	r0, r3, #1
 8003fa4:	6010      	str	r0, [r2, #0]
 8003fa6:	7019      	strb	r1, [r3, #0]
 8003fa8:	4608      	mov	r0, r1
 8003faa:	bc10      	pop	{r4}
 8003fac:	4770      	bx	lr

08003fae <__sfputs_r>:
 8003fae:	b5f8      	push	{r3, r4, r5, r6, r7, lr}
 8003fb0:	4606      	mov	r6, r0
 8003fb2:	460f      	mov	r7, r1
 8003fb4:	4614      	mov	r4, r2
 8003fb6:	18d5      	adds	r5, r2, r3
 8003fb8:	42ac      	cmp	r4, r5
 8003fba:	d101      	bne.n	8003fc0 <__sfputs_r+0x12>
 8003fbc:	2000      	movs	r0, #0
 8003fbe:	e007      	b.n	8003fd0 <__sfputs_r+0x22>
 8003fc0:	463a      	mov	r2, r7
 8003fc2:	4630      	mov	r0, r6
 8003fc4:	f814 1b01 	ldrb.w	r1, [r4], #1
 8003fc8:	f7ff ffdc 	bl	8003f84 <__sfputc_r>
 8003fcc:	1c43      	adds	r3, r0, #1
 8003fce:	d1f3      	bne.n	8003fb8 <__sfputs_r+0xa>
 8003fd0:	bdf8      	pop	{r3, r4, r5, r6, r7, pc}
	...

08003fd4 <_vfiprintf_r>:
 8003fd4:	e92d 4ff0 	stmdb	sp!, {r4, r5, r6, r7, r8, r9, sl, fp, lr}
 8003fd8:	460d      	mov	r5, r1
 8003fda:	4614      	mov	r4, r2
 8003fdc:	4698      	mov	r8, r3
 8003fde:	4606      	mov	r6, r0
 8003fe0:	b09d      	sub	sp, #116	@ 0x74
 8003fe2:	b118      	cbz	r0, 8003fec <_vfiprintf_r+0x18>
 8003fe4:	6a03      	ldr	r3, [r0, #32]
 8003fe6:	b90b      	cbnz	r3, 8003fec <_vfiprintf_r+0x18>
 8003fe8:	f7fe fbe2 	bl	80027b0 <__sinit>
 8003fec:	6e6b      	ldr	r3, [r5, #100]	@ 0x64
 8003fee:	07d9      	lsls	r1, r3, #31
 8003ff0:	d405      	bmi.n	8003ffe <_vfiprintf_r+0x2a>
 8003ff2:	89ab      	ldrh	r3, [r5, #12]
 8003ff4:	059a      	lsls	r2, r3, #22
 8003ff6:	d402      	bmi.n	8003ffe <_vfiprintf_r+0x2a>
 8003ff8:	6da8      	ldr	r0, [r5, #88]	@ 0x58
 8003ffa:	f7fe fce2 	bl	80029c2 <__retarget_lock_acquire_recursive>
 8003ffe:	89ab      	ldrh	r3, [r5, #12]
 8004000:	071b      	lsls	r3, r3, #28
 8004002:	d501      	bpl.n	8004008 <_vfiprintf_r+0x34>
 8004004:	692b      	ldr	r3, [r5, #16]
 8004006:	b99b      	cbnz	r3, 8004030 <_vfiprintf_r+0x5c>
 8004008:	4629      	mov	r1, r5
 800400a:	4630      	mov	r0, r6
 800400c:	f000 f9e0 	bl	80043d0 <__swsetup_r>
 8004010:	b170      	cbz	r0, 8004030 <_vfiprintf_r+0x5c>
 8004012:	6e6b      	ldr	r3, [r5, #100]	@ 0x64
 8004014:	07dc      	lsls	r4, r3, #31
 8004016:	d504      	bpl.n	8004022 <_vfiprintf_r+0x4e>
 8004018:	f04f 30ff 	mov.w	r0, #4294967295
 800401c:	b01d      	add	sp, #116	@ 0x74
 800401e:	e8bd 8ff0 	ldmia.w	sp!, {r4, r5, r6, r7, r8, r9, sl, fp, pc}
 8004022:	89ab      	ldrh	r3, [r5, #12]
 8004024:	0598      	lsls	r0, r3, #22
 8004026:	d4f7      	bmi.n	8004018 <_vfiprintf_r+0x44>
 8004028:	6da8      	ldr	r0, [r5, #88]	@ 0x58
 800402a:	f7fe fccb 	bl	80029c4 <__retarget_lock_release_recursive>
 800402e:	e7f3      	b.n	8004018 <_vfiprintf_r+0x44>
 8004030:	2300      	movs	r3, #0
 8004032:	9309      	str	r3, [sp, #36]	@ 0x24
 8004034:	2320      	movs	r3, #32
 8004036:	f88d 3029 	strb.w	r3, [sp, #41]	@ 0x29
 800403a:	2330      	movs	r3, #48	@ 0x30
 800403c:	f04f 0901 	mov.w	r9, #1
 8004040:	f8cd 800c 	str.w	r8, [sp, #12]
 8004044:	f8df 81a8 	ldr.w	r8, [pc, #424]	@ 80041f0 <_vfiprintf_r+0x21c>
 8004048:	f88d 302a 	strb.w	r3, [sp, #42]	@ 0x2a
 800404c:	4623      	mov	r3, r4
 800404e:	469a      	mov	sl, r3
 8004050:	f813 2b01 	ldrb.w	r2, [r3], #1
 8004054:	b10a      	cbz	r2, 800405a <_vfiprintf_r+0x86>
 8004056:	2a25      	cmp	r2, #37	@ 0x25
 8004058:	d1f9      	bne.n	800404e <_vfiprintf_r+0x7a>
 800405a:	ebba 0b04 	subs.w	fp, sl, r4
 800405e:	d00b      	beq.n	8004078 <_vfiprintf_r+0xa4>
 8004060:	465b      	mov	r3, fp
 8004062:	4622      	mov	r2, r4
 8004064:	4629      	mov	r1, r5
 8004066:	4630      	mov	r0, r6
 8004068:	f7ff ffa1 	bl	8003fae <__sfputs_r>
 800406c:	3001      	adds	r0, #1
 800406e:	f000 80a7 	beq.w	80041c0 <_vfiprintf_r+0x1ec>
 8004072:	9a09      	ldr	r2, [sp, #36]	@ 0x24
 8004074:	445a      	add	r2, fp
 8004076:	9209      	str	r2, [sp, #36]	@ 0x24
 8004078:	f89a 3000 	ldrb.w	r3, [sl]
 800407c:	2b00      	cmp	r3, #0
 800407e:	f000 809f 	beq.w	80041c0 <_vfiprintf_r+0x1ec>
 8004082:	2300      	movs	r3, #0
 8004084:	f04f 32ff 	mov.w	r2, #4294967295
 8004088:	e9cd 2305 	strd	r2, r3, [sp, #20]
 800408c:	f10a 0a01 	add.w	sl, sl, #1
 8004090:	9304      	str	r3, [sp, #16]
 8004092:	9307      	str	r3, [sp, #28]
 8004094:	f88d 3053 	strb.w	r3, [sp, #83]	@ 0x53
 8004098:	931a      	str	r3, [sp, #104]	@ 0x68
 800409a:	4654      	mov	r4, sl
 800409c:	2205      	movs	r2, #5
 800409e:	f814 1b01 	ldrb.w	r1, [r4], #1
 80040a2:	4853      	ldr	r0, [pc, #332]	@ (80041f0 <_vfiprintf_r+0x21c>)
 80040a4:	f7fe fc8f 	bl	80029c6 <memchr>
 80040a8:	9a04      	ldr	r2, [sp, #16]
 80040aa:	b9d8      	cbnz	r0, 80040e4 <_vfiprintf_r+0x110>
 80040ac:	06d1      	lsls	r1, r2, #27
 80040ae:	bf44      	itt	mi
 80040b0:	2320      	movmi	r3, #32
 80040b2:	f88d 3053 	strbmi.w	r3, [sp, #83]	@ 0x53
 80040b6:	0713      	lsls	r3, r2, #28
 80040b8:	bf44      	itt	mi
 80040ba:	232b      	movmi	r3, #43	@ 0x2b
 80040bc:	f88d 3053 	strbmi.w	r3, [sp, #83]	@ 0x53
 80040c0:	f89a 3000 	ldrb.w	r3, [sl]
 80040c4:	2b2a      	cmp	r3, #42	@ 0x2a
 80040c6:	d015      	beq.n	80040f4 <_vfiprintf_r+0x120>
 80040c8:	4654      	mov	r4, sl
 80040ca:	2000      	movs	r0, #0
 80040cc:	f04f 0c0a 	mov.w	ip, #10
 80040d0:	9a07      	ldr	r2, [sp, #28]
 80040d2:	4621      	mov	r1, r4
 80040d4:	f811 3b01 	ldrb.w	r3, [r1], #1
 80040d8:	3b30      	subs	r3, #48	@ 0x30
 80040da:	2b09      	cmp	r3, #9
 80040dc:	d94b      	bls.n	8004176 <_vfiprintf_r+0x1a2>
 80040de:	b1b0      	cbz	r0, 800410e <_vfiprintf_r+0x13a>
 80040e0:	9207      	str	r2, [sp, #28]
 80040e2:	e014      	b.n	800410e <_vfiprintf_r+0x13a>
 80040e4:	eba0 0308 	sub.w	r3, r0, r8
 80040e8:	fa09 f303 	lsl.w	r3, r9, r3
 80040ec:	4313      	orrs	r3, r2
 80040ee:	46a2      	mov	sl, r4
 80040f0:	9304      	str	r3, [sp, #16]
 80040f2:	e7d2      	b.n	800409a <_vfiprintf_r+0xc6>
 80040f4:	9b03      	ldr	r3, [sp, #12]
 80040f6:	1d19      	adds	r1, r3, #4
 80040f8:	681b      	ldr	r3, [r3, #0]
 80040fa:	9103      	str	r1, [sp, #12]
 80040fc:	2b00      	cmp	r3, #0
 80040fe:	bfbb      	ittet	lt
 8004100:	425b      	neglt	r3, r3
 8004102:	f042 0202 	orrlt.w	r2, r2, #2
 8004106:	9307      	strge	r3, [sp, #28]
 8004108:	9307      	strlt	r3, [sp, #28]
 800410a:	bfb8      	it	lt
 800410c:	9204      	strlt	r2, [sp, #16]
 800410e:	7823      	ldrb	r3, [r4, #0]
 8004110:	2b2e      	cmp	r3, #46	@ 0x2e
 8004112:	d10a      	bne.n	800412a <_vfiprintf_r+0x156>
 8004114:	7863      	ldrb	r3, [r4, #1]
 8004116:	2b2a      	cmp	r3, #42	@ 0x2a
 8004118:	d132      	bne.n	8004180 <_vfiprintf_r+0x1ac>
 800411a:	9b03      	ldr	r3, [sp, #12]
 800411c:	3402      	adds	r4, #2
 800411e:	1d1a      	adds	r2, r3, #4
 8004120:	681b      	ldr	r3, [r3, #0]
 8004122:	9203      	str	r2, [sp, #12]
 8004124:	ea43 73e3 	orr.w	r3, r3, r3, asr #31
 8004128:	9305      	str	r3, [sp, #20]
 800412a:	f8df a0c8 	ldr.w	sl, [pc, #200]	@ 80041f4 <_vfiprintf_r+0x220>
 800412e:	2203      	movs	r2, #3
 8004130:	4650      	mov	r0, sl
 8004132:	7821      	ldrb	r1, [r4, #0]
 8004134:	f7fe fc47 	bl	80029c6 <memchr>
 8004138:	b138      	cbz	r0, 800414a <_vfiprintf_r+0x176>
 800413a:	2240      	movs	r2, #64	@ 0x40
 800413c:	9b04      	ldr	r3, [sp, #16]
 800413e:	eba0 000a 	sub.w	r0, r0, sl
 8004142:	4082      	lsls	r2, r0
 8004144:	4313      	orrs	r3, r2
 8004146:	3401      	adds	r4, #1
 8004148:	9304      	str	r3, [sp, #16]
 800414a:	f814 1b01 	ldrb.w	r1, [r4], #1
 800414e:	2206      	movs	r2, #6
 8004150:	4829      	ldr	r0, [pc, #164]	@ (80041f8 <_vfiprintf_r+0x224>)
 8004152:	f88d 1028 	strb.w	r1, [sp, #40]	@ 0x28
 8004156:	f7fe fc36 	bl	80029c6 <memchr>
 800415a:	2800      	cmp	r0, #0
 800415c:	d03f      	beq.n	80041de <_vfiprintf_r+0x20a>
 800415e:	4b27      	ldr	r3, [pc, #156]	@ (80041fc <_vfiprintf_r+0x228>)
 8004160:	bb1b      	cbnz	r3, 80041aa <_vfiprintf_r+0x1d6>
 8004162:	9b03      	ldr	r3, [sp, #12]
 8004164:	3307      	adds	r3, #7
 8004166:	f023 0307 	bic.w	r3, r3, #7
 800416a:	3308      	adds	r3, #8
 800416c:	9303      	str	r3, [sp, #12]
 800416e:	9b09      	ldr	r3, [sp, #36]	@ 0x24
 8004170:	443b      	add	r3, r7
 8004172:	9309      	str	r3, [sp, #36]	@ 0x24
 8004174:	e76a      	b.n	800404c <_vfiprintf_r+0x78>
 8004176:	460c      	mov	r4, r1
 8004178:	2001      	movs	r0, #1
 800417a:	fb0c 3202 	mla	r2, ip, r2, r3
 800417e:	e7a8      	b.n	80040d2 <_vfiprintf_r+0xfe>
 8004180:	2300      	movs	r3, #0
 8004182:	f04f 0c0a 	mov.w	ip, #10
 8004186:	4619      	mov	r1, r3
 8004188:	3401      	adds	r4, #1
 800418a:	9305      	str	r3, [sp, #20]
 800418c:	4620      	mov	r0, r4
 800418e:	f810 2b01 	ldrb.w	r2, [r0], #1
 8004192:	3a30      	subs	r2, #48	@ 0x30
 8004194:	2a09      	cmp	r2, #9
 8004196:	d903      	bls.n	80041a0 <_vfiprintf_r+0x1cc>
 8004198:	2b00      	cmp	r3, #0
 800419a:	d0c6      	beq.n	800412a <_vfiprintf_r+0x156>
 800419c:	9105      	str	r1, [sp, #20]
 800419e:	e7c4      	b.n	800412a <_vfiprintf_r+0x156>
 80041a0:	4604      	mov	r4, r0
 80041a2:	2301      	movs	r3, #1
 80041a4:	fb0c 2101 	mla	r1, ip, r1, r2
 80041a8:	e7f0      	b.n	800418c <_vfiprintf_r+0x1b8>
 80041aa:	ab03      	add	r3, sp, #12
 80041ac:	9300      	str	r3, [sp, #0]
 80041ae:	462a      	mov	r2, r5
 80041b0:	4630      	mov	r0, r6
 80041b2:	4b13      	ldr	r3, [pc, #76]	@ (8004200 <_vfiprintf_r+0x22c>)
 80041b4:	a904      	add	r1, sp, #16
 80041b6:	f7fd feb1 	bl	8001f1c <_printf_float>
 80041ba:	4607      	mov	r7, r0
 80041bc:	1c78      	adds	r0, r7, #1
 80041be:	d1d6      	bne.n	800416e <_vfiprintf_r+0x19a>
 80041c0:	6e6b      	ldr	r3, [r5, #100]	@ 0x64
 80041c2:	07d9      	lsls	r1, r3, #31
 80041c4:	d405      	bmi.n	80041d2 <_vfiprintf_r+0x1fe>
 80041c6:	89ab      	ldrh	r3, [r5, #12]
 80041c8:	059a      	lsls	r2, r3, #22
 80041ca:	d402      	bmi.n	80041d2 <_vfiprintf_r+0x1fe>
 80041cc:	6da8      	ldr	r0, [r5, #88]	@ 0x58
 80041ce:	f7fe fbf9 	bl	80029c4 <__retarget_lock_release_recursive>
 80041d2:	89ab      	ldrh	r3, [r5, #12]
 80041d4:	065b      	lsls	r3, r3, #25
 80041d6:	f53f af1f 	bmi.w	8004018 <_vfiprintf_r+0x44>
 80041da:	9809      	ldr	r0, [sp, #36]	@ 0x24
 80041dc:	e71e      	b.n	800401c <_vfiprintf_r+0x48>
 80041de:	ab03      	add	r3, sp, #12
 80041e0:	9300      	str	r3, [sp, #0]
 80041e2:	462a      	mov	r2, r5
 80041e4:	4630      	mov	r0, r6
 80041e6:	4b06      	ldr	r3, [pc, #24]	@ (8004200 <_vfiprintf_r+0x22c>)
 80041e8:	a904      	add	r1, sp, #16
 80041ea:	f7fe f935 	bl	8002458 <_printf_i>
 80041ee:	e7e4      	b.n	80041ba <_vfiprintf_r+0x1e6>
 80041f0:	08004998 	.word	0x08004998
 80041f4:	0800499e 	.word	0x0800499e
 80041f8:	080049a2 	.word	0x080049a2
 80041fc:	08001f1d 	.word	0x08001f1d
 8004200:	08003faf 	.word	0x08003faf

08004204 <__sflush_r>:
 8004204:	f9b1 200c 	ldrsh.w	r2, [r1, #12]
 8004208:	b5f8      	push	{r3, r4, r5, r6, r7, lr}
 800420a:	0716      	lsls	r6, r2, #28
 800420c:	4605      	mov	r5, r0
 800420e:	460c      	mov	r4, r1
 8004210:	d454      	bmi.n	80042bc <__sflush_r+0xb8>
 8004212:	684b      	ldr	r3, [r1, #4]
 8004214:	2b00      	cmp	r3, #0
 8004216:	dc02      	bgt.n	800421e <__sflush_r+0x1a>
 8004218:	6c0b      	ldr	r3, [r1, #64]	@ 0x40
 800421a:	2b00      	cmp	r3, #0
 800421c:	dd48      	ble.n	80042b0 <__sflush_r+0xac>
 800421e:	6ae6      	ldr	r6, [r4, #44]	@ 0x2c
 8004220:	2e00      	cmp	r6, #0
 8004222:	d045      	beq.n	80042b0 <__sflush_r+0xac>
 8004224:	2300      	movs	r3, #0
 8004226:	f412 5280 	ands.w	r2, r2, #4096	@ 0x1000
 800422a:	682f      	ldr	r7, [r5, #0]
 800422c:	6a21      	ldr	r1, [r4, #32]
 800422e:	602b      	str	r3, [r5, #0]
 8004230:	d030      	beq.n	8004294 <__sflush_r+0x90>
 8004232:	6d62      	ldr	r2, [r4, #84]	@ 0x54
 8004234:	89a3      	ldrh	r3, [r4, #12]
 8004236:	0759      	lsls	r1, r3, #29
 8004238:	d505      	bpl.n	8004246 <__sflush_r+0x42>
 800423a:	6863      	ldr	r3, [r4, #4]
 800423c:	1ad2      	subs	r2, r2, r3
 800423e:	6b63      	ldr	r3, [r4, #52]	@ 0x34
 8004240:	b10b      	cbz	r3, 8004246 <__sflush_r+0x42>
 8004242:	6c23      	ldr	r3, [r4, #64]	@ 0x40
 8004244:	1ad2      	subs	r2, r2, r3
 8004246:	2300      	movs	r3, #0
 8004248:	4628      	mov	r0, r5
 800424a:	6ae6      	ldr	r6, [r4, #44]	@ 0x2c
 800424c:	6a21      	ldr	r1, [r4, #32]
 800424e:	47b0      	blx	r6
 8004250:	1c43      	adds	r3, r0, #1
 8004252:	89a3      	ldrh	r3, [r4, #12]
 8004254:	d106      	bne.n	8004264 <__sflush_r+0x60>
 8004256:	6829      	ldr	r1, [r5, #0]
 8004258:	291d      	cmp	r1, #29
 800425a:	d82b      	bhi.n	80042b4 <__sflush_r+0xb0>
 800425c:	4a28      	ldr	r2, [pc, #160]	@ (8004300 <__sflush_r+0xfc>)
 800425e:	410a      	asrs	r2, r1
 8004260:	07d6      	lsls	r6, r2, #31
 8004262:	d427      	bmi.n	80042b4 <__sflush_r+0xb0>
 8004264:	2200      	movs	r2, #0
 8004266:	6062      	str	r2, [r4, #4]
 8004268:	6922      	ldr	r2, [r4, #16]
 800426a:	04d9      	lsls	r1, r3, #19
 800426c:	6022      	str	r2, [r4, #0]
 800426e:	d504      	bpl.n	800427a <__sflush_r+0x76>
 8004270:	1c42      	adds	r2, r0, #1
 8004272:	d101      	bne.n	8004278 <__sflush_r+0x74>
 8004274:	682b      	ldr	r3, [r5, #0]
 8004276:	b903      	cbnz	r3, 800427a <__sflush_r+0x76>
 8004278:	6560      	str	r0, [r4, #84]	@ 0x54
 800427a:	6b61      	ldr	r1, [r4, #52]	@ 0x34
 800427c:	602f      	str	r7, [r5, #0]
 800427e:	b1b9      	cbz	r1, 80042b0 <__sflush_r+0xac>
 8004280:	f104 0344 	add.w	r3, r4, #68	@ 0x44
 8004284:	4299      	cmp	r1, r3
 8004286:	d002      	beq.n	800428e <__sflush_r+0x8a>
 8004288:	4628      	mov	r0, r5
 800428a:	f7ff f9fd 	bl	8003688 <_free_r>
 800428e:	2300      	movs	r3, #0
 8004290:	6363      	str	r3, [r4, #52]	@ 0x34
 8004292:	e00d      	b.n	80042b0 <__sflush_r+0xac>
 8004294:	2301      	movs	r3, #1
 8004296:	4628      	mov	r0, r5
 8004298:	47b0      	blx	r6
 800429a:	4602      	mov	r2, r0
 800429c:	1c50      	adds	r0, r2, #1
 800429e:	d1c9      	bne.n	8004234 <__sflush_r+0x30>
 80042a0:	682b      	ldr	r3, [r5, #0]
 80042a2:	2b00      	cmp	r3, #0
 80042a4:	d0c6      	beq.n	8004234 <__sflush_r+0x30>
 80042a6:	2b1d      	cmp	r3, #29
 80042a8:	d001      	beq.n	80042ae <__sflush_r+0xaa>
 80042aa:	2b16      	cmp	r3, #22
 80042ac:	d11d      	bne.n	80042ea <__sflush_r+0xe6>
 80042ae:	602f      	str	r7, [r5, #0]
 80042b0:	2000      	movs	r0, #0
 80042b2:	e021      	b.n	80042f8 <__sflush_r+0xf4>
 80042b4:	f043 0340 	orr.w	r3, r3, #64	@ 0x40
 80042b8:	b21b      	sxth	r3, r3
 80042ba:	e01a      	b.n	80042f2 <__sflush_r+0xee>
 80042bc:	690f      	ldr	r7, [r1, #16]
 80042be:	2f00      	cmp	r7, #0
 80042c0:	d0f6      	beq.n	80042b0 <__sflush_r+0xac>
 80042c2:	0793      	lsls	r3, r2, #30
 80042c4:	bf18      	it	ne
 80042c6:	2300      	movne	r3, #0
 80042c8:	680e      	ldr	r6, [r1, #0]
 80042ca:	bf08      	it	eq
 80042cc:	694b      	ldreq	r3, [r1, #20]
 80042ce:	1bf6      	subs	r6, r6, r7
 80042d0:	600f      	str	r7, [r1, #0]
 80042d2:	608b      	str	r3, [r1, #8]
 80042d4:	2e00      	cmp	r6, #0
 80042d6:	ddeb      	ble.n	80042b0 <__sflush_r+0xac>
 80042d8:	4633      	mov	r3, r6
 80042da:	463a      	mov	r2, r7
 80042dc:	4628      	mov	r0, r5
 80042de:	6a21      	ldr	r1, [r4, #32]
 80042e0:	f8d4 c028 	ldr.w	ip, [r4, #40]	@ 0x28
 80042e4:	47e0      	blx	ip
 80042e6:	2800      	cmp	r0, #0
 80042e8:	dc07      	bgt.n	80042fa <__sflush_r+0xf6>
 80042ea:	f9b4 300c 	ldrsh.w	r3, [r4, #12]
 80042ee:	f043 0340 	orr.w	r3, r3, #64	@ 0x40
 80042f2:	f04f 30ff 	mov.w	r0, #4294967295
 80042f6:	81a3      	strh	r3, [r4, #12]
 80042f8:	bdf8      	pop	{r3, r4, r5, r6, r7, pc}
 80042fa:	4407      	add	r7, r0
 80042fc:	1a36      	subs	r6, r6, r0
 80042fe:	e7e9      	b.n	80042d4 <__sflush_r+0xd0>
 8004300:	dfbffffe 	.word	0xdfbffffe

08004304 <_fflush_r>:
 8004304:	b538      	push	{r3, r4, r5, lr}
 8004306:	690b      	ldr	r3, [r1, #16]
 8004308:	4605      	mov	r5, r0
 800430a:	460c      	mov	r4, r1
 800430c:	b913      	cbnz	r3, 8004314 <_fflush_r+0x10>
 800430e:	2500      	movs	r5, #0
 8004310:	4628      	mov	r0, r5
 8004312:	bd38      	pop	{r3, r4, r5, pc}
 8004314:	b118      	cbz	r0, 800431e <_fflush_r+0x1a>
 8004316:	6a03      	ldr	r3, [r0, #32]
 8004318:	b90b      	cbnz	r3, 800431e <_fflush_r+0x1a>
 800431a:	f7fe fa49 	bl	80027b0 <__sinit>
 800431e:	f9b4 300c 	ldrsh.w	r3, [r4, #12]
 8004322:	2b00      	cmp	r3, #0
 8004324:	d0f3      	beq.n	800430e <_fflush_r+0xa>
 8004326:	6e62      	ldr	r2, [r4, #100]	@ 0x64
 8004328:	07d0      	lsls	r0, r2, #31
 800432a:	d404      	bmi.n	8004336 <_fflush_r+0x32>
 800432c:	0599      	lsls	r1, r3, #22
 800432e:	d402      	bmi.n	8004336 <_fflush_r+0x32>
 8004330:	6da0      	ldr	r0, [r4, #88]	@ 0x58
 8004332:	f7fe fb46 	bl	80029c2 <__retarget_lock_acquire_recursive>
 8004336:	4628      	mov	r0, r5
 8004338:	4621      	mov	r1, r4
 800433a:	f7ff ff63 	bl	8004204 <__sflush_r>
 800433e:	6e63      	ldr	r3, [r4, #100]	@ 0x64
 8004340:	4605      	mov	r5, r0
 8004342:	07da      	lsls	r2, r3, #31
 8004344:	d4e4      	bmi.n	8004310 <_fflush_r+0xc>
 8004346:	89a3      	ldrh	r3, [r4, #12]
 8004348:	059b      	lsls	r3, r3, #22
 800434a:	d4e1      	bmi.n	8004310 <_fflush_r+0xc>
 800434c:	6da0      	ldr	r0, [r4, #88]	@ 0x58
 800434e:	f7fe fb39 	bl	80029c4 <__retarget_lock_release_recursive>
 8004352:	e7dd      	b.n	8004310 <_fflush_r+0xc>

08004354 <__swbuf_r>:
 8004354:	b5f8      	push	{r3, r4, r5, r6, r7, lr}
 8004356:	460e      	mov	r6, r1
 8004358:	4614      	mov	r4, r2
 800435a:	4605      	mov	r5, r0
 800435c:	b118      	cbz	r0, 8004366 <__swbuf_r+0x12>
 800435e:	6a03      	ldr	r3, [r0, #32]
 8004360:	b90b      	cbnz	r3, 8004366 <__swbuf_r+0x12>
 8004362:	f7fe fa25 	bl	80027b0 <__sinit>
 8004366:	69a3      	ldr	r3, [r4, #24]
 8004368:	60a3      	str	r3, [r4, #8]
 800436a:	89a3      	ldrh	r3, [r4, #12]
 800436c:	071a      	lsls	r2, r3, #28
 800436e:	d501      	bpl.n	8004374 <__swbuf_r+0x20>
 8004370:	6923      	ldr	r3, [r4, #16]
 8004372:	b943      	cbnz	r3, 8004386 <__swbuf_r+0x32>
 8004374:	4621      	mov	r1, r4
 8004376:	4628      	mov	r0, r5
 8004378:	f000 f82a 	bl	80043d0 <__swsetup_r>
 800437c:	b118      	cbz	r0, 8004386 <__swbuf_r+0x32>
 800437e:	f04f 37ff 	mov.w	r7, #4294967295
 8004382:	4638      	mov	r0, r7
 8004384:	bdf8      	pop	{r3, r4, r5, r6, r7, pc}
 8004386:	6823      	ldr	r3, [r4, #0]
 8004388:	6922      	ldr	r2, [r4, #16]
 800438a:	b2f6      	uxtb	r6, r6
 800438c:	1a98      	subs	r0, r3, r2
 800438e:	6963      	ldr	r3, [r4, #20]
 8004390:	4637      	mov	r7, r6
 8004392:	4283      	cmp	r3, r0
 8004394:	dc05      	bgt.n	80043a2 <__swbuf_r+0x4e>
 8004396:	4621      	mov	r1, r4
 8004398:	4628      	mov	r0, r5
 800439a:	f7ff ffb3 	bl	8004304 <_fflush_r>
 800439e:	2800      	cmp	r0, #0
 80043a0:	d1ed      	bne.n	800437e <__swbuf_r+0x2a>
 80043a2:	68a3      	ldr	r3, [r4, #8]
 80043a4:	3b01      	subs	r3, #1
 80043a6:	60a3      	str	r3, [r4, #8]
 80043a8:	6823      	ldr	r3, [r4, #0]
 80043aa:	1c5a      	adds	r2, r3, #1
 80043ac:	6022      	str	r2, [r4, #0]
 80043ae:	701e      	strb	r6, [r3, #0]
 80043b0:	6962      	ldr	r2, [r4, #20]
 80043b2:	1c43      	adds	r3, r0, #1
 80043b4:	429a      	cmp	r2, r3
 80043b6:	d004      	beq.n	80043c2 <__swbuf_r+0x6e>
 80043b8:	89a3      	ldrh	r3, [r4, #12]
 80043ba:	07db      	lsls	r3, r3, #31
 80043bc:	d5e1      	bpl.n	8004382 <__swbuf_r+0x2e>
 80043be:	2e0a      	cmp	r6, #10
 80043c0:	d1df      	bne.n	8004382 <__swbuf_r+0x2e>
 80043c2:	4621      	mov	r1, r4
 80043c4:	4628      	mov	r0, r5
 80043c6:	f7ff ff9d 	bl	8004304 <_fflush_r>
 80043ca:	2800      	cmp	r0, #0
 80043cc:	d0d9      	beq.n	8004382 <__swbuf_r+0x2e>
 80043ce:	e7d6      	b.n	800437e <__swbuf_r+0x2a>

080043d0 <__swsetup_r>:
 80043d0:	b538      	push	{r3, r4, r5, lr}
 80043d2:	4b29      	ldr	r3, [pc, #164]	@ (8004478 <__swsetup_r+0xa8>)
 80043d4:	4605      	mov	r5, r0
 80043d6:	6818      	ldr	r0, [r3, #0]
 80043d8:	460c      	mov	r4, r1
 80043da:	b118      	cbz	r0, 80043e4 <__swsetup_r+0x14>
 80043dc:	6a03      	ldr	r3, [r0, #32]
 80043de:	b90b      	cbnz	r3, 80043e4 <__swsetup_r+0x14>
 80043e0:	f7fe f9e6 	bl	80027b0 <__sinit>
 80043e4:	f9b4 300c 	ldrsh.w	r3, [r4, #12]
 80043e8:	0719      	lsls	r1, r3, #28
 80043ea:	d422      	bmi.n	8004432 <__swsetup_r+0x62>
 80043ec:	06da      	lsls	r2, r3, #27
 80043ee:	d407      	bmi.n	8004400 <__swsetup_r+0x30>
 80043f0:	2209      	movs	r2, #9
 80043f2:	602a      	str	r2, [r5, #0]
 80043f4:	f043 0340 	orr.w	r3, r3, #64	@ 0x40
 80043f8:	f04f 30ff 	mov.w	r0, #4294967295
 80043fc:	81a3      	strh	r3, [r4, #12]
 80043fe:	e033      	b.n	8004468 <__swsetup_r+0x98>
 8004400:	0758      	lsls	r0, r3, #29
 8004402:	d512      	bpl.n	800442a <__swsetup_r+0x5a>
 8004404:	6b61      	ldr	r1, [r4, #52]	@ 0x34
 8004406:	b141      	cbz	r1, 800441a <__swsetup_r+0x4a>
 8004408:	f104 0344 	add.w	r3, r4, #68	@ 0x44
 800440c:	4299      	cmp	r1, r3
 800440e:	d002      	beq.n	8004416 <__swsetup_r+0x46>
 8004410:	4628      	mov	r0, r5
 8004412:	f7ff f939 	bl	8003688 <_free_r>
 8004416:	2300      	movs	r3, #0
 8004418:	6363      	str	r3, [r4, #52]	@ 0x34
 800441a:	89a3      	ldrh	r3, [r4, #12]
 800441c:	f023 0324 	bic.w	r3, r3, #36	@ 0x24
 8004420:	81a3      	strh	r3, [r4, #12]
 8004422:	2300      	movs	r3, #0
 8004424:	6063      	str	r3, [r4, #4]
 8004426:	6923      	ldr	r3, [r4, #16]
 8004428:	6023      	str	r3, [r4, #0]
 800442a:	89a3      	ldrh	r3, [r4, #12]
 800442c:	f043 0308 	orr.w	r3, r3, #8
 8004430:	81a3      	strh	r3, [r4, #12]
 8004432:	6923      	ldr	r3, [r4, #16]
 8004434:	b94b      	cbnz	r3, 800444a <__swsetup_r+0x7a>
 8004436:	89a3      	ldrh	r3, [r4, #12]
 8004438:	f403 7320 	and.w	r3, r3, #640	@ 0x280
 800443c:	f5b3 7f00 	cmp.w	r3, #512	@ 0x200
 8004440:	d003      	beq.n	800444a <__swsetup_r+0x7a>
 8004442:	4621      	mov	r1, r4
 8004444:	4628      	mov	r0, r5
 8004446:	f000 f8c0 	bl	80045ca <__smakebuf_r>
 800444a:	f9b4 300c 	ldrsh.w	r3, [r4, #12]
 800444e:	f013 0201 	ands.w	r2, r3, #1
 8004452:	d00a      	beq.n	800446a <__swsetup_r+0x9a>
 8004454:	2200      	movs	r2, #0
 8004456:	60a2      	str	r2, [r4, #8]
 8004458:	6962      	ldr	r2, [r4, #20]
 800445a:	4252      	negs	r2, r2
 800445c:	61a2      	str	r2, [r4, #24]
 800445e:	6922      	ldr	r2, [r4, #16]
 8004460:	b942      	cbnz	r2, 8004474 <__swsetup_r+0xa4>
 8004462:	f013 0080 	ands.w	r0, r3, #128	@ 0x80
 8004466:	d1c5      	bne.n	80043f4 <__swsetup_r+0x24>
 8004468:	bd38      	pop	{r3, r4, r5, pc}
 800446a:	0799      	lsls	r1, r3, #30
 800446c:	bf58      	it	pl
 800446e:	6962      	ldrpl	r2, [r4, #20]
 8004470:	60a2      	str	r2, [r4, #8]
 8004472:	e7f4      	b.n	800445e <__swsetup_r+0x8e>
 8004474:	2000      	movs	r0, #0
 8004476:	e7f7      	b.n	8004468 <__swsetup_r+0x98>
 8004478:	20000010 	.word	0x20000010

0800447c <_sbrk_r>:
 800447c:	b538      	push	{r3, r4, r5, lr}
 800447e:	2300      	movs	r3, #0
 8004480:	4d05      	ldr	r5, [pc, #20]	@ (8004498 <_sbrk_r+0x1c>)
 8004482:	4604      	mov	r4, r0
 8004484:	4608      	mov	r0, r1
 8004486:	602b      	str	r3, [r5, #0]
 8004488:	f7fd fc4a 	bl	8001d20 <_sbrk>
 800448c:	1c43      	adds	r3, r0, #1
 800448e:	d102      	bne.n	8004496 <_sbrk_r+0x1a>
 8004490:	682b      	ldr	r3, [r5, #0]
 8004492:	b103      	cbz	r3, 8004496 <_sbrk_r+0x1a>
 8004494:	6023      	str	r3, [r4, #0]
 8004496:	bd38      	pop	{r3, r4, r5, pc}
 8004498:	20000558 	.word	0x20000558

0800449c <memcpy>:
 800449c:	440a      	add	r2, r1
 800449e:	4291      	cmp	r1, r2
 80044a0:	f100 33ff 	add.w	r3, r0, #4294967295
 80044a4:	d100      	bne.n	80044a8 <memcpy+0xc>
 80044a6:	4770      	bx	lr
 80044a8:	b510      	push	{r4, lr}
 80044aa:	f811 4b01 	ldrb.w	r4, [r1], #1
 80044ae:	4291      	cmp	r1, r2
 80044b0:	f803 4f01 	strb.w	r4, [r3, #1]!
 80044b4:	d1f9      	bne.n	80044aa <memcpy+0xe>
 80044b6:	bd10      	pop	{r4, pc}

080044b8 <__assert_func>:
 80044b8:	b51f      	push	{r0, r1, r2, r3, r4, lr}
 80044ba:	4614      	mov	r4, r2
 80044bc:	461a      	mov	r2, r3
 80044be:	4b09      	ldr	r3, [pc, #36]	@ (80044e4 <__assert_func+0x2c>)
 80044c0:	4605      	mov	r5, r0
 80044c2:	681b      	ldr	r3, [r3, #0]
 80044c4:	68d8      	ldr	r0, [r3, #12]
 80044c6:	b954      	cbnz	r4, 80044de <__assert_func+0x26>
 80044c8:	4b07      	ldr	r3, [pc, #28]	@ (80044e8 <__assert_func+0x30>)
 80044ca:	461c      	mov	r4, r3
 80044cc:	e9cd 3401 	strd	r3, r4, [sp, #4]
 80044d0:	9100      	str	r1, [sp, #0]
 80044d2:	462b      	mov	r3, r5
 80044d4:	4905      	ldr	r1, [pc, #20]	@ (80044ec <__assert_func+0x34>)
 80044d6:	f000 f841 	bl	800455c <fiprintf>
 80044da:	f000 f8d5 	bl	8004688 <abort>
 80044de:	4b04      	ldr	r3, [pc, #16]	@ (80044f0 <__assert_func+0x38>)
 80044e0:	e7f4      	b.n	80044cc <__assert_func+0x14>
 80044e2:	bf00      	nop
 80044e4:	20000010 	.word	0x20000010
 80044e8:	080049ee 	.word	0x080049ee
 80044ec:	080049c0 	.word	0x080049c0
 80044f0:	080049b3 	.word	0x080049b3

080044f4 <_calloc_r>:
 80044f4:	b570      	push	{r4, r5, r6, lr}
 80044f6:	fba1 5402 	umull	r5, r4, r1, r2
 80044fa:	b93c      	cbnz	r4, 800450c <_calloc_r+0x18>
 80044fc:	4629      	mov	r1, r5
 80044fe:	f7ff f935 	bl	800376c <_malloc_r>
 8004502:	4606      	mov	r6, r0
 8004504:	b928      	cbnz	r0, 8004512 <_calloc_r+0x1e>
 8004506:	2600      	movs	r6, #0
 8004508:	4630      	mov	r0, r6
 800450a:	bd70      	pop	{r4, r5, r6, pc}
 800450c:	220c      	movs	r2, #12
 800450e:	6002      	str	r2, [r0, #0]
 8004510:	e7f9      	b.n	8004506 <_calloc_r+0x12>
 8004512:	462a      	mov	r2, r5
 8004514:	4621      	mov	r1, r4
 8004516:	f7fe f9d6 	bl	80028c6 <memset>
 800451a:	e7f5      	b.n	8004508 <_calloc_r+0x14>

0800451c <__ascii_mbtowc>:
 800451c:	b082      	sub	sp, #8
 800451e:	b901      	cbnz	r1, 8004522 <__ascii_mbtowc+0x6>
 8004520:	a901      	add	r1, sp, #4
 8004522:	b142      	cbz	r2, 8004536 <__ascii_mbtowc+0x1a>
 8004524:	b14b      	cbz	r3, 800453a <__ascii_mbtowc+0x1e>
 8004526:	7813      	ldrb	r3, [r2, #0]
 8004528:	600b      	str	r3, [r1, #0]
 800452a:	7812      	ldrb	r2, [r2, #0]
 800452c:	1e10      	subs	r0, r2, #0
 800452e:	bf18      	it	ne
 8004530:	2001      	movne	r0, #1
 8004532:	b002      	add	sp, #8
 8004534:	4770      	bx	lr
 8004536:	4610      	mov	r0, r2
 8004538:	e7fb      	b.n	8004532 <__ascii_mbtowc+0x16>
 800453a:	f06f 0001 	mvn.w	r0, #1
 800453e:	e7f8      	b.n	8004532 <__ascii_mbtowc+0x16>

08004540 <__ascii_wctomb>:
 8004540:	4603      	mov	r3, r0
 8004542:	4608      	mov	r0, r1
 8004544:	b141      	cbz	r1, 8004558 <__ascii_wctomb+0x18>
 8004546:	2aff      	cmp	r2, #255	@ 0xff
 8004548:	d904      	bls.n	8004554 <__ascii_wctomb+0x14>
 800454a:	228a      	movs	r2, #138	@ 0x8a
 800454c:	f04f 30ff 	mov.w	r0, #4294967295
 8004550:	601a      	str	r2, [r3, #0]
 8004552:	4770      	bx	lr
 8004554:	2001      	movs	r0, #1
 8004556:	700a      	strb	r2, [r1, #0]
 8004558:	4770      	bx	lr
	...

0800455c <fiprintf>:
 800455c:	b40e      	push	{r1, r2, r3}
 800455e:	b503      	push	{r0, r1, lr}
 8004560:	4601      	mov	r1, r0
 8004562:	ab03      	add	r3, sp, #12
 8004564:	4805      	ldr	r0, [pc, #20]	@ (800457c <fiprintf+0x20>)
 8004566:	f853 2b04 	ldr.w	r2, [r3], #4
 800456a:	6800      	ldr	r0, [r0, #0]
 800456c:	9301      	str	r3, [sp, #4]
 800456e:	f7ff fd31 	bl	8003fd4 <_vfiprintf_r>
 8004572:	b002      	add	sp, #8
 8004574:	f85d eb04 	ldr.w	lr, [sp], #4
 8004578:	b003      	add	sp, #12
 800457a:	4770      	bx	lr
 800457c:	20000010 	.word	0x20000010

08004580 <__swhatbuf_r>:
 8004580:	b570      	push	{r4, r5, r6, lr}
 8004582:	460c      	mov	r4, r1
 8004584:	f9b1 100e 	ldrsh.w	r1, [r1, #14]
 8004588:	4615      	mov	r5, r2
 800458a:	2900      	cmp	r1, #0
 800458c:	461e      	mov	r6, r3
 800458e:	b096      	sub	sp, #88	@ 0x58
 8004590:	da0c      	bge.n	80045ac <__swhatbuf_r+0x2c>
 8004592:	89a3      	ldrh	r3, [r4, #12]
 8004594:	2100      	movs	r1, #0
 8004596:	f013 0f80 	tst.w	r3, #128	@ 0x80
 800459a:	bf14      	ite	ne
 800459c:	2340      	movne	r3, #64	@ 0x40
 800459e:	f44f 6380 	moveq.w	r3, #1024	@ 0x400
 80045a2:	2000      	movs	r0, #0
 80045a4:	6031      	str	r1, [r6, #0]
 80045a6:	602b      	str	r3, [r5, #0]
 80045a8:	b016      	add	sp, #88	@ 0x58
 80045aa:	bd70      	pop	{r4, r5, r6, pc}
 80045ac:	466a      	mov	r2, sp
 80045ae:	f000 f849 	bl	8004644 <_fstat_r>
 80045b2:	2800      	cmp	r0, #0
 80045b4:	dbed      	blt.n	8004592 <__swhatbuf_r+0x12>
 80045b6:	9901      	ldr	r1, [sp, #4]
 80045b8:	f401 4170 	and.w	r1, r1, #61440	@ 0xf000
 80045bc:	f5a1 5300 	sub.w	r3, r1, #8192	@ 0x2000
 80045c0:	4259      	negs	r1, r3
 80045c2:	4159      	adcs	r1, r3
 80045c4:	f44f 6380 	mov.w	r3, #1024	@ 0x400
 80045c8:	e7eb      	b.n	80045a2 <__swhatbuf_r+0x22>

080045ca <__smakebuf_r>:
 80045ca:	898b      	ldrh	r3, [r1, #12]
 80045cc:	b5f7      	push	{r0, r1, r2, r4, r5, r6, r7, lr}
 80045ce:	079d      	lsls	r5, r3, #30
 80045d0:	4606      	mov	r6, r0
 80045d2:	460c      	mov	r4, r1
 80045d4:	d507      	bpl.n	80045e6 <__smakebuf_r+0x1c>
 80045d6:	f104 0347 	add.w	r3, r4, #71	@ 0x47
 80045da:	6023      	str	r3, [r4, #0]
 80045dc:	6123      	str	r3, [r4, #16]
 80045de:	2301      	movs	r3, #1
 80045e0:	6163      	str	r3, [r4, #20]
 80045e2:	b003      	add	sp, #12
 80045e4:	bdf0      	pop	{r4, r5, r6, r7, pc}
 80045e6:	466a      	mov	r2, sp
 80045e8:	ab01      	add	r3, sp, #4
 80045ea:	f7ff ffc9 	bl	8004580 <__swhatbuf_r>
 80045ee:	9f00      	ldr	r7, [sp, #0]
 80045f0:	4605      	mov	r5, r0
 80045f2:	4639      	mov	r1, r7
 80045f4:	4630      	mov	r0, r6
 80045f6:	f7ff f8b9 	bl	800376c <_malloc_r>
 80045fa:	b948      	cbnz	r0, 8004610 <__smakebuf_r+0x46>
 80045fc:	f9b4 300c 	ldrsh.w	r3, [r4, #12]
 8004600:	059a      	lsls	r2, r3, #22
 8004602:	d4ee      	bmi.n	80045e2 <__smakebuf_r+0x18>
 8004604:	f023 0303 	bic.w	r3, r3, #3
 8004608:	f043 0302 	orr.w	r3, r3, #2
 800460c:	81a3      	strh	r3, [r4, #12]
 800460e:	e7e2      	b.n	80045d6 <__smakebuf_r+0xc>
 8004610:	89a3      	ldrh	r3, [r4, #12]
 8004612:	e9c4 0704 	strd	r0, r7, [r4, #16]
 8004616:	f043 0380 	orr.w	r3, r3, #128	@ 0x80
 800461a:	81a3      	strh	r3, [r4, #12]
 800461c:	9b01      	ldr	r3, [sp, #4]
 800461e:	6020      	str	r0, [r4, #0]
 8004620:	b15b      	cbz	r3, 800463a <__smakebuf_r+0x70>
 8004622:	4630      	mov	r0, r6
 8004624:	f9b4 100e 	ldrsh.w	r1, [r4, #14]
 8004628:	f000 f81e 	bl	8004668 <_isatty_r>
 800462c:	b128      	cbz	r0, 800463a <__smakebuf_r+0x70>
 800462e:	89a3      	ldrh	r3, [r4, #12]
 8004630:	f023 0303 	bic.w	r3, r3, #3
 8004634:	f043 0301 	orr.w	r3, r3, #1
 8004638:	81a3      	strh	r3, [r4, #12]
 800463a:	89a3      	ldrh	r3, [r4, #12]
 800463c:	431d      	orrs	r5, r3
 800463e:	81a5      	strh	r5, [r4, #12]
 8004640:	e7cf      	b.n	80045e2 <__smakebuf_r+0x18>
	...

08004644 <_fstat_r>:
 8004644:	b538      	push	{r3, r4, r5, lr}
 8004646:	2300      	movs	r3, #0
 8004648:	4d06      	ldr	r5, [pc, #24]	@ (8004664 <_fstat_r+0x20>)
 800464a:	4604      	mov	r4, r0
 800464c:	4608      	mov	r0, r1
 800464e:	4611      	mov	r1, r2
 8004650:	602b      	str	r3, [r5, #0]
 8004652:	f7fd fb3f 	bl	8001cd4 <_fstat>
 8004656:	1c43      	adds	r3, r0, #1
 8004658:	d102      	bne.n	8004660 <_fstat_r+0x1c>
 800465a:	682b      	ldr	r3, [r5, #0]
 800465c:	b103      	cbz	r3, 8004660 <_fstat_r+0x1c>
 800465e:	6023      	str	r3, [r4, #0]
 8004660:	bd38      	pop	{r3, r4, r5, pc}
 8004662:	bf00      	nop
 8004664:	20000558 	.word	0x20000558

08004668 <_isatty_r>:
 8004668:	b538      	push	{r3, r4, r5, lr}
 800466a:	2300      	movs	r3, #0
 800466c:	4d05      	ldr	r5, [pc, #20]	@ (8004684 <_isatty_r+0x1c>)
 800466e:	4604      	mov	r4, r0
 8004670:	4608      	mov	r0, r1
 8004672:	602b      	str	r3, [r5, #0]
 8004674:	f7fd fb3d 	bl	8001cf2 <_isatty>
 8004678:	1c43      	adds	r3, r0, #1
 800467a:	d102      	bne.n	8004682 <_isatty_r+0x1a>
 800467c:	682b      	ldr	r3, [r5, #0]
 800467e:	b103      	cbz	r3, 8004682 <_isatty_r+0x1a>
 8004680:	6023      	str	r3, [r4, #0]
 8004682:	bd38      	pop	{r3, r4, r5, pc}
 8004684:	20000558 	.word	0x20000558

08004688 <abort>:
 8004688:	2006      	movs	r0, #6
 800468a:	b508      	push	{r3, lr}
 800468c:	f000 f82c 	bl	80046e8 <raise>
 8004690:	2001      	movs	r0, #1
 8004692:	f7fd fad0 	bl	8001c36 <_exit>

08004696 <_raise_r>:
 8004696:	291f      	cmp	r1, #31
 8004698:	b538      	push	{r3, r4, r5, lr}
 800469a:	4605      	mov	r5, r0
 800469c:	460c      	mov	r4, r1
 800469e:	d904      	bls.n	80046aa <_raise_r+0x14>
 80046a0:	2316      	movs	r3, #22
 80046a2:	6003      	str	r3, [r0, #0]
 80046a4:	f04f 30ff 	mov.w	r0, #4294967295
 80046a8:	bd38      	pop	{r3, r4, r5, pc}
 80046aa:	6bc2      	ldr	r2, [r0, #60]	@ 0x3c
 80046ac:	b112      	cbz	r2, 80046b4 <_raise_r+0x1e>
 80046ae:	f852 3021 	ldr.w	r3, [r2, r1, lsl #2]
 80046b2:	b94b      	cbnz	r3, 80046c8 <_raise_r+0x32>
 80046b4:	4628      	mov	r0, r5
 80046b6:	f000 f831 	bl	800471c <_getpid_r>
 80046ba:	4622      	mov	r2, r4
 80046bc:	4601      	mov	r1, r0
 80046be:	4628      	mov	r0, r5
 80046c0:	e8bd 4038 	ldmia.w	sp!, {r3, r4, r5, lr}
 80046c4:	f000 b818 	b.w	80046f8 <_kill_r>
 80046c8:	2b01      	cmp	r3, #1
 80046ca:	d00a      	beq.n	80046e2 <_raise_r+0x4c>
 80046cc:	1c59      	adds	r1, r3, #1
 80046ce:	d103      	bne.n	80046d8 <_raise_r+0x42>
 80046d0:	2316      	movs	r3, #22
 80046d2:	6003      	str	r3, [r0, #0]
 80046d4:	2001      	movs	r0, #1
 80046d6:	e7e7      	b.n	80046a8 <_raise_r+0x12>
 80046d8:	2100      	movs	r1, #0
 80046da:	4620      	mov	r0, r4
 80046dc:	f842 1024 	str.w	r1, [r2, r4, lsl #2]
 80046e0:	4798      	blx	r3
 80046e2:	2000      	movs	r0, #0
 80046e4:	e7e0      	b.n	80046a8 <_raise_r+0x12>
	...

080046e8 <raise>:
 80046e8:	4b02      	ldr	r3, [pc, #8]	@ (80046f4 <raise+0xc>)
 80046ea:	4601      	mov	r1, r0
 80046ec:	6818      	ldr	r0, [r3, #0]
 80046ee:	f7ff bfd2 	b.w	8004696 <_raise_r>
 80046f2:	bf00      	nop
 80046f4:	20000010 	.word	0x20000010

080046f8 <_kill_r>:
 80046f8:	b538      	push	{r3, r4, r5, lr}
 80046fa:	2300      	movs	r3, #0
 80046fc:	4d06      	ldr	r5, [pc, #24]	@ (8004718 <_kill_r+0x20>)
 80046fe:	4604      	mov	r4, r0
 8004700:	4608      	mov	r0, r1
 8004702:	4611      	mov	r1, r2
 8004704:	602b      	str	r3, [r5, #0]
 8004706:	f7fd fa86 	bl	8001c16 <_kill>
 800470a:	1c43      	adds	r3, r0, #1
 800470c:	d102      	bne.n	8004714 <_kill_r+0x1c>
 800470e:	682b      	ldr	r3, [r5, #0]
 8004710:	b103      	cbz	r3, 8004714 <_kill_r+0x1c>
 8004712:	6023      	str	r3, [r4, #0]
 8004714:	bd38      	pop	{r3, r4, r5, pc}
 8004716:	bf00      	nop
 8004718:	20000558 	.word	0x20000558

0800471c <_getpid_r>:
 800471c:	f7fd ba74 	b.w	8001c08 <_getpid>

08004720 <_init>:
 8004720:	b5f8      	push	{r3, r4, r5, r6, r7, lr}
 8004722:	bf00      	nop
 8004724:	bcf8      	pop	{r3, r4, r5, r6, r7}
 8004726:	bc08      	pop	{r3}
 8004728:	469e      	mov	lr, r3
 800472a:	4770      	bx	lr

0800472c <_fini>:
 800472c:	b5f8      	push	{r3, r4, r5, r6, r7, lr}
 800472e:	bf00      	nop
 8004730:	bcf8      	pop	{r3, r4, r5, r6, r7}
 8004732:	bc08      	pop	{r3}
 8004734:	469e      	mov	lr, r3
 8004736:	4770      	bx	lr
