
Comitas_hackathon_CMSIS.elf:     file format elf32-littlearm

Sections:
Idx Name          Size      VMA       LMA       File off  Algn
  0 .isr_vector   00000130  08000000  08000000  00001000  2**0
                  CONTENTS, ALLOC, LOAD, READONLY, DATA
  1 .text         00003864  08000130  08000130  00001130  2**3
                  CONTENTS, ALLOC, LOAD, READONLY, CODE
  2 .rodata       00000370  08003998  08003998  00004998  2**3
                  CONTENTS, ALLOC, LOAD, READONLY, DATA
  3 .ARM.extab    00000000  08003d08  08003d08  000051d4  2**0
                  CONTENTS
  4 .ARM          00000008  08003d08  08003d08  00004d08  2**2
                  CONTENTS, ALLOC, LOAD, READONLY, DATA
  5 .preinit_array 00000000  08003d10  08003d10  000051d4  2**0
                  CONTENTS, ALLOC, LOAD, DATA
  6 .init_array   00000004  08003d10  08003d10  00004d10  2**2
                  CONTENTS, ALLOC, LOAD, READONLY, DATA
  7 .fini_array   00000004  08003d14  08003d14  00004d14  2**2
                  CONTENTS, ALLOC, LOAD, READONLY, DATA
  8 .data         000001d4  20000000  08003d18  00005000  2**2
                  CONTENTS, ALLOC, LOAD, DATA
  9 .bss          00000374  200001d4  08003eec  000051d4  2**2
                  ALLOC
 10 ._user_heap_stack 00000600  20000548  08003eec  00005548  2**0
                  ALLOC
 11 .ARM.attributes 00000029  00000000  00000000  000051d4  2**0
                  CONTENTS, READONLY
 12 .debug_info   000025c8  00000000  00000000  000051fd  2**0
                  CONTENTS, READONLY, DEBUGGING, OCTETS
 13 .debug_abbrev 00000b3b  00000000  00000000  000077c5  2**0
                  CONTENTS, READONLY, DEBUGGING, OCTETS
 14 .debug_aranges 000002b8  00000000  00000000  00008300  2**3
                  CONTENTS, READONLY, DEBUGGING, OCTETS
 15 .debug_rnglists 000001d4  00000000  00000000  000085b8  2**0
                  CONTENTS, READONLY, DEBUGGING, OCTETS
 16 .debug_macro  00011b1e  00000000  00000000  0000878c  2**0
                  CONTENTS, READONLY, DEBUGGING, OCTETS
 17 .debug_line   000031a8  00000000  00000000  0001a2aa  2**0
                  CONTENTS, READONLY, DEBUGGING, OCTETS
 18 .debug_str    000596d2  00000000  00000000  0001d452  2**0
                  CONTENTS, READONLY, DEBUGGING, OCTETS
 19 .comment      00000043  00000000  00000000  00076b24  2**0
                  CONTENTS, READONLY
 20 .debug_frame  0000189c  00000000  00000000  00076b68  2**2
                  CONTENTS, READONLY, DEBUGGING, OCTETS
 21 .debug_line_str 0000007c  00000000  00000000  00078404  2**0
                  CONTENTS, READONLY, DEBUGGING, OCTETS

Disassembly of section .text:

08000130 <__do_global_dtors_aux>:
 8000130:	b510      	push	{r4, lr}
 8000132:	4c05      	ldr	r4, [pc, #20]	@ (8000148 <__do_global_dtors_aux+0x18>)
 8000134:	7823      	ldrb	r3, [r4, #0]
 8000136:	b933      	cbnz	r3, 8000146 <__do_global_dtors_aux+0x16>
 8000138:	4b04      	ldr	r3, [pc, #16]	@ (800014c <__do_global_dtors_aux+0x1c>)
 800013a:	b113      	cbz	r3, 8000142 <__do_global_dtors_aux+0x12>
 800013c:	4804      	ldr	r0, [pc, #16]	@ (8000150 <__do_global_dtors_aux+0x20>)
 800013e:	f3af 8000 	nop.w
 8000142:	2301      	movs	r3, #1
 8000144:	7023      	strb	r3, [r4, #0]
 8000146:	bd10      	pop	{r4, pc}
 8000148:	200001d4 	.word	0x200001d4
 800014c:	00000000 	.word	0x00000000
 8000150:	0800397c 	.word	0x0800397c

08000154 <frame_dummy>:
 8000154:	b508      	push	{r3, lr}
 8000156:	4b03      	ldr	r3, [pc, #12]	@ (8000164 <frame_dummy+0x10>)
 8000158:	b11b      	cbz	r3, 8000162 <frame_dummy+0xe>
 800015a:	4903      	ldr	r1, [pc, #12]	@ (8000168 <frame_dummy+0x14>)
 800015c:	4803      	ldr	r0, [pc, #12]	@ (800016c <frame_dummy+0x18>)
 800015e:	f3af 8000 	nop.w
 8000162:	bd08      	pop	{r3, pc}
 8000164:	00000000 	.word	0x00000000
 8000168:	200001d8 	.word	0x200001d8
 800016c:	0800397c 	.word	0x0800397c

08000170 <strlen>:
 8000170:	4603      	mov	r3, r0
 8000172:	f813 2b01 	ldrb.w	r2, [r3], #1
 8000176:	2a00      	cmp	r2, #0
 8000178:	d1fb      	bne.n	8000172 <strlen+0x2>
 800017a:	1a18      	subs	r0, r3, r0
 800017c:	3801      	subs	r0, #1
 800017e:	4770      	bx	lr

08000180 <__aeabi_drsub>:
 8000180:	f081 4100 	eor.w	r1, r1, #2147483648	@ 0x80000000
 8000184:	e002      	b.n	800018c <__adddf3>
 8000186:	bf00      	nop

08000188 <__aeabi_dsub>:
 8000188:	f083 4300 	eor.w	r3, r3, #2147483648	@ 0x80000000

0800018c <__adddf3>:
 800018c:	b530      	push	{r4, r5, lr}
 800018e:	ea4f 0441 	mov.w	r4, r1, lsl #1
 8000192:	ea4f 0543 	mov.w	r5, r3, lsl #1
 8000196:	ea94 0f05 	teq	r4, r5
 800019a:	bf08      	it	eq
 800019c:	ea90 0f02 	teqeq	r0, r2
 80001a0:	bf1f      	itttt	ne
 80001a2:	ea54 0c00 	orrsne.w	ip, r4, r0
 80001a6:	ea55 0c02 	orrsne.w	ip, r5, r2
 80001aa:	ea7f 5c64 	mvnsne.w	ip, r4, asr #21
 80001ae:	ea7f 5c65 	mvnsne.w	ip, r5, asr #21
 80001b2:	f000 80e2 	beq.w	800037a <__adddf3+0x1ee>
 80001b6:	ea4f 5454 	mov.w	r4, r4, lsr #21
 80001ba:	ebd4 5555 	rsbs	r5, r4, r5, lsr #21
 80001be:	bfb8      	it	lt
 80001c0:	426d      	neglt	r5, r5
 80001c2:	dd0c      	ble.n	80001de <__adddf3+0x52>
 80001c4:	442c      	add	r4, r5
 80001c6:	ea80 0202 	eor.w	r2, r0, r2
 80001ca:	ea81 0303 	eor.w	r3, r1, r3
 80001ce:	ea82 0000 	eor.w	r0, r2, r0
 80001d2:	ea83 0101 	eor.w	r1, r3, r1
 80001d6:	ea80 0202 	eor.w	r2, r0, r2
 80001da:	ea81 0303 	eor.w	r3, r1, r3
 80001de:	2d36      	cmp	r5, #54	@ 0x36
 80001e0:	bf88      	it	hi
 80001e2:	bd30      	pophi	{r4, r5, pc}
 80001e4:	f011 4f00 	tst.w	r1, #2147483648	@ 0x80000000
 80001e8:	ea4f 3101 	mov.w	r1, r1, lsl #12
 80001ec:	f44f 1c80 	mov.w	ip, #1048576	@ 0x100000
 80001f0:	ea4c 3111 	orr.w	r1, ip, r1, lsr #12
 80001f4:	d002      	beq.n	80001fc <__adddf3+0x70>
 80001f6:	4240      	negs	r0, r0
 80001f8:	eb61 0141 	sbc.w	r1, r1, r1, lsl #1
 80001fc:	f013 4f00 	tst.w	r3, #2147483648	@ 0x80000000
 8000200:	ea4f 3303 	mov.w	r3, r3, lsl #12
 8000204:	ea4c 3313 	orr.w	r3, ip, r3, lsr #12
 8000208:	d002      	beq.n	8000210 <__adddf3+0x84>
 800020a:	4252      	negs	r2, r2
 800020c:	eb63 0343 	sbc.w	r3, r3, r3, lsl #1
 8000210:	ea94 0f05 	teq	r4, r5
 8000214:	f000 80a7 	beq.w	8000366 <__adddf3+0x1da>
 8000218:	f1a4 0401 	sub.w	r4, r4, #1
 800021c:	f1d5 0e20 	rsbs	lr, r5, #32
 8000220:	db0d      	blt.n	800023e <__adddf3+0xb2>
 8000222:	fa02 fc0e 	lsl.w	ip, r2, lr
 8000226:	fa22 f205 	lsr.w	r2, r2, r5
 800022a:	1880      	adds	r0, r0, r2
 800022c:	f141 0100 	adc.w	r1, r1, #0
 8000230:	fa03 f20e 	lsl.w	r2, r3, lr
 8000234:	1880      	adds	r0, r0, r2
 8000236:	fa43 f305 	asr.w	r3, r3, r5
 800023a:	4159      	adcs	r1, r3
 800023c:	e00e      	b.n	800025c <__adddf3+0xd0>
 800023e:	f1a5 0520 	sub.w	r5, r5, #32
 8000242:	f10e 0e20 	add.w	lr, lr, #32
 8000246:	2a01      	cmp	r2, #1
 8000248:	fa03 fc0e 	lsl.w	ip, r3, lr
 800024c:	bf28      	it	cs
 800024e:	f04c 0c02 	orrcs.w	ip, ip, #2
 8000252:	fa43 f305 	asr.w	r3, r3, r5
 8000256:	18c0      	adds	r0, r0, r3
 8000258:	eb51 71e3 	adcs.w	r1, r1, r3, asr #31
 800025c:	f001 4500 	and.w	r5, r1, #2147483648	@ 0x80000000
 8000260:	d507      	bpl.n	8000272 <__adddf3+0xe6>
 8000262:	f04f 0e00 	mov.w	lr, #0
 8000266:	f1dc 0c00 	rsbs	ip, ip, #0
 800026a:	eb7e 0000 	sbcs.w	r0, lr, r0
 800026e:	eb6e 0101 	sbc.w	r1, lr, r1
 8000272:	f5b1 1f80 	cmp.w	r1, #1048576	@ 0x100000
 8000276:	d31b      	bcc.n	80002b0 <__adddf3+0x124>
 8000278:	f5b1 1f00 	cmp.w	r1, #2097152	@ 0x200000
 800027c:	d30c      	bcc.n	8000298 <__adddf3+0x10c>
 800027e:	0849      	lsrs	r1, r1, #1
 8000280:	ea5f 0030 	movs.w	r0, r0, rrx
 8000284:	ea4f 0c3c 	mov.w	ip, ip, rrx
 8000288:	f104 0401 	add.w	r4, r4, #1
 800028c:	ea4f 5244 	mov.w	r2, r4, lsl #21
 8000290:	f512 0f80 	cmn.w	r2, #4194304	@ 0x400000
 8000294:	f080 809a 	bcs.w	80003cc <__adddf3+0x240>
 8000298:	f1bc 4f00 	cmp.w	ip, #2147483648	@ 0x80000000
 800029c:	bf08      	it	eq
 800029e:	ea5f 0c50 	movseq.w	ip, r0, lsr #1
 80002a2:	f150 0000 	adcs.w	r0, r0, #0
 80002a6:	eb41 5104 	adc.w	r1, r1, r4, lsl #20
 80002aa:	ea41 0105 	orr.w	r1, r1, r5
 80002ae:	bd30      	pop	{r4, r5, pc}
 80002b0:	ea5f 0c4c 	movs.w	ip, ip, lsl #1
 80002b4:	4140      	adcs	r0, r0
 80002b6:	eb41 0101 	adc.w	r1, r1, r1
 80002ba:	3c01      	subs	r4, #1
 80002bc:	bf28      	it	cs
 80002be:	f5b1 1f80 	cmpcs.w	r1, #1048576	@ 0x100000
 80002c2:	d2e9      	bcs.n	8000298 <__adddf3+0x10c>
 80002c4:	f091 0f00 	teq	r1, #0
 80002c8:	bf04      	itt	eq
 80002ca:	4601      	moveq	r1, r0
 80002cc:	2000      	moveq	r0, #0
 80002ce:	fab1 f381 	clz	r3, r1
 80002d2:	bf08      	it	eq
 80002d4:	3320      	addeq	r3, #32
 80002d6:	f1a3 030b 	sub.w	r3, r3, #11
 80002da:	f1b3 0220 	subs.w	r2, r3, #32
 80002de:	da0c      	bge.n	80002fa <__adddf3+0x16e>
 80002e0:	320c      	adds	r2, #12
 80002e2:	dd08      	ble.n	80002f6 <__adddf3+0x16a>
 80002e4:	f102 0c14 	add.w	ip, r2, #20
 80002e8:	f1c2 020c 	rsb	r2, r2, #12
 80002ec:	fa01 f00c 	lsl.w	r0, r1, ip
 80002f0:	fa21 f102 	lsr.w	r1, r1, r2
 80002f4:	e00c      	b.n	8000310 <__adddf3+0x184>
 80002f6:	f102 0214 	add.w	r2, r2, #20
 80002fa:	bfd8      	it	le
 80002fc:	f1c2 0c20 	rsble	ip, r2, #32
 8000300:	fa01 f102 	lsl.w	r1, r1, r2
 8000304:	fa20 fc0c 	lsr.w	ip, r0, ip
 8000308:	bfdc      	itt	le
 800030a:	ea41 010c 	orrle.w	r1, r1, ip
 800030e:	4090      	lslle	r0, r2
 8000310:	1ae4      	subs	r4, r4, r3
 8000312:	bfa2      	ittt	ge
 8000314:	eb01 5104 	addge.w	r1, r1, r4, lsl #20
 8000318:	4329      	orrge	r1, r5
 800031a:	bd30      	popge	{r4, r5, pc}
 800031c:	ea6f 0404 	mvn.w	r4, r4
 8000320:	3c1f      	subs	r4, #31
 8000322:	da1c      	bge.n	800035e <__adddf3+0x1d2>
 8000324:	340c      	adds	r4, #12
 8000326:	dc0e      	bgt.n	8000346 <__adddf3+0x1ba>
 8000328:	f104 0414 	add.w	r4, r4, #20
 800032c:	f1c4 0220 	rsb	r2, r4, #32
 8000330:	fa20 f004 	lsr.w	r0, r0, r4
 8000334:	fa01 f302 	lsl.w	r3, r1, r2
 8000338:	ea40 0003 	orr.w	r0, r0, r3
 800033c:	fa21 f304 	lsr.w	r3, r1, r4
 8000340:	ea45 0103 	orr.w	r1, r5, r3
 8000344:	bd30      	pop	{r4, r5, pc}
 8000346:	f1c4 040c 	rsb	r4, r4, #12
 800034a:	f1c4 0220 	rsb	r2, r4, #32
 800034e:	fa20 f002 	lsr.w	r0, r0, r2
 8000352:	fa01 f304 	lsl.w	r3, r1, r4
 8000356:	ea40 0003 	orr.w	r0, r0, r3
 800035a:	4629      	mov	r1, r5
 800035c:	bd30      	pop	{r4, r5, pc}
 800035e:	fa21 f004 	lsr.w	r0, r1, r4
 8000362:	4629      	mov	r1, r5
 8000364:	bd30      	pop	{r4, r5, pc}
 8000366:	f094 0f00 	teq	r4, #0
 800036a:	f483 1380 	eor.w	r3, r3, #1048576	@ 0x100000
 800036e:	bf06      	itte	eq
 8000370:	f481 1180 	eoreq.w	r1, r1, #1048576	@ 0x100000
 8000374:	3401      	addeq	r4, #1
 8000376:	3d01      	subne	r5, #1
 8000378:	e74e      	b.n	8000218 <__adddf3+0x8c>
 800037a:	ea7f 5c64 	mvns.w	ip, r4, asr #21
 800037e:	bf18      	it	ne
 8000380:	ea7f 5c65 	mvnsne.w	ip, r5, asr #21
 8000384:	d029      	beq.n	80003da <__adddf3+0x24e>
 8000386:	ea94 0f05 	teq	r4, r5
 800038a:	bf08      	it	eq
 800038c:	ea90 0f02 	teqeq	r0, r2
 8000390:	d005      	beq.n	800039e <__adddf3+0x212>
 8000392:	ea54 0c00 	orrs.w	ip, r4, r0
 8000396:	bf04      	itt	eq
 8000398:	4619      	moveq	r1, r3
 800039a:	4610      	moveq	r0, r2
 800039c:	bd30      	pop	{r4, r5, pc}
 800039e:	ea91 0f03 	teq	r1, r3
 80003a2:	bf1e      	ittt	ne
 80003a4:	2100      	movne	r1, #0
 80003a6:	2000      	movne	r0, #0
 80003a8:	bd30      	popne	{r4, r5, pc}
 80003aa:	ea5f 5c54 	movs.w	ip, r4, lsr #21
 80003ae:	d105      	bne.n	80003bc <__adddf3+0x230>
 80003b0:	0040      	lsls	r0, r0, #1
 80003b2:	4149      	adcs	r1, r1
 80003b4:	bf28      	it	cs
 80003b6:	f041 4100 	orrcs.w	r1, r1, #2147483648	@ 0x80000000
 80003ba:	bd30      	pop	{r4, r5, pc}
 80003bc:	f514 0480 	adds.w	r4, r4, #4194304	@ 0x400000
 80003c0:	bf3c      	itt	cc
 80003c2:	f501 1180 	addcc.w	r1, r1, #1048576	@ 0x100000
 80003c6:	bd30      	popcc	{r4, r5, pc}
 80003c8:	f001 4500 	and.w	r5, r1, #2147483648	@ 0x80000000
 80003cc:	f045 41fe 	orr.w	r1, r5, #2130706432	@ 0x7f000000
 80003d0:	f441 0170 	orr.w	r1, r1, #15728640	@ 0xf00000
 80003d4:	f04f 0000 	mov.w	r0, #0
 80003d8:	bd30      	pop	{r4, r5, pc}
 80003da:	ea7f 5c64 	mvns.w	ip, r4, asr #21
 80003de:	bf1a      	itte	ne
 80003e0:	4619      	movne	r1, r3
 80003e2:	4610      	movne	r0, r2
 80003e4:	ea7f 5c65 	mvnseq.w	ip, r5, asr #21
 80003e8:	bf1c      	itt	ne
 80003ea:	460b      	movne	r3, r1
 80003ec:	4602      	movne	r2, r0
 80003ee:	ea50 3401 	orrs.w	r4, r0, r1, lsl #12
 80003f2:	bf06      	itte	eq
 80003f4:	ea52 3503 	orrseq.w	r5, r2, r3, lsl #12
 80003f8:	ea91 0f03 	teqeq	r1, r3
 80003fc:	f441 2100 	orrne.w	r1, r1, #524288	@ 0x80000
 8000400:	bd30      	pop	{r4, r5, pc}
 8000402:	bf00      	nop

08000404 <__aeabi_ui2d>:
 8000404:	f090 0f00 	teq	r0, #0
 8000408:	bf04      	itt	eq
 800040a:	2100      	moveq	r1, #0
 800040c:	4770      	bxeq	lr
 800040e:	b530      	push	{r4, r5, lr}
 8000410:	f44f 6480 	mov.w	r4, #1024	@ 0x400
 8000414:	f104 0432 	add.w	r4, r4, #50	@ 0x32
 8000418:	f04f 0500 	mov.w	r5, #0
 800041c:	f04f 0100 	mov.w	r1, #0
 8000420:	e750      	b.n	80002c4 <__adddf3+0x138>
 8000422:	bf00      	nop

08000424 <__aeabi_i2d>:
 8000424:	f090 0f00 	teq	r0, #0
 8000428:	bf04      	itt	eq
 800042a:	2100      	moveq	r1, #0
 800042c:	4770      	bxeq	lr
 800042e:	b530      	push	{r4, r5, lr}
 8000430:	f44f 6480 	mov.w	r4, #1024	@ 0x400
 8000434:	f104 0432 	add.w	r4, r4, #50	@ 0x32
 8000438:	f010 4500 	ands.w	r5, r0, #2147483648	@ 0x80000000
 800043c:	bf48      	it	mi
 800043e:	4240      	negmi	r0, r0
 8000440:	f04f 0100 	mov.w	r1, #0
 8000444:	e73e      	b.n	80002c4 <__adddf3+0x138>
 8000446:	bf00      	nop

08000448 <__aeabi_f2d>:
 8000448:	0042      	lsls	r2, r0, #1
 800044a:	ea4f 01e2 	mov.w	r1, r2, asr #3
 800044e:	ea4f 0131 	mov.w	r1, r1, rrx
 8000452:	ea4f 7002 	mov.w	r0, r2, lsl #28
 8000456:	bf1f      	itttt	ne
 8000458:	f012 437f 	andsne.w	r3, r2, #4278190080	@ 0xff000000
 800045c:	f093 4f7f 	teqne	r3, #4278190080	@ 0xff000000
 8000460:	f081 5160 	eorne.w	r1, r1, #939524096	@ 0x38000000
 8000464:	4770      	bxne	lr
 8000466:	f032 427f 	bics.w	r2, r2, #4278190080	@ 0xff000000
 800046a:	bf08      	it	eq
 800046c:	4770      	bxeq	lr
 800046e:	f093 4f7f 	teq	r3, #4278190080	@ 0xff000000
 8000472:	bf04      	itt	eq
 8000474:	f441 2100 	orreq.w	r1, r1, #524288	@ 0x80000
 8000478:	4770      	bxeq	lr
 800047a:	b530      	push	{r4, r5, lr}
 800047c:	f44f 7460 	mov.w	r4, #896	@ 0x380
 8000480:	f001 4500 	and.w	r5, r1, #2147483648	@ 0x80000000
 8000484:	f021 4100 	bic.w	r1, r1, #2147483648	@ 0x80000000
 8000488:	e71c      	b.n	80002c4 <__adddf3+0x138>
 800048a:	bf00      	nop

0800048c <__aeabi_ul2d>:
 800048c:	ea50 0201 	orrs.w	r2, r0, r1
 8000490:	bf08      	it	eq
 8000492:	4770      	bxeq	lr
 8000494:	b530      	push	{r4, r5, lr}
 8000496:	f04f 0500 	mov.w	r5, #0
 800049a:	e00a      	b.n	80004b2 <__aeabi_l2d+0x16>

0800049c <__aeabi_l2d>:
 800049c:	ea50 0201 	orrs.w	r2, r0, r1
 80004a0:	bf08      	it	eq
 80004a2:	4770      	bxeq	lr
 80004a4:	b530      	push	{r4, r5, lr}
 80004a6:	f011 4500 	ands.w	r5, r1, #2147483648	@ 0x80000000
 80004aa:	d502      	bpl.n	80004b2 <__aeabi_l2d+0x16>
 80004ac:	4240      	negs	r0, r0
 80004ae:	eb61 0141 	sbc.w	r1, r1, r1, lsl #1
 80004b2:	f44f 6480 	mov.w	r4, #1024	@ 0x400
 80004b6:	f104 0432 	add.w	r4, r4, #50	@ 0x32
 80004ba:	ea5f 5c91 	movs.w	ip, r1, lsr #22
 80004be:	f43f aed8 	beq.w	8000272 <__adddf3+0xe6>
 80004c2:	f04f 0203 	mov.w	r2, #3
 80004c6:	ea5f 0cdc 	movs.w	ip, ip, lsr #3
 80004ca:	bf18      	it	ne
 80004cc:	3203      	addne	r2, #3
 80004ce:	ea5f 0cdc 	movs.w	ip, ip, lsr #3
 80004d2:	bf18      	it	ne
 80004d4:	3203      	addne	r2, #3
 80004d6:	eb02 02dc 	add.w	r2, r2, ip, lsr #3
 80004da:	f1c2 0320 	rsb	r3, r2, #32
 80004de:	fa00 fc03 	lsl.w	ip, r0, r3
 80004e2:	fa20 f002 	lsr.w	r0, r0, r2
 80004e6:	fa01 fe03 	lsl.w	lr, r1, r3
 80004ea:	ea40 000e 	orr.w	r0, r0, lr
 80004ee:	fa21 f102 	lsr.w	r1, r1, r2
 80004f2:	4414      	add	r4, r2
 80004f4:	e6bd      	b.n	8000272 <__adddf3+0xe6>
 80004f6:	bf00      	nop

080004f8 <__aeabi_dmul>:
 80004f8:	b570      	push	{r4, r5, r6, lr}
 80004fa:	f04f 0cff 	mov.w	ip, #255	@ 0xff
 80004fe:	f44c 6ce0 	orr.w	ip, ip, #1792	@ 0x700
 8000502:	ea1c 5411 	ands.w	r4, ip, r1, lsr #20
 8000506:	bf1d      	ittte	ne
 8000508:	ea1c 5513 	andsne.w	r5, ip, r3, lsr #20
 800050c:	ea94 0f0c 	teqne	r4, ip
 8000510:	ea95 0f0c 	teqne	r5, ip
 8000514:	f000 f8de 	bleq	80006d4 <__aeabi_dmul+0x1dc>
 8000518:	442c      	add	r4, r5
 800051a:	ea81 0603 	eor.w	r6, r1, r3
 800051e:	ea21 514c 	bic.w	r1, r1, ip, lsl #21
 8000522:	ea23 534c 	bic.w	r3, r3, ip, lsl #21
 8000526:	ea50 3501 	orrs.w	r5, r0, r1, lsl #12
 800052a:	bf18      	it	ne
 800052c:	ea52 3503 	orrsne.w	r5, r2, r3, lsl #12
 8000530:	f441 1180 	orr.w	r1, r1, #1048576	@ 0x100000
 8000534:	f443 1380 	orr.w	r3, r3, #1048576	@ 0x100000
 8000538:	d038      	beq.n	80005ac <__aeabi_dmul+0xb4>
 800053a:	fba0 ce02 	umull	ip, lr, r0, r2
 800053e:	f04f 0500 	mov.w	r5, #0
 8000542:	fbe1 e502 	umlal	lr, r5, r1, r2
 8000546:	f006 4200 	and.w	r2, r6, #2147483648	@ 0x80000000
 800054a:	fbe0 e503 	umlal	lr, r5, r0, r3
 800054e:	f04f 0600 	mov.w	r6, #0
 8000552:	fbe1 5603 	umlal	r5, r6, r1, r3
 8000556:	f09c 0f00 	teq	ip, #0
 800055a:	bf18      	it	ne
 800055c:	f04e 0e01 	orrne.w	lr, lr, #1
 8000560:	f1a4 04ff 	sub.w	r4, r4, #255	@ 0xff
 8000564:	f5b6 7f00 	cmp.w	r6, #512	@ 0x200
 8000568:	f564 7440 	sbc.w	r4, r4, #768	@ 0x300
 800056c:	d204      	bcs.n	8000578 <__aeabi_dmul+0x80>
 800056e:	ea5f 0e4e 	movs.w	lr, lr, lsl #1
 8000572:	416d      	adcs	r5, r5
 8000574:	eb46 0606 	adc.w	r6, r6, r6
 8000578:	ea42 21c6 	orr.w	r1, r2, r6, lsl #11
 800057c:	ea41 5155 	orr.w	r1, r1, r5, lsr #21
 8000580:	ea4f 20c5 	mov.w	r0, r5, lsl #11
 8000584:	ea40 505e 	orr.w	r0, r0, lr, lsr #21
 8000588:	ea4f 2ece 	mov.w	lr, lr, lsl #11
 800058c:	f1b4 0cfd 	subs.w	ip, r4, #253	@ 0xfd
 8000590:	bf88      	it	hi
 8000592:	f5bc 6fe0 	cmphi.w	ip, #1792	@ 0x700
 8000596:	d81e      	bhi.n	80005d6 <__aeabi_dmul+0xde>
 8000598:	f1be 4f00 	cmp.w	lr, #2147483648	@ 0x80000000
 800059c:	bf08      	it	eq
 800059e:	ea5f 0e50 	movseq.w	lr, r0, lsr #1
 80005a2:	f150 0000 	adcs.w	r0, r0, #0
 80005a6:	eb41 5104 	adc.w	r1, r1, r4, lsl #20
 80005aa:	bd70      	pop	{r4, r5, r6, pc}
 80005ac:	f006 4600 	and.w	r6, r6, #2147483648	@ 0x80000000
 80005b0:	ea46 0101 	orr.w	r1, r6, r1
 80005b4:	ea40 0002 	orr.w	r0, r0, r2
 80005b8:	ea81 0103 	eor.w	r1, r1, r3
 80005bc:	ebb4 045c 	subs.w	r4, r4, ip, lsr #1
 80005c0:	bfc2      	ittt	gt
 80005c2:	ebd4 050c 	rsbsgt	r5, r4, ip
 80005c6:	ea41 5104 	orrgt.w	r1, r1, r4, lsl #20
 80005ca:	bd70      	popgt	{r4, r5, r6, pc}
 80005cc:	f441 1180 	orr.w	r1, r1, #1048576	@ 0x100000
 80005d0:	f04f 0e00 	mov.w	lr, #0
 80005d4:	3c01      	subs	r4, #1
 80005d6:	f300 80ab 	bgt.w	8000730 <__aeabi_dmul+0x238>
 80005da:	f114 0f36 	cmn.w	r4, #54	@ 0x36
 80005de:	bfde      	ittt	le
 80005e0:	2000      	movle	r0, #0
 80005e2:	f001 4100 	andle.w	r1, r1, #2147483648	@ 0x80000000
 80005e6:	bd70      	pople	{r4, r5, r6, pc}
 80005e8:	f1c4 0400 	rsb	r4, r4, #0
 80005ec:	3c20      	subs	r4, #32
 80005ee:	da35      	bge.n	800065c <__aeabi_dmul+0x164>
 80005f0:	340c      	adds	r4, #12
 80005f2:	dc1b      	bgt.n	800062c <__aeabi_dmul+0x134>
 80005f4:	f104 0414 	add.w	r4, r4, #20
 80005f8:	f1c4 0520 	rsb	r5, r4, #32
 80005fc:	fa00 f305 	lsl.w	r3, r0, r5
 8000600:	fa20 f004 	lsr.w	r0, r0, r4
 8000604:	fa01 f205 	lsl.w	r2, r1, r5
 8000608:	ea40 0002 	orr.w	r0, r0, r2
 800060c:	f001 4200 	and.w	r2, r1, #2147483648	@ 0x80000000
 8000610:	f021 4100 	bic.w	r1, r1, #2147483648	@ 0x80000000
 8000614:	eb10 70d3 	adds.w	r0, r0, r3, lsr #31
 8000618:	fa21 f604 	lsr.w	r6, r1, r4
 800061c:	eb42 0106 	adc.w	r1, r2, r6
 8000620:	ea5e 0e43 	orrs.w	lr, lr, r3, lsl #1
 8000624:	bf08      	it	eq
 8000626:	ea20 70d3 	biceq.w	r0, r0, r3, lsr #31
 800062a:	bd70      	pop	{r4, r5, r6, pc}
 800062c:	f1c4 040c 	rsb	r4, r4, #12
 8000630:	f1c4 0520 	rsb	r5, r4, #32
 8000634:	fa00 f304 	lsl.w	r3, r0, r4
 8000638:	fa20 f005 	lsr.w	r0, r0, r5
 800063c:	fa01 f204 	lsl.w	r2, r1, r4
 8000640:	ea40 0002 	orr.w	r0, r0, r2
 8000644:	f001 4100 	and.w	r1, r1, #2147483648	@ 0x80000000
 8000648:	eb10 70d3 	adds.w	r0, r0, r3, lsr #31
 800064c:	f141 0100 	adc.w	r1, r1, #0
 8000650:	ea5e 0e43 	orrs.w	lr, lr, r3, lsl #1
 8000654:	bf08      	it	eq
 8000656:	ea20 70d3 	biceq.w	r0, r0, r3, lsr #31
 800065a:	bd70      	pop	{r4, r5, r6, pc}
 800065c:	f1c4 0520 	rsb	r5, r4, #32
 8000660:	fa00 f205 	lsl.w	r2, r0, r5
 8000664:	ea4e 0e02 	orr.w	lr, lr, r2
 8000668:	fa20 f304 	lsr.w	r3, r0, r4
 800066c:	fa01 f205 	lsl.w	r2, r1, r5
 8000670:	ea43 0302 	orr.w	r3, r3, r2
 8000674:	fa21 f004 	lsr.w	r0, r1, r4
 8000678:	f001 4100 	and.w	r1, r1, #2147483648	@ 0x80000000
 800067c:	fa21 f204 	lsr.w	r2, r1, r4
 8000680:	ea20 0002 	bic.w	r0, r0, r2
 8000684:	eb00 70d3 	add.w	r0, r0, r3, lsr #31
 8000688:	ea5e 0e43 	orrs.w	lr, lr, r3, lsl #1
 800068c:	bf08      	it	eq
 800068e:	ea20 70d3 	biceq.w	r0, r0, r3, lsr #31
 8000692:	bd70      	pop	{r4, r5, r6, pc}
 8000694:	f094 0f00 	teq	r4, #0
 8000698:	d10f      	bne.n	80006ba <__aeabi_dmul+0x1c2>
 800069a:	f001 4600 	and.w	r6, r1, #2147483648	@ 0x80000000
 800069e:	0040      	lsls	r0, r0, #1
 80006a0:	eb41 0101 	adc.w	r1, r1, r1
 80006a4:	f411 1f80 	tst.w	r1, #1048576	@ 0x100000
 80006a8:	bf08      	it	eq
 80006aa:	3c01      	subeq	r4, #1
 80006ac:	d0f7      	beq.n	800069e <__aeabi_dmul+0x1a6>
 80006ae:	ea41 0106 	orr.w	r1, r1, r6
 80006b2:	f095 0f00 	teq	r5, #0
 80006b6:	bf18      	it	ne
 80006b8:	4770      	bxne	lr
 80006ba:	f003 4600 	and.w	r6, r3, #2147483648	@ 0x80000000
 80006be:	0052      	lsls	r2, r2, #1
 80006c0:	eb43 0303 	adc.w	r3, r3, r3
 80006c4:	f413 1f80 	tst.w	r3, #1048576	@ 0x100000
 80006c8:	bf08      	it	eq
 80006ca:	3d01      	subeq	r5, #1
 80006cc:	d0f7      	beq.n	80006be <__aeabi_dmul+0x1c6>
 80006ce:	ea43 0306 	orr.w	r3, r3, r6
 80006d2:	4770      	bx	lr
 80006d4:	ea94 0f0c 	teq	r4, ip
 80006d8:	ea0c 5513 	and.w	r5, ip, r3, lsr #20
 80006dc:	bf18      	it	ne
 80006de:	ea95 0f0c 	teqne	r5, ip
 80006e2:	d00c      	beq.n	80006fe <__aeabi_dmul+0x206>
 80006e4:	ea50 0641 	orrs.w	r6, r0, r1, lsl #1
 80006e8:	bf18      	it	ne
 80006ea:	ea52 0643 	orrsne.w	r6, r2, r3, lsl #1
 80006ee:	d1d1      	bne.n	8000694 <__aeabi_dmul+0x19c>
 80006f0:	ea81 0103 	eor.w	r1, r1, r3
 80006f4:	f001 4100 	and.w	r1, r1, #2147483648	@ 0x80000000
 80006f8:	f04f 0000 	mov.w	r0, #0
 80006fc:	bd70      	pop	{r4, r5, r6, pc}
 80006fe:	ea50 0641 	orrs.w	r6, r0, r1, lsl #1
 8000702:	bf06      	itte	eq
 8000704:	4610      	moveq	r0, r2
 8000706:	4619      	moveq	r1, r3
 8000708:	ea52 0643 	orrsne.w	r6, r2, r3, lsl #1
 800070c:	d019      	beq.n	8000742 <__aeabi_dmul+0x24a>
 800070e:	ea94 0f0c 	teq	r4, ip
 8000712:	d102      	bne.n	800071a <__aeabi_dmul+0x222>
 8000714:	ea50 3601 	orrs.w	r6, r0, r1, lsl #12
 8000718:	d113      	bne.n	8000742 <__aeabi_dmul+0x24a>
 800071a:	ea95 0f0c 	teq	r5, ip
 800071e:	d105      	bne.n	800072c <__aeabi_dmul+0x234>
 8000720:	ea52 3603 	orrs.w	r6, r2, r3, lsl #12
 8000724:	bf1c      	itt	ne
 8000726:	4610      	movne	r0, r2
 8000728:	4619      	movne	r1, r3
 800072a:	d10a      	bne.n	8000742 <__aeabi_dmul+0x24a>
 800072c:	ea81 0103 	eor.w	r1, r1, r3
 8000730:	f001 4100 	and.w	r1, r1, #2147483648	@ 0x80000000
 8000734:	f041 41fe 	orr.w	r1, r1, #2130706432	@ 0x7f000000
 8000738:	f441 0170 	orr.w	r1, r1, #15728640	@ 0xf00000
 800073c:	f04f 0000 	mov.w	r0, #0
 8000740:	bd70      	pop	{r4, r5, r6, pc}
 8000742:	f041 41fe 	orr.w	r1, r1, #2130706432	@ 0x7f000000
 8000746:	f441 0178 	orr.w	r1, r1, #16252928	@ 0xf80000
 800074a:	bd70      	pop	{r4, r5, r6, pc}

0800074c <__aeabi_ddiv>:
 800074c:	b570      	push	{r4, r5, r6, lr}
 800074e:	f04f 0cff 	mov.w	ip, #255	@ 0xff
 8000752:	f44c 6ce0 	orr.w	ip, ip, #1792	@ 0x700
 8000756:	ea1c 5411 	ands.w	r4, ip, r1, lsr #20
 800075a:	bf1d      	ittte	ne
 800075c:	ea1c 5513 	andsne.w	r5, ip, r3, lsr #20
 8000760:	ea94 0f0c 	teqne	r4, ip
 8000764:	ea95 0f0c 	teqne	r5, ip
 8000768:	f000 f8a7 	bleq	80008ba <__aeabi_ddiv+0x16e>
 800076c:	eba4 0405 	sub.w	r4, r4, r5
 8000770:	ea81 0e03 	eor.w	lr, r1, r3
 8000774:	ea52 3503 	orrs.w	r5, r2, r3, lsl #12
 8000778:	ea4f 3101 	mov.w	r1, r1, lsl #12
 800077c:	f000 8088 	beq.w	8000890 <__aeabi_ddiv+0x144>
 8000780:	ea4f 3303 	mov.w	r3, r3, lsl #12
 8000784:	f04f 5580 	mov.w	r5, #268435456	@ 0x10000000
 8000788:	ea45 1313 	orr.w	r3, r5, r3, lsr #4
 800078c:	ea43 6312 	orr.w	r3, r3, r2, lsr #24
 8000790:	ea4f 2202 	mov.w	r2, r2, lsl #8
 8000794:	ea45 1511 	orr.w	r5, r5, r1, lsr #4
 8000798:	ea45 6510 	orr.w	r5, r5, r0, lsr #24
 800079c:	ea4f 2600 	mov.w	r6, r0, lsl #8
 80007a0:	f00e 4100 	and.w	r1, lr, #2147483648	@ 0x80000000
 80007a4:	429d      	cmp	r5, r3
 80007a6:	bf08      	it	eq
 80007a8:	4296      	cmpeq	r6, r2
 80007aa:	f144 04fd 	adc.w	r4, r4, #253	@ 0xfd
 80007ae:	f504 7440 	add.w	r4, r4, #768	@ 0x300
 80007b2:	d202      	bcs.n	80007ba <__aeabi_ddiv+0x6e>
 80007b4:	085b      	lsrs	r3, r3, #1
 80007b6:	ea4f 0232 	mov.w	r2, r2, rrx
 80007ba:	1ab6      	subs	r6, r6, r2
 80007bc:	eb65 0503 	sbc.w	r5, r5, r3
 80007c0:	085b      	lsrs	r3, r3, #1
 80007c2:	ea4f 0232 	mov.w	r2, r2, rrx
 80007c6:	f44f 1080 	mov.w	r0, #1048576	@ 0x100000
 80007ca:	f44f 2c00 	mov.w	ip, #524288	@ 0x80000
 80007ce:	ebb6 0e02 	subs.w	lr, r6, r2
 80007d2:	eb75 0e03 	sbcs.w	lr, r5, r3
 80007d6:	bf22      	ittt	cs
 80007d8:	1ab6      	subcs	r6, r6, r2
 80007da:	4675      	movcs	r5, lr
 80007dc:	ea40 000c 	orrcs.w	r0, r0, ip
 80007e0:	085b      	lsrs	r3, r3, #1
 80007e2:	ea4f 0232 	mov.w	r2, r2, rrx
 80007e6:	ebb6 0e02 	subs.w	lr, r6, r2
 80007ea:	eb75 0e03 	sbcs.w	lr, r5, r3
 80007ee:	bf22      	ittt	cs
 80007f0:	1ab6      	subcs	r6, r6, r2
 80007f2:	4675      	movcs	r5, lr
 80007f4:	ea40 005c 	orrcs.w	r0, r0, ip, lsr #1
 80007f8:	085b      	lsrs	r3, r3, #1
 80007fa:	ea4f 0232 	mov.w	r2, r2, rrx
 80007fe:	ebb6 0e02 	subs.w	lr, r6, r2
 8000802:	eb75 0e03 	sbcs.w	lr, r5, r3
 8000806:	bf22      	ittt	cs
 8000808:	1ab6      	subcs	r6, r6, r2
 800080a:	4675      	movcs	r5, lr
 800080c:	ea40 009c 	orrcs.w	r0, r0, ip, lsr #2
 8000810:	085b      	lsrs	r3, r3, #1
 8000812:	ea4f 0232 	mov.w	r2, r2, rrx
 8000816:	ebb6 0e02 	subs.w	lr, r6, r2
 800081a:	eb75 0e03 	sbcs.w	lr, r5, r3
 800081e:	bf22      	ittt	cs
 8000820:	1ab6      	subcs	r6, r6, r2
 8000822:	4675      	movcs	r5, lr
 8000824:	ea40 00dc 	orrcs.w	r0, r0, ip, lsr #3
 8000828:	ea55 0e06 	orrs.w	lr, r5, r6
 800082c:	d018      	beq.n	8000860 <__aeabi_ddiv+0x114>
 800082e:	ea4f 1505 	mov.w	r5, r5, lsl #4
 8000832:	ea45 7516 	orr.w	r5, r5, r6, lsr #28
 8000836:	ea4f 1606 	mov.w	r6, r6, lsl #4
 800083a:	ea4f 03c3 	mov.w	r3, r3, lsl #3
 800083e:	ea43 7352 	orr.w	r3, r3, r2, lsr #29
 8000842:	ea4f 02c2 	mov.w	r2, r2, lsl #3
 8000846:	ea5f 1c1c 	movs.w	ip, ip, lsr #4
 800084a:	d1c0      	bne.n	80007ce <__aeabi_ddiv+0x82>
 800084c:	f411 1f80 	tst.w	r1, #1048576	@ 0x100000
 8000850:	d10b      	bne.n	800086a <__aeabi_ddiv+0x11e>
 8000852:	ea41 0100 	orr.w	r1, r1, r0
 8000856:	f04f 0000 	mov.w	r0, #0
 800085a:	f04f 4c00 	mov.w	ip, #2147483648	@ 0x80000000
 800085e:	e7b6      	b.n	80007ce <__aeabi_ddiv+0x82>
 8000860:	f411 1f80 	tst.w	r1, #1048576	@ 0x100000
 8000864:	bf04      	itt	eq
 8000866:	4301      	orreq	r1, r0
 8000868:	2000      	moveq	r0, #0
 800086a:	f1b4 0cfd 	subs.w	ip, r4, #253	@ 0xfd
 800086e:	bf88      	it	hi
 8000870:	f5bc 6fe0 	cmphi.w	ip, #1792	@ 0x700
 8000874:	f63f aeaf 	bhi.w	80005d6 <__aeabi_dmul+0xde>
 8000878:	ebb5 0c03 	subs.w	ip, r5, r3
 800087c:	bf04      	itt	eq
 800087e:	ebb6 0c02 	subseq.w	ip, r6, r2
 8000882:	ea5f 0c50 	movseq.w	ip, r0, lsr #1
 8000886:	f150 0000 	adcs.w	r0, r0, #0
 800088a:	eb41 5104 	adc.w	r1, r1, r4, lsl #20
 800088e:	bd70      	pop	{r4, r5, r6, pc}
 8000890:	f00e 4e00 	and.w	lr, lr, #2147483648	@ 0x80000000
 8000894:	ea4e 3111 	orr.w	r1, lr, r1, lsr #12
 8000898:	eb14 045c 	adds.w	r4, r4, ip, lsr #1
 800089c:	bfc2      	ittt	gt
 800089e:	ebd4 050c 	rsbsgt	r5, r4, ip
 80008a2:	ea41 5104 	orrgt.w	r1, r1, r4, lsl #20
 80008a6:	bd70      	popgt	{r4, r5, r6, pc}
 80008a8:	f441 1180 	orr.w	r1, r1, #1048576	@ 0x100000
 80008ac:	f04f 0e00 	mov.w	lr, #0
 80008b0:	3c01      	subs	r4, #1
 80008b2:	e690      	b.n	80005d6 <__aeabi_dmul+0xde>
 80008b4:	ea45 0e06 	orr.w	lr, r5, r6
 80008b8:	e68d      	b.n	80005d6 <__aeabi_dmul+0xde>
 80008ba:	ea0c 5513 	and.w	r5, ip, r3, lsr #20
 80008be:	ea94 0f0c 	teq	r4, ip
 80008c2:	bf08      	it	eq
 80008c4:	ea95 0f0c 	teqeq	r5, ip
 80008c8:	f43f af3b 	beq.w	8000742 <__aeabi_dmul+0x24a>
 80008cc:	ea94 0f0c 	teq	r4, ip
 80008d0:	d10a      	bne.n	80008e8 <__aeabi_ddiv+0x19c>
 80008d2:	ea50 3401 	orrs.w	r4, r0, r1, lsl #12
 80008d6:	f47f af34 	bne.w	8000742 <__aeabi_dmul+0x24a>
 80008da:	ea95 0f0c 	teq	r5, ip
 80008de:	f47f af25 	bne.w	800072c <__aeabi_dmul+0x234>
 80008e2:	4610      	mov	r0, r2
 80008e4:	4619      	mov	r1, r3
 80008e6:	e72c      	b.n	8000742 <__aeabi_dmul+0x24a>
 80008e8:	ea95 0f0c 	teq	r5, ip
 80008ec:	d106      	bne.n	80008fc <__aeabi_ddiv+0x1b0>
 80008ee:	ea52 3503 	orrs.w	r5, r2, r3, lsl #12
 80008f2:	f43f aefd 	beq.w	80006f0 <__aeabi_dmul+0x1f8>
 80008f6:	4610      	mov	r0, r2
 80008f8:	4619      	mov	r1, r3
 80008fa:	e722      	b.n	8000742 <__aeabi_dmul+0x24a>
 80008fc:	ea50 0641 	orrs.w	r6, r0, r1, lsl #1
 8000900:	bf18      	it	ne
 8000902:	ea52 0643 	orrsne.w	r6, r2, r3, lsl #1
 8000906:	f47f aec5 	bne.w	8000694 <__aeabi_dmul+0x19c>
 800090a:	ea50 0441 	orrs.w	r4, r0, r1, lsl #1
 800090e:	f47f af0d 	bne.w	800072c <__aeabi_dmul+0x234>
 8000912:	ea52 0543 	orrs.w	r5, r2, r3, lsl #1
 8000916:	f47f aeeb 	bne.w	80006f0 <__aeabi_dmul+0x1f8>
 800091a:	e712      	b.n	8000742 <__aeabi_dmul+0x24a>

0800091c <__gedf2>:
 800091c:	f04f 3cff 	mov.w	ip, #4294967295
 8000920:	e006      	b.n	8000930 <__cmpdf2+0x4>
 8000922:	bf00      	nop

08000924 <__ledf2>:
 8000924:	f04f 0c01 	mov.w	ip, #1
 8000928:	e002      	b.n	8000930 <__cmpdf2+0x4>
 800092a:	bf00      	nop

0800092c <__cmpdf2>:
 800092c:	f04f 0c01 	mov.w	ip, #1
 8000930:	f84d cd04 	str.w	ip, [sp, #-4]!
 8000934:	ea4f 0c41 	mov.w	ip, r1, lsl #1
 8000938:	ea7f 5c6c 	mvns.w	ip, ip, asr #21
 800093c:	ea4f 0c43 	mov.w	ip, r3, lsl #1
 8000940:	bf18      	it	ne
 8000942:	ea7f 5c6c 	mvnsne.w	ip, ip, asr #21
 8000946:	d01b      	beq.n	8000980 <__cmpdf2+0x54>
 8000948:	b001      	add	sp, #4
 800094a:	ea50 0c41 	orrs.w	ip, r0, r1, lsl #1
 800094e:	bf0c      	ite	eq
 8000950:	ea52 0c43 	orrseq.w	ip, r2, r3, lsl #1
 8000954:	ea91 0f03 	teqne	r1, r3
 8000958:	bf02      	ittt	eq
 800095a:	ea90 0f02 	teqeq	r0, r2
 800095e:	2000      	moveq	r0, #0
 8000960:	4770      	bxeq	lr
 8000962:	f110 0f00 	cmn.w	r0, #0
 8000966:	ea91 0f03 	teq	r1, r3
 800096a:	bf58      	it	pl
 800096c:	4299      	cmppl	r1, r3
 800096e:	bf08      	it	eq
 8000970:	4290      	cmpeq	r0, r2
 8000972:	bf2c      	ite	cs
 8000974:	17d8      	asrcs	r0, r3, #31
 8000976:	ea6f 70e3 	mvncc.w	r0, r3, asr #31
 800097a:	f040 0001 	orr.w	r0, r0, #1
 800097e:	4770      	bx	lr
 8000980:	ea4f 0c41 	mov.w	ip, r1, lsl #1
 8000984:	ea7f 5c6c 	mvns.w	ip, ip, asr #21
 8000988:	d102      	bne.n	8000990 <__cmpdf2+0x64>
 800098a:	ea50 3c01 	orrs.w	ip, r0, r1, lsl #12
 800098e:	d107      	bne.n	80009a0 <__cmpdf2+0x74>
 8000990:	ea4f 0c43 	mov.w	ip, r3, lsl #1
 8000994:	ea7f 5c6c 	mvns.w	ip, ip, asr #21
 8000998:	d1d6      	bne.n	8000948 <__cmpdf2+0x1c>
 800099a:	ea52 3c03 	orrs.w	ip, r2, r3, lsl #12
 800099e:	d0d3      	beq.n	8000948 <__cmpdf2+0x1c>
 80009a0:	f85d 0b04 	ldr.w	r0, [sp], #4
 80009a4:	4770      	bx	lr
 80009a6:	bf00      	nop

080009a8 <__aeabi_cdrcmple>:
 80009a8:	4684      	mov	ip, r0
 80009aa:	4610      	mov	r0, r2
 80009ac:	4662      	mov	r2, ip
 80009ae:	468c      	mov	ip, r1
 80009b0:	4619      	mov	r1, r3
 80009b2:	4663      	mov	r3, ip
 80009b4:	e000      	b.n	80009b8 <__aeabi_cdcmpeq>
 80009b6:	bf00      	nop

080009b8 <__aeabi_cdcmpeq>:
 80009b8:	b501      	push	{r0, lr}
 80009ba:	f7ff ffb7 	bl	800092c <__cmpdf2>
 80009be:	2800      	cmp	r0, #0
 80009c0:	bf48      	it	mi
 80009c2:	f110 0f00 	cmnmi.w	r0, #0
 80009c6:	bd01      	pop	{r0, pc}

080009c8 <__aeabi_dcmpeq>:
 80009c8:	f84d ed08 	str.w	lr, [sp, #-8]!
 80009cc:	f7ff fff4 	bl	80009b8 <__aeabi_cdcmpeq>
 80009d0:	bf0c      	ite	eq
 80009d2:	2001      	moveq	r0, #1
 80009d4:	2000      	movne	r0, #0
 80009d6:	f85d fb08 	ldr.w	pc, [sp], #8
 80009da:	bf00      	nop

080009dc <__aeabi_dcmplt>:
 80009dc:	f84d ed08 	str.w	lr, [sp, #-8]!
 80009e0:	f7ff ffea 	bl	80009b8 <__aeabi_cdcmpeq>
 80009e4:	bf34      	ite	cc
 80009e6:	2001      	movcc	r0, #1
 80009e8:	2000      	movcs	r0, #0
 80009ea:	f85d fb08 	ldr.w	pc, [sp], #8
 80009ee:	bf00      	nop

080009f0 <__aeabi_dcmple>:
 80009f0:	f84d ed08 	str.w	lr, [sp, #-8]!
 80009f4:	f7ff ffe0 	bl	80009b8 <__aeabi_cdcmpeq>
 80009f8:	bf94      	ite	ls
 80009fa:	2001      	movls	r0, #1
 80009fc:	2000      	movhi	r0, #0
 80009fe:	f85d fb08 	ldr.w	pc, [sp], #8
 8000a02:	bf00      	nop

08000a04 <__aeabi_dcmpge>:
 8000a04:	f84d ed08 	str.w	lr, [sp, #-8]!
 8000a08:	f7ff ffce 	bl	80009a8 <__aeabi_cdrcmple>
 8000a0c:	bf94      	ite	ls
 8000a0e:	2001      	movls	r0, #1
 8000a10:	2000      	movhi	r0, #0
 8000a12:	f85d fb08 	ldr.w	pc, [sp], #8
 8000a16:	bf00      	nop

08000a18 <__aeabi_dcmpgt>:
 8000a18:	f84d ed08 	str.w	lr, [sp, #-8]!
 8000a1c:	f7ff ffc4 	bl	80009a8 <__aeabi_cdrcmple>
 8000a20:	bf34      	ite	cc
 8000a22:	2001      	movcc	r0, #1
 8000a24:	2000      	movcs	r0, #0
 8000a26:	f85d fb08 	ldr.w	pc, [sp], #8
 8000a2a:	bf00      	nop

08000a2c <__aeabi_dcmpun>:
 8000a2c:	ea4f 0c41 	mov.w	ip, r1, lsl #1
 8000a30:	ea7f 5c6c 	mvns.w	ip, ip, asr #21
 8000a34:	d102      	bne.n	8000a3c <__aeabi_dcmpun+0x10>
 8000a36:	ea50 3c01 	orrs.w	ip, r0, r1, lsl #12
 8000a3a:	d10a      	bne.n	8000a52 <__aeabi_dcmpun+0x26>
 8000a3c:	ea4f 0c43 	mov.w	ip, r3, lsl #1
 8000a40:	ea7f 5c6c 	mvns.w	ip, ip, asr #21
 8000a44:	d102      	bne.n	8000a4c <__aeabi_dcmpun+0x20>
 8000a46:	ea52 3c03 	orrs.w	ip, r2, r3, lsl #12
 8000a4a:	d102      	bne.n	8000a52 <__aeabi_dcmpun+0x26>
 8000a4c:	f04f 0000 	mov.w	r0, #0
 8000a50:	4770      	bx	lr
 8000a52:	f04f 0001 	mov.w	r0, #1
 8000a56:	4770      	bx	lr

08000a58 <__aeabi_d2iz>:
 8000a58:	ea4f 0241 	mov.w	r2, r1, lsl #1
 8000a5c:	f512 1200 	adds.w	r2, r2, #2097152	@ 0x200000
 8000a60:	d215      	bcs.n	8000a8e <__aeabi_d2iz+0x36>
 8000a62:	d511      	bpl.n	8000a88 <__aeabi_d2iz+0x30>
 8000a64:	f46f 7378 	mvn.w	r3, #992	@ 0x3e0
 8000a68:	ebb3 5262 	subs.w	r2, r3, r2, asr #21
 8000a6c:	d912      	bls.n	8000a94 <__aeabi_d2iz+0x3c>
 8000a6e:	ea4f 23c1 	mov.w	r3, r1, lsl #11
 8000a72:	f043 4300 	orr.w	r3, r3, #2147483648	@ 0x80000000
 8000a76:	ea43 5350 	orr.w	r3, r3, r0, lsr #21
 8000a7a:	f011 4f00 	tst.w	r1, #2147483648	@ 0x80000000
 8000a7e:	fa23 f002 	lsr.w	r0, r3, r2
 8000a82:	bf18      	it	ne
 8000a84:	4240      	negne	r0, r0
 8000a86:	4770      	bx	lr
 8000a88:	f04f 0000 	mov.w	r0, #0
 8000a8c:	4770      	bx	lr
 8000a8e:	ea50 3001 	orrs.w	r0, r0, r1, lsl #12
 8000a92:	d105      	bne.n	8000aa0 <__aeabi_d2iz+0x48>
 8000a94:	f011 4000 	ands.w	r0, r1, #2147483648	@ 0x80000000
 8000a98:	bf08      	it	eq
 8000a9a:	f06f 4000 	mvneq.w	r0, #2147483648	@ 0x80000000
 8000a9e:	4770      	bx	lr
 8000aa0:	f04f 0000 	mov.w	r0, #0
 8000aa4:	4770      	bx	lr
 8000aa6:	bf00      	nop

08000aa8 <SystemInit>:
  * @note   This function should be used only after reset.
  * @param  None
  * @retval None
  */
void SystemInit (void)
{
 8000aa8:	b480      	push	{r7}
 8000aaa:	af00      	add	r7, sp, #0

  /* Configure the Vector Table location -------------------------------------*/
#if defined(USER_VECT_TAB_ADDRESS)
  SCB->VTOR = VECT_TAB_BASE_ADDRESS | VECT_TAB_OFFSET; /* Vector Table Relocation in Internal SRAM. */
#endif /* USER_VECT_TAB_ADDRESS */
}
 8000aac:	bf00      	nop
 8000aae:	46bd      	mov	sp, r7
 8000ab0:	bc80      	pop	{r7}
 8000ab2:	4770      	bx	lr

08000ab4 <__NVIC_EnableIRQ>:
  \details Enables a device specific interrupt in the NVIC interrupt controller.
  \param [in]      IRQn  Device specific interrupt number.
  \note    IRQn must not be negative.
 */
__STATIC_INLINE void __NVIC_EnableIRQ(IRQn_Type IRQn)
{
 8000ab4:	b480      	push	{r7}
 8000ab6:	b083      	sub	sp, #12
 8000ab8:	af00      	add	r7, sp, #0
 8000aba:	4603      	mov	r3, r0
 8000abc:	71fb      	strb	r3, [r7, #7]
  if ((int32_t)(IRQn) >= 0)
 8000abe:	f997 3007 	ldrsb.w	r3, [r7, #7]
 8000ac2:	2b00      	cmp	r3, #0
 8000ac4:	db0b      	blt.n	8000ade <__NVIC_EnableIRQ+0x2a>
  {
    NVIC->ISER[(((uint32_t)IRQn) >> 5UL)] = (uint32_t)(1UL << (((uint32_t)IRQn) & 0x1FUL));
 8000ac6:	79fb      	ldrb	r3, [r7, #7]
 8000ac8:	f003 021f 	and.w	r2, r3, #31
 8000acc:	4906      	ldr	r1, [pc, #24]	@ (8000ae8 <__NVIC_EnableIRQ+0x34>)
 8000ace:	f997 3007 	ldrsb.w	r3, [r7, #7]
 8000ad2:	095b      	lsrs	r3, r3, #5
 8000ad4:	2001      	movs	r0, #1
 8000ad6:	fa00 f202 	lsl.w	r2, r0, r2
 8000ada:	f841 2023 	str.w	r2, [r1, r3, lsl #2]
  }
}
 8000ade:	bf00      	nop
 8000ae0:	370c      	adds	r7, #12
 8000ae2:	46bd      	mov	sp, r7
 8000ae4:	bc80      	pop	{r7}
 8000ae6:	4770      	bx	lr
 8000ae8:	e000e100 	.word	0xe000e100

08000aec <__NVIC_SetPriority>:
  \param [in]      IRQn  Interrupt number.
  \param [in]  priority  Priority to set.
  \note    The priority cannot be set for every processor exception.
 */
__STATIC_INLINE void __NVIC_SetPriority(IRQn_Type IRQn, uint32_t priority)
{
 8000aec:	b480      	push	{r7}
 8000aee:	b083      	sub	sp, #12
 8000af0:	af00      	add	r7, sp, #0
 8000af2:	4603      	mov	r3, r0
 8000af4:	6039      	str	r1, [r7, #0]
 8000af6:	71fb      	strb	r3, [r7, #7]
  if ((int32_t)(IRQn) >= 0)
 8000af8:	f997 3007 	ldrsb.w	r3, [r7, #7]
 8000afc:	2b00      	cmp	r3, #0
 8000afe:	db0a      	blt.n	8000b16 <__NVIC_SetPriority+0x2a>
  {
    NVIC->IP[((uint32_t)IRQn)]               = (uint8_t)((priority << (8U - __NVIC_PRIO_BITS)) & (uint32_t)0xFFUL);
 8000b00:	683b      	ldr	r3, [r7, #0]
 8000b02:	b2da      	uxtb	r2, r3
 8000b04:	490c      	ldr	r1, [pc, #48]	@ (8000b38 <__NVIC_SetPriority+0x4c>)
 8000b06:	f997 3007 	ldrsb.w	r3, [r7, #7]
 8000b0a:	0112      	lsls	r2, r2, #4
 8000b0c:	b2d2      	uxtb	r2, r2
 8000b0e:	440b      	add	r3, r1
 8000b10:	f883 2300 	strb.w	r2, [r3, #768]	@ 0x300
  }
  else
  {
    SCB->SHP[(((uint32_t)IRQn) & 0xFUL)-4UL] = (uint8_t)((priority << (8U - __NVIC_PRIO_BITS)) & (uint32_t)0xFFUL);
  }
}
 8000b14:	e00a      	b.n	8000b2c <__NVIC_SetPriority+0x40>
    SCB->SHP[(((uint32_t)IRQn) & 0xFUL)-4UL] = (uint8_t)((priority << (8U - __NVIC_PRIO_BITS)) & (uint32_t)0xFFUL);
 8000b16:	683b      	ldr	r3, [r7, #0]
 8000b18:	b2da      	uxtb	r2, r3
 8000b1a:	4908      	ldr	r1, [pc, #32]	@ (8000b3c <__NVIC_SetPriority+0x50>)
 8000b1c:	79fb      	ldrb	r3, [r7, #7]
 8000b1e:	f003 030f 	and.w	r3, r3, #15
 8000b22:	3b04      	subs	r3, #4
 8000b24:	0112      	lsls	r2, r2, #4
 8000b26:	b2d2      	uxtb	r2, r2
 8000b28:	440b      	add	r3, r1
 8000b2a:	761a      	strb	r2, [r3, #24]
}
 8000b2c:	bf00      	nop
 8000b2e:	370c      	adds	r7, #12
 8000b30:	46bd      	mov	sp, r7
 8000b32:	bc80      	pop	{r7}
 8000b34:	4770      	bx	lr
 8000b36:	bf00      	nop
 8000b38:	e000e100 	.word	0xe000e100
 8000b3c:	e000ed00 	.word	0xe000ed00

08000b40 <DMA1_Channel2_IRQHandler>:
#define BME280_REG_ID 0xD0

uint8_t buffer_SPI_TX[BUF_SIZE];
uint8_t buffer_SPI_RX[BUF_SIZE];

void DMA1_Channel2_IRQHandler() {
 8000b40:	b580      	push	{r7, lr}
 8000b42:	af00      	add	r7, sp, #0
	DMA1->IFCR |= DMA_IFCR_CTCIF2;
 8000b44:	4b07      	ldr	r3, [pc, #28]	@ (8000b64 <DMA1_Channel2_IRQHandler+0x24>)
 8000b46:	685b      	ldr	r3, [r3, #4]
 8000b48:	4a06      	ldr	r2, [pc, #24]	@ (8000b64 <DMA1_Channel2_IRQHandler+0x24>)
 8000b4a:	f043 0320 	orr.w	r3, r3, #32
 8000b4e:	6053      	str	r3, [r2, #4]
	SPI_cs_set();
 8000b50:	f000 f880 	bl	8000c54 <SPI_cs_set>
	DMA1_Channel2->CCR &= ~DMA_CCR_EN;
 8000b54:	4b04      	ldr	r3, [pc, #16]	@ (8000b68 <DMA1_Channel2_IRQHandler+0x28>)
 8000b56:	681b      	ldr	r3, [r3, #0]
 8000b58:	4a03      	ldr	r2, [pc, #12]	@ (8000b68 <DMA1_Channel2_IRQHandler+0x28>)
 8000b5a:	f023 0301 	bic.w	r3, r3, #1
 8000b5e:	6013      	str	r3, [r2, #0]
}
 8000b60:	bf00      	nop
 8000b62:	bd80      	pop	{r7, pc}
 8000b64:	40020000 	.word	0x40020000
 8000b68:	4002001c 	.word	0x4002001c

08000b6c <DMA1_Channel3_IRQHandler>:

void DMA1_Channel3_IRQHandler() {
 8000b6c:	b580      	push	{r7, lr}
 8000b6e:	af00      	add	r7, sp, #0
	DMA1->IFCR |= DMA_IFCR_CTCIF3;
 8000b70:	4b07      	ldr	r3, [pc, #28]	@ (8000b90 <DMA1_Channel3_IRQHandler+0x24>)
 8000b72:	685b      	ldr	r3, [r3, #4]
 8000b74:	4a06      	ldr	r2, [pc, #24]	@ (8000b90 <DMA1_Channel3_IRQHandler+0x24>)
 8000b76:	f443 7300 	orr.w	r3, r3, #512	@ 0x200
 8000b7a:	6053      	str	r3, [r2, #4]
	SPI_cs_set();
 8000b7c:	f000 f86a 	bl	8000c54 <SPI_cs_set>
	DMA1_Channel3->CCR &= ~DMA_CCR_EN;
 8000b80:	4b04      	ldr	r3, [pc, #16]	@ (8000b94 <DMA1_Channel3_IRQHandler+0x28>)
 8000b82:	681b      	ldr	r3, [r3, #0]
 8000b84:	4a03      	ldr	r2, [pc, #12]	@ (8000b94 <DMA1_Channel3_IRQHandler+0x28>)
 8000b86:	f023 0301 	bic.w	r3, r3, #1
 8000b8a:	6013      	str	r3, [r2, #0]
}
 8000b8c:	bf00      	nop
 8000b8e:	bd80      	pop	{r7, pc}
 8000b90:	40020000 	.word	0x40020000
 8000b94:	40020030 	.word	0x40020030

08000b98 <init_GPIO_for_SPI>:

void init_GPIO_for_SPI() {
 8000b98:	b580      	push	{r7, lr}
 8000b9a:	af00      	add	r7, sp, #0
	RCC->APB2ENR |= RCC_APB2ENR_IOPAEN;
 8000b9c:	4b16      	ldr	r3, [pc, #88]	@ (8000bf8 <init_GPIO_for_SPI+0x60>)
 8000b9e:	699b      	ldr	r3, [r3, #24]
 8000ba0:	4a15      	ldr	r2, [pc, #84]	@ (8000bf8 <init_GPIO_for_SPI+0x60>)
 8000ba2:	f043 0304 	orr.w	r3, r3, #4
 8000ba6:	6193      	str	r3, [r2, #24]
	//PA5-SCK, PA6-MISO, PA7-MOSI
	GPIOA->CRL |= GPIO_CRL_MODE5 | GPIO_CRL_MODE6 | GPIO_CRL_MODE7;
 8000ba8:	4b14      	ldr	r3, [pc, #80]	@ (8000bfc <init_GPIO_for_SPI+0x64>)
 8000baa:	681b      	ldr	r3, [r3, #0]
 8000bac:	4a13      	ldr	r2, [pc, #76]	@ (8000bfc <init_GPIO_for_SPI+0x64>)
 8000bae:	f043 534c 	orr.w	r3, r3, #855638016	@ 0x33000000
 8000bb2:	f443 1340 	orr.w	r3, r3, #3145728	@ 0x300000
 8000bb6:	6013      	str	r3, [r2, #0]
	GPIOA->CRH |= GPIO_CRH_MODE8;
 8000bb8:	4b10      	ldr	r3, [pc, #64]	@ (8000bfc <init_GPIO_for_SPI+0x64>)
 8000bba:	685b      	ldr	r3, [r3, #4]
 8000bbc:	4a0f      	ldr	r2, [pc, #60]	@ (8000bfc <init_GPIO_for_SPI+0x64>)
 8000bbe:	f043 0303 	orr.w	r3, r3, #3
 8000bc2:	6053      	str	r3, [r2, #4]
	//Clear CNF (because on f1 GPIO reset state isn't 0x0000...so strange)
	GPIOA->CRL &= ~(GPIO_CRL_CNF5 | GPIO_CRL_CNF6 | GPIO_CRL_CNF7);
 8000bc4:	4b0d      	ldr	r3, [pc, #52]	@ (8000bfc <init_GPIO_for_SPI+0x64>)
 8000bc6:	681b      	ldr	r3, [r3, #0]
 8000bc8:	4a0c      	ldr	r2, [pc, #48]	@ (8000bfc <init_GPIO_for_SPI+0x64>)
 8000bca:	f023 434c 	bic.w	r3, r3, #3422552064	@ 0xcc000000
 8000bce:	f423 0340 	bic.w	r3, r3, #12582912	@ 0xc00000
 8000bd2:	6013      	str	r3, [r2, #0]
	GPIOA->CRH &= ~GPIO_CRH_CNF8;
 8000bd4:	4b09      	ldr	r3, [pc, #36]	@ (8000bfc <init_GPIO_for_SPI+0x64>)
 8000bd6:	685b      	ldr	r3, [r3, #4]
 8000bd8:	4a08      	ldr	r2, [pc, #32]	@ (8000bfc <init_GPIO_for_SPI+0x64>)
 8000bda:	f023 030c 	bic.w	r3, r3, #12
 8000bde:	6053      	str	r3, [r2, #4]
	//AF on PA5-PA7
	GPIOA->CRL |= GPIO_CRL_CNF5_1 | GPIO_CRL_CNF6_1 | GPIO_CRL_CNF7_1;
 8000be0:	4b06      	ldr	r3, [pc, #24]	@ (8000bfc <init_GPIO_for_SPI+0x64>)
 8000be2:	681b      	ldr	r3, [r3, #0]
 8000be4:	4a05      	ldr	r2, [pc, #20]	@ (8000bfc <init_GPIO_for_SPI+0x64>)
 8000be6:	f043 4308 	orr.w	r3, r3, #2281701376	@ 0x88000000
 8000bea:	f443 0300 	orr.w	r3, r3, #8388608	@ 0x800000
 8000bee:	6013      	str	r3, [r2, #0]
	
	SPI_cs_set();
 8000bf0:	f000 f830 	bl	8000c54 <SPI_cs_set>
}
 8000bf4:	bf00      	nop
 8000bf6:	bd80      	pop	{r7, pc}
 8000bf8:	40021000 	.word	0x40021000
 8000bfc:	40010800 	.word	0x40010800

08000c00 <SPI1_Master_init>:

void SPI1_Master_init() {
 8000c00:	b580      	push	{r7, lr}
 8000c02:	af00      	add	r7, sp, #0
	init_GPIO_for_SPI();
 8000c04:	f7ff ffc8 	bl	8000b98 <init_GPIO_for_SPI>
	RCC->APB2ENR |= RCC_APB2ENR_SPI1EN;
 8000c08:	4b10      	ldr	r3, [pc, #64]	@ (8000c4c <SPI1_Master_init+0x4c>)
 8000c0a:	699b      	ldr	r3, [r3, #24]
 8000c0c:	4a0f      	ldr	r2, [pc, #60]	@ (8000c4c <SPI1_Master_init+0x4c>)
 8000c0e:	f443 5380 	orr.w	r3, r3, #4096	@ 0x1000
 8000c12:	6193      	str	r3, [r2, #24]
	SPI1->CR1 &= ~SPI_CR1_SPE;
 8000c14:	4b0e      	ldr	r3, [pc, #56]	@ (8000c50 <SPI1_Master_init+0x50>)
 8000c16:	681b      	ldr	r3, [r3, #0]
 8000c18:	4a0d      	ldr	r2, [pc, #52]	@ (8000c50 <SPI1_Master_init+0x50>)
 8000c1a:	f023 0340 	bic.w	r3, r3, #64	@ 0x40
 8000c1e:	6013      	str	r3, [r2, #0]
	SPI1->CR1 |= SPI_CR1_MSTR | SPI_CR1_SSM | SPI_CR1_SSI;
 8000c20:	4b0b      	ldr	r3, [pc, #44]	@ (8000c50 <SPI1_Master_init+0x50>)
 8000c22:	681b      	ldr	r3, [r3, #0]
 8000c24:	4a0a      	ldr	r2, [pc, #40]	@ (8000c50 <SPI1_Master_init+0x50>)
 8000c26:	f443 7341 	orr.w	r3, r3, #772	@ 0x304
 8000c2a:	6013      	str	r3, [r2, #0]
	SPI1->CR2 |= SPI_CR2_TXDMAEN | SPI_CR2_RXDMAEN; 
 8000c2c:	4b08      	ldr	r3, [pc, #32]	@ (8000c50 <SPI1_Master_init+0x50>)
 8000c2e:	685b      	ldr	r3, [r3, #4]
 8000c30:	4a07      	ldr	r2, [pc, #28]	@ (8000c50 <SPI1_Master_init+0x50>)
 8000c32:	f043 0303 	orr.w	r3, r3, #3
 8000c36:	6053      	str	r3, [r2, #4]
	DMA_for_SPI_init();
 8000c38:	f000 f828 	bl	8000c8c <DMA_for_SPI_init>
	SPI1->CR1 |= SPI_CR1_SPE;
 8000c3c:	4b04      	ldr	r3, [pc, #16]	@ (8000c50 <SPI1_Master_init+0x50>)
 8000c3e:	681b      	ldr	r3, [r3, #0]
 8000c40:	4a03      	ldr	r2, [pc, #12]	@ (8000c50 <SPI1_Master_init+0x50>)
 8000c42:	f043 0340 	orr.w	r3, r3, #64	@ 0x40
 8000c46:	6013      	str	r3, [r2, #0]
}
 8000c48:	bf00      	nop
 8000c4a:	bd80      	pop	{r7, pc}
 8000c4c:	40021000 	.word	0x40021000
 8000c50:	40013000 	.word	0x40013000

08000c54 <SPI_cs_set>:

void SPI_cs_set() {
 8000c54:	b480      	push	{r7}
 8000c56:	af00      	add	r7, sp, #0
	GPIOA->ODR |= GPIO_ODR_ODR8;
 8000c58:	4b04      	ldr	r3, [pc, #16]	@ (8000c6c <SPI_cs_set+0x18>)
 8000c5a:	68db      	ldr	r3, [r3, #12]
 8000c5c:	4a03      	ldr	r2, [pc, #12]	@ (8000c6c <SPI_cs_set+0x18>)
 8000c5e:	f443 7380 	orr.w	r3, r3, #256	@ 0x100
 8000c62:	60d3      	str	r3, [r2, #12]
}
 8000c64:	bf00      	nop
 8000c66:	46bd      	mov	sp, r7
 8000c68:	bc80      	pop	{r7}
 8000c6a:	4770      	bx	lr
 8000c6c:	40010800 	.word	0x40010800

08000c70 <SPI_cs_clear>:

void SPI_cs_clear() {
 8000c70:	b480      	push	{r7}
 8000c72:	af00      	add	r7, sp, #0
	GPIOA->ODR &= ~GPIO_ODR_ODR8;
 8000c74:	4b04      	ldr	r3, [pc, #16]	@ (8000c88 <SPI_cs_clear+0x18>)
 8000c76:	68db      	ldr	r3, [r3, #12]
 8000c78:	4a03      	ldr	r2, [pc, #12]	@ (8000c88 <SPI_cs_clear+0x18>)
 8000c7a:	f423 7380 	bic.w	r3, r3, #256	@ 0x100
 8000c7e:	60d3      	str	r3, [r2, #12]
}
 8000c80:	bf00      	nop
 8000c82:	46bd      	mov	sp, r7
 8000c84:	bc80      	pop	{r7}
 8000c86:	4770      	bx	lr
 8000c88:	40010800 	.word	0x40010800

08000c8c <DMA_for_SPI_init>:

void DMA_for_SPI_init() {
 8000c8c:	b580      	push	{r7, lr}
 8000c8e:	af00      	add	r7, sp, #0
	RCC->AHBENR |= RCC_AHBENR_DMA1EN;
 8000c90:	4b1c      	ldr	r3, [pc, #112]	@ (8000d04 <DMA_for_SPI_init+0x78>)
 8000c92:	695b      	ldr	r3, [r3, #20]
 8000c94:	4a1b      	ldr	r2, [pc, #108]	@ (8000d04 <DMA_for_SPI_init+0x78>)
 8000c96:	f043 0301 	orr.w	r3, r3, #1
 8000c9a:	6153      	str	r3, [r2, #20]
	//2 CHANNEL - RX       3 CHANNEL - TX
	
	//3 channel - read from memory so set DIR bit
	DMA1_Channel3->CCR |= DMA_CCR_DIR | DMA_CCR_MINC | DMA_CCR_TCIE;
 8000c9c:	4b1a      	ldr	r3, [pc, #104]	@ (8000d08 <DMA_for_SPI_init+0x7c>)
 8000c9e:	681b      	ldr	r3, [r3, #0]
 8000ca0:	4a19      	ldr	r2, [pc, #100]	@ (8000d08 <DMA_for_SPI_init+0x7c>)
 8000ca2:	f043 0392 	orr.w	r3, r3, #146	@ 0x92
 8000ca6:	6013      	str	r3, [r2, #0]
	DMA1_Channel2->CCR |= DMA_CCR_MINC | DMA_CCR_TCIE;
 8000ca8:	4b18      	ldr	r3, [pc, #96]	@ (8000d0c <DMA_for_SPI_init+0x80>)
 8000caa:	681b      	ldr	r3, [r3, #0]
 8000cac:	4a17      	ldr	r2, [pc, #92]	@ (8000d0c <DMA_for_SPI_init+0x80>)
 8000cae:	f043 0382 	orr.w	r3, r3, #130	@ 0x82
 8000cb2:	6013      	str	r3, [r2, #0]
	
	DMA1_Channel2->CMAR = (uint32_t)(&buffer_SPI_RX[0]);
 8000cb4:	4b15      	ldr	r3, [pc, #84]	@ (8000d0c <DMA_for_SPI_init+0x80>)
 8000cb6:	4a16      	ldr	r2, [pc, #88]	@ (8000d10 <DMA_for_SPI_init+0x84>)
 8000cb8:	60da      	str	r2, [r3, #12]
	DMA1_Channel2->CPAR = (uint32_t)(&(SPI1->DR));
 8000cba:	4b14      	ldr	r3, [pc, #80]	@ (8000d0c <DMA_for_SPI_init+0x80>)
 8000cbc:	4a15      	ldr	r2, [pc, #84]	@ (8000d14 <DMA_for_SPI_init+0x88>)
 8000cbe:	609a      	str	r2, [r3, #8]
	DMA1_Channel3->CNDTR = 0;
 8000cc0:	4b11      	ldr	r3, [pc, #68]	@ (8000d08 <DMA_for_SPI_init+0x7c>)
 8000cc2:	2200      	movs	r2, #0
 8000cc4:	605a      	str	r2, [r3, #4]
	DMA1_Channel3->CMAR = (uint32_t)(&buffer_SPI_TX[0]);
 8000cc6:	4b10      	ldr	r3, [pc, #64]	@ (8000d08 <DMA_for_SPI_init+0x7c>)
 8000cc8:	4a13      	ldr	r2, [pc, #76]	@ (8000d18 <DMA_for_SPI_init+0x8c>)
 8000cca:	60da      	str	r2, [r3, #12]
	DMA1_Channel3->CPAR = (uint32_t)(&(SPI1->DR));
 8000ccc:	4b0e      	ldr	r3, [pc, #56]	@ (8000d08 <DMA_for_SPI_init+0x7c>)
 8000cce:	4a11      	ldr	r2, [pc, #68]	@ (8000d14 <DMA_for_SPI_init+0x88>)
 8000cd0:	609a      	str	r2, [r3, #8]
	DMA1_Channel3->CNDTR = 0;
 8000cd2:	4b0d      	ldr	r3, [pc, #52]	@ (8000d08 <DMA_for_SPI_init+0x7c>)
 8000cd4:	2200      	movs	r2, #0
 8000cd6:	605a      	str	r2, [r3, #4]

	SPI1->CR2 |= SPI_CR2_TXDMAEN;
 8000cd8:	4b10      	ldr	r3, [pc, #64]	@ (8000d1c <DMA_for_SPI_init+0x90>)
 8000cda:	685b      	ldr	r3, [r3, #4]
 8000cdc:	4a0f      	ldr	r2, [pc, #60]	@ (8000d1c <DMA_for_SPI_init+0x90>)
 8000cde:	f043 0302 	orr.w	r3, r3, #2
 8000ce2:	6053      	str	r3, [r2, #4]
	NVIC_EnableIRQ(DMA1_Channel2_IRQn);
 8000ce4:	200c      	movs	r0, #12
 8000ce6:	f7ff fee5 	bl	8000ab4 <__NVIC_EnableIRQ>
	NVIC_SetPriority(DMA1_Channel2_IRQn, 1);
 8000cea:	2101      	movs	r1, #1
 8000cec:	200c      	movs	r0, #12
 8000cee:	f7ff fefd 	bl	8000aec <__NVIC_SetPriority>
	NVIC_EnableIRQ(DMA1_Channel3_IRQn);
 8000cf2:	200d      	movs	r0, #13
 8000cf4:	f7ff fede 	bl	8000ab4 <__NVIC_EnableIRQ>
	NVIC_SetPriority(DMA1_Channel3_IRQn, 1);
 8000cf8:	2101      	movs	r1, #1
 8000cfa:	200d      	movs	r0, #13
 8000cfc:	f7ff fef6 	bl	8000aec <__NVIC_SetPriority>
}
 8000d00:	bf00      	nop
 8000d02:	bd80      	pop	{r7, pc}
 8000d04:	40021000 	.word	0x40021000
 8000d08:	40020030 	.word	0x40020030
 8000d0c:	4002001c 	.word	0x4002001c
 8000d10:	200002f0 	.word	0x200002f0
 8000d14:	4001300c 	.word	0x4001300c
 8000d18:	200001f0 	.word	0x200001f0
 8000d1c:	40013000 	.word	0x40013000

08000d20 <SPI1_SendData_BME>:

void SPI1_SendData_BME(uint8_t amount_of_byte) {
 8000d20:	b580      	push	{r7, lr}
 8000d22:	b084      	sub	sp, #16
 8000d24:	af00      	add	r7, sp, #0
 8000d26:	4603      	mov	r3, r0
 8000d28:	71fb      	strb	r3, [r7, #7]
	DMA1_Channel3->CCR &= ~DMA_CCR_EN;
 8000d2a:	4b0f      	ldr	r3, [pc, #60]	@ (8000d68 <SPI1_SendData_BME+0x48>)
 8000d2c:	681b      	ldr	r3, [r3, #0]
 8000d2e:	4a0e      	ldr	r2, [pc, #56]	@ (8000d68 <SPI1_SendData_BME+0x48>)
 8000d30:	f023 0301 	bic.w	r3, r3, #1
 8000d34:	6013      	str	r3, [r2, #0]
	DMA1_Channel3->CNDTR = amount_of_byte;
 8000d36:	4a0c      	ldr	r2, [pc, #48]	@ (8000d68 <SPI1_SendData_BME+0x48>)
 8000d38:	79fb      	ldrb	r3, [r7, #7]
 8000d3a:	6053      	str	r3, [r2, #4]

	SPI_cs_clear();
 8000d3c:	f7ff ff98 	bl	8000c70 <SPI_cs_clear>
	for(int i = 0; i < 10; i++);
 8000d40:	2300      	movs	r3, #0
 8000d42:	60fb      	str	r3, [r7, #12]
 8000d44:	e002      	b.n	8000d4c <SPI1_SendData_BME+0x2c>
 8000d46:	68fb      	ldr	r3, [r7, #12]
 8000d48:	3301      	adds	r3, #1
 8000d4a:	60fb      	str	r3, [r7, #12]
 8000d4c:	68fb      	ldr	r3, [r7, #12]
 8000d4e:	2b09      	cmp	r3, #9
 8000d50:	ddf9      	ble.n	8000d46 <SPI1_SendData_BME+0x26>
	DMA1_Channel3->CCR |= DMA_CCR_EN;
 8000d52:	4b05      	ldr	r3, [pc, #20]	@ (8000d68 <SPI1_SendData_BME+0x48>)
 8000d54:	681b      	ldr	r3, [r3, #0]
 8000d56:	4a04      	ldr	r2, [pc, #16]	@ (8000d68 <SPI1_SendData_BME+0x48>)
 8000d58:	f043 0301 	orr.w	r3, r3, #1
 8000d5c:	6013      	str	r3, [r2, #0]
}
 8000d5e:	bf00      	nop
 8000d60:	3710      	adds	r7, #16
 8000d62:	46bd      	mov	sp, r7
 8000d64:	bd80      	pop	{r7, pc}
 8000d66:	bf00      	nop
 8000d68:	40020030 	.word	0x40020030

08000d6c <BME_init>:
	SPI_cs_clear();
	for(int i = 0; i < 10; i++);
	DMA1_Channel2->CCR |= DMA_CCR_EN;
}

void BME_init() {
 8000d6c:	b580      	push	{r7, lr}
 8000d6e:	af00      	add	r7, sp, #0
	//Byte consist of the SPI reg address (without 8 bit) and read command(bit 8 - "1")
	buffer_SPI_TX[0] = BME280_REG_ID | 0x80;
 8000d70:	4b03      	ldr	r3, [pc, #12]	@ (8000d80 <BME_init+0x14>)
 8000d72:	22d0      	movs	r2, #208	@ 0xd0
 8000d74:	701a      	strb	r2, [r3, #0]
	SPI1_SendData_BME(1);
 8000d76:	2001      	movs	r0, #1
 8000d78:	f7ff ffd2 	bl	8000d20 <SPI1_SendData_BME>
	//SPI1_GetData_BME(1);
}
 8000d7c:	bf00      	nop
 8000d7e:	bd80      	pop	{r7, pc}
 8000d80:	200001f0 	.word	0x200001f0

08000d84 <DMA1_Channel4_IRQHandler>:
#include "UART_for_PC.h"

uint8_t UART_tx_buf[] = "Comitas\r\n";


void DMA1_Channel4_IRQHandler(void) {
 8000d84:	b480      	push	{r7}
 8000d86:	af00      	add	r7, sp, #0
	DMA1->IFCR |= DMA_IFCR_CTCIF4;
 8000d88:	4b07      	ldr	r3, [pc, #28]	@ (8000da8 <DMA1_Channel4_IRQHandler+0x24>)
 8000d8a:	685b      	ldr	r3, [r3, #4]
 8000d8c:	4a06      	ldr	r2, [pc, #24]	@ (8000da8 <DMA1_Channel4_IRQHandler+0x24>)
 8000d8e:	f443 5300 	orr.w	r3, r3, #8192	@ 0x2000
 8000d92:	6053      	str	r3, [r2, #4]
	DMA1_Channel4->CCR &= ~DMA_CCR_EN;
 8000d94:	4b05      	ldr	r3, [pc, #20]	@ (8000dac <DMA1_Channel4_IRQHandler+0x28>)
 8000d96:	681b      	ldr	r3, [r3, #0]
 8000d98:	4a04      	ldr	r2, [pc, #16]	@ (8000dac <DMA1_Channel4_IRQHandler+0x28>)
 8000d9a:	f023 0301 	bic.w	r3, r3, #1
 8000d9e:	6013      	str	r3, [r2, #0]
}
 8000da0:	bf00      	nop
 8000da2:	46bd      	mov	sp, r7
 8000da4:	bc80      	pop	{r7}
 8000da6:	4770      	bx	lr
 8000da8:	40020000 	.word	0x40020000
 8000dac:	40020044 	.word	0x40020044

08000db0 <UART_send_data>:

	NVIC_EnableIRQ(DMA1_Channel4_IRQn);
	NVIC_SetPriority(DMA1_Channel4_IRQn, 3);
}

void UART_send_data(uint8_t ch8) {
 8000db0:	b480      	push	{r7}
 8000db2:	b085      	sub	sp, #20
 8000db4:	af00      	add	r7, sp, #0
 8000db6:	4603      	mov	r3, r0
 8000db8:	71fb      	strb	r3, [r7, #7]
	UART_tx_buf[0] = ch8;
 8000dba:	4a13      	ldr	r2, [pc, #76]	@ (8000e08 <UART_send_data+0x58>)
 8000dbc:	79fb      	ldrb	r3, [r7, #7]
 8000dbe:	7013      	strb	r3, [r2, #0]
	DMA1_Channel4->CMAR = (uint32_t)(&UART_tx_buf[0]);
 8000dc0:	4b12      	ldr	r3, [pc, #72]	@ (8000e0c <UART_send_data+0x5c>)
 8000dc2:	4a11      	ldr	r2, [pc, #68]	@ (8000e08 <UART_send_data+0x58>)
 8000dc4:	60da      	str	r2, [r3, #12]
	DMA1_Channel4->CNDTR = 1;
 8000dc6:	4b11      	ldr	r3, [pc, #68]	@ (8000e0c <UART_send_data+0x5c>)
 8000dc8:	2201      	movs	r2, #1
 8000dca:	605a      	str	r2, [r3, #4]
	DMA1_Channel4->CCR |= DMA_CCR_EN;
 8000dcc:	4b0f      	ldr	r3, [pc, #60]	@ (8000e0c <UART_send_data+0x5c>)
 8000dce:	681b      	ldr	r3, [r3, #0]
 8000dd0:	4a0e      	ldr	r2, [pc, #56]	@ (8000e0c <UART_send_data+0x5c>)
 8000dd2:	f043 0301 	orr.w	r3, r3, #1
 8000dd6:	6013      	str	r3, [r2, #0]
	while(DMA1_Channel4->CCR & DMA_CCR_EN) {};
 8000dd8:	bf00      	nop
 8000dda:	4b0c      	ldr	r3, [pc, #48]	@ (8000e0c <UART_send_data+0x5c>)
 8000ddc:	681b      	ldr	r3, [r3, #0]
 8000dde:	f003 0301 	and.w	r3, r3, #1
 8000de2:	2b00      	cmp	r3, #0
 8000de4:	d1f9      	bne.n	8000dda <UART_send_data+0x2a>
	for(int i = 0; i < 100; i++);
 8000de6:	2300      	movs	r3, #0
 8000de8:	60fb      	str	r3, [r7, #12]
 8000dea:	e002      	b.n	8000df2 <UART_send_data+0x42>
 8000dec:	68fb      	ldr	r3, [r7, #12]
 8000dee:	3301      	adds	r3, #1
 8000df0:	60fb      	str	r3, [r7, #12]
 8000df2:	68fb      	ldr	r3, [r7, #12]
 8000df4:	2b63      	cmp	r3, #99	@ 0x63
 8000df6:	ddf9      	ble.n	8000dec <UART_send_data+0x3c>
	flag = 0;
 8000df8:	4b05      	ldr	r3, [pc, #20]	@ (8000e10 <UART_send_data+0x60>)
 8000dfa:	2200      	movs	r2, #0
 8000dfc:	701a      	strb	r2, [r3, #0]
}
 8000dfe:	bf00      	nop
 8000e00:	3714      	adds	r7, #20
 8000e02:	46bd      	mov	sp, r7
 8000e04:	bc80      	pop	{r7}
 8000e06:	4770      	bx	lr
 8000e08:	20000000 	.word	0x20000000
 8000e0c:	40020044 	.word	0x40020044
 8000e10:	200003f0 	.word	0x200003f0

08000e14 <TIM2_IRQHandler>:
DS18B20_CMD ds18b20_cmd = TEMPERATURE_CONVERTING;
uint8_t ds_buff[9];
uint16_t temp;
float temperature = 0;

void TIM2_IRQHandler() {
 8000e14:	b480      	push	{r7}
 8000e16:	af00      	add	r7, sp, #0
	TIM2->SR &= ~TIM_SR_UIF;
 8000e18:	f04f 4380 	mov.w	r3, #1073741824	@ 0x40000000
 8000e1c:	691b      	ldr	r3, [r3, #16]
 8000e1e:	f04f 4280 	mov.w	r2, #1073741824	@ 0x40000000
 8000e22:	f023 0301 	bic.w	r3, r3, #1
 8000e26:	6113      	str	r3, [r2, #16]
	TIM2->CR1 &= ~TIM_CR1_CEN;
 8000e28:	f04f 4380 	mov.w	r3, #1073741824	@ 0x40000000
 8000e2c:	681b      	ldr	r3, [r3, #0]
 8000e2e:	f04f 4280 	mov.w	r2, #1073741824	@ 0x40000000
 8000e32:	f023 0301 	bic.w	r3, r3, #1
 8000e36:	6013      	str	r3, [r2, #0]
	GPIOA->ODR ^= (1 << PIN_LED);
 8000e38:	4b07      	ldr	r3, [pc, #28]	@ (8000e58 <TIM2_IRQHandler+0x44>)
 8000e3a:	68db      	ldr	r3, [r3, #12]
 8000e3c:	4a06      	ldr	r2, [pc, #24]	@ (8000e58 <TIM2_IRQHandler+0x44>)
 8000e3e:	f483 6300 	eor.w	r3, r3, #2048	@ 0x800
 8000e42:	60d3      	str	r3, [r2, #12]
	flag = 1;
 8000e44:	4b05      	ldr	r3, [pc, #20]	@ (8000e5c <TIM2_IRQHandler+0x48>)
 8000e46:	2201      	movs	r2, #1
 8000e48:	701a      	strb	r2, [r3, #0]
	ds18b20_cmd = TEMPERATURE_READING;
 8000e4a:	4b05      	ldr	r3, [pc, #20]	@ (8000e60 <TIM2_IRQHandler+0x4c>)
 8000e4c:	2202      	movs	r2, #2
 8000e4e:	701a      	strb	r2, [r3, #0]
}
 8000e50:	bf00      	nop
 8000e52:	46bd      	mov	sp, r7
 8000e54:	bc80      	pop	{r7}
 8000e56:	4770      	bx	lr
 8000e58:	40010800 	.word	0x40010800
 8000e5c:	200003f0 	.word	0x200003f0
 8000e60:	200003f4 	.word	0x200003f4

08000e64 <__io_putchar>:
#include "ds18b20.h"
#include "UART_for_PC.h"
#include "TH02.h"
#include "SPI_for_TFT.h"

int __io_putchar(int ch) {
 8000e64:	b580      	push	{r7, lr}
 8000e66:	b084      	sub	sp, #16
 8000e68:	af00      	add	r7, sp, #0
 8000e6a:	6078      	str	r0, [r7, #4]
	uint8_t ch8 = ch & 0xFF;
 8000e6c:	687b      	ldr	r3, [r7, #4]
 8000e6e:	73fb      	strb	r3, [r7, #15]
	UART_send_data(ch8);
 8000e70:	7bfb      	ldrb	r3, [r7, #15]
 8000e72:	4618      	mov	r0, r3
 8000e74:	f7ff ff9c 	bl	8000db0 <UART_send_data>
	return ch;
 8000e78:	687b      	ldr	r3, [r7, #4]
}
 8000e7a:	4618      	mov	r0, r3
 8000e7c:	3710      	adds	r7, #16
 8000e7e:	46bd      	mov	sp, r7
 8000e80:	bd80      	pop	{r7, pc}

08000e82 <main>:

int main() {
 8000e82:	b580      	push	{r7, lr}
 8000e84:	af00      	add	r7, sp, #0
	//StartHSE();
	//init_USART();
	//init_DS18B20();
	//I2C_for_TH_init();

	SPI1_Master_init();
 8000e86:	f7ff febb 	bl	8000c00 <SPI1_Master_init>
	BME_init();
 8000e8a:	f7ff ff6f 	bl	8000d6c <BME_init>

	while(1) {
 8000e8e:	bf00      	nop
 8000e90:	e7fd      	b.n	8000e8e <main+0xc>

08000e92 <_getpid>:
void initialise_monitor_handles()
{
}

int _getpid(void)
{
 8000e92:	b480      	push	{r7}
 8000e94:	af00      	add	r7, sp, #0
  return 1;
 8000e96:	2301      	movs	r3, #1
}
 8000e98:	4618      	mov	r0, r3
 8000e9a:	46bd      	mov	sp, r7
 8000e9c:	bc80      	pop	{r7}
 8000e9e:	4770      	bx	lr

08000ea0 <_kill>:

int _kill(int pid, int sig)
{
 8000ea0:	b580      	push	{r7, lr}
 8000ea2:	b082      	sub	sp, #8
 8000ea4:	af00      	add	r7, sp, #0
 8000ea6:	6078      	str	r0, [r7, #4]
 8000ea8:	6039      	str	r1, [r7, #0]
  (void)pid;
  (void)sig;
  errno = EINVAL;
 8000eaa:	f000 fe91 	bl	8001bd0 <__errno>
 8000eae:	4603      	mov	r3, r0
 8000eb0:	2216      	movs	r2, #22
 8000eb2:	601a      	str	r2, [r3, #0]
  return -1;
 8000eb4:	f04f 33ff 	mov.w	r3, #4294967295
}
 8000eb8:	4618      	mov	r0, r3
 8000eba:	3708      	adds	r7, #8
 8000ebc:	46bd      	mov	sp, r7
 8000ebe:	bd80      	pop	{r7, pc}

08000ec0 <_exit>:

void _exit (int status)
{
 8000ec0:	b580      	push	{r7, lr}
 8000ec2:	b082      	sub	sp, #8
 8000ec4:	af00      	add	r7, sp, #0
 8000ec6:	6078      	str	r0, [r7, #4]
  _kill(status, -1);
 8000ec8:	f04f 31ff 	mov.w	r1, #4294967295
 8000ecc:	6878      	ldr	r0, [r7, #4]
 8000ece:	f7ff ffe7 	bl	8000ea0 <_kill>
  while (1) {}    /* Make sure we hang here */
 8000ed2:	bf00      	nop
 8000ed4:	e7fd      	b.n	8000ed2 <_exit+0x12>

08000ed6 <_read>:
}

__attribute__((weak)) int _read(int file, char *ptr, int len)
{
 8000ed6:	b580      	push	{r7, lr}
 8000ed8:	b086      	sub	sp, #24
 8000eda:	af00      	add	r7, sp, #0
 8000edc:	60f8      	str	r0, [r7, #12]
 8000ede:	60b9      	str	r1, [r7, #8]
 8000ee0:	607a      	str	r2, [r7, #4]
  (void)file;
  int DataIdx;

  for (DataIdx = 0; DataIdx < len; DataIdx++)
 8000ee2:	2300      	movs	r3, #0
 8000ee4:	617b      	str	r3, [r7, #20]
 8000ee6:	e00a      	b.n	8000efe <_read+0x28>
  {
    *ptr++ = __io_getchar();
 8000ee8:	f3af 8000 	nop.w
 8000eec:	4601      	mov	r1, r0
 8000eee:	68bb      	ldr	r3, [r7, #8]
 8000ef0:	1c5a      	adds	r2, r3, #1
 8000ef2:	60ba      	str	r2, [r7, #8]
 8000ef4:	b2ca      	uxtb	r2, r1
 8000ef6:	701a      	strb	r2, [r3, #0]
  for (DataIdx = 0; DataIdx < len; DataIdx++)
 8000ef8:	697b      	ldr	r3, [r7, #20]
 8000efa:	3301      	adds	r3, #1
 8000efc:	617b      	str	r3, [r7, #20]
 8000efe:	697a      	ldr	r2, [r7, #20]
 8000f00:	687b      	ldr	r3, [r7, #4]
 8000f02:	429a      	cmp	r2, r3
 8000f04:	dbf0      	blt.n	8000ee8 <_read+0x12>
  }

  return len;
 8000f06:	687b      	ldr	r3, [r7, #4]
}
 8000f08:	4618      	mov	r0, r3
 8000f0a:	3718      	adds	r7, #24
 8000f0c:	46bd      	mov	sp, r7
 8000f0e:	bd80      	pop	{r7, pc}

08000f10 <_write>:

__attribute__((weak)) int _write(int file, char *ptr, int len)
{
 8000f10:	b580      	push	{r7, lr}
 8000f12:	b086      	sub	sp, #24
 8000f14:	af00      	add	r7, sp, #0
 8000f16:	60f8      	str	r0, [r7, #12]
 8000f18:	60b9      	str	r1, [r7, #8]
 8000f1a:	607a      	str	r2, [r7, #4]
  (void)file;
  int DataIdx;

  for (DataIdx = 0; DataIdx < len; DataIdx++)
 8000f1c:	2300      	movs	r3, #0
 8000f1e:	617b      	str	r3, [r7, #20]
 8000f20:	e009      	b.n	8000f36 <_write+0x26>
  {
    __io_putchar(*ptr++);
 8000f22:	68bb      	ldr	r3, [r7, #8]
 8000f24:	1c5a      	adds	r2, r3, #1
 8000f26:	60ba      	str	r2, [r7, #8]
 8000f28:	781b      	ldrb	r3, [r3, #0]
 8000f2a:	4618      	mov	r0, r3
 8000f2c:	f7ff ff9a 	bl	8000e64 <__io_putchar>
  for (DataIdx = 0; DataIdx < len; DataIdx++)
 8000f30:	697b      	ldr	r3, [r7, #20]
 8000f32:	3301      	adds	r3, #1
 8000f34:	617b      	str	r3, [r7, #20]
 8000f36:	697a      	ldr	r2, [r7, #20]
 8000f38:	687b      	ldr	r3, [r7, #4]
 8000f3a:	429a      	cmp	r2, r3
 8000f3c:	dbf1      	blt.n	8000f22 <_write+0x12>
  }
  return len;
 8000f3e:	687b      	ldr	r3, [r7, #4]
}
 8000f40:	4618      	mov	r0, r3
 8000f42:	3718      	adds	r7, #24
 8000f44:	46bd      	mov	sp, r7
 8000f46:	bd80      	pop	{r7, pc}

08000f48 <_close>:

int _close(int file)
{
 8000f48:	b480      	push	{r7}
 8000f4a:	b083      	sub	sp, #12
 8000f4c:	af00      	add	r7, sp, #0
 8000f4e:	6078      	str	r0, [r7, #4]
  (void)file;
  return -1;
 8000f50:	f04f 33ff 	mov.w	r3, #4294967295
}
 8000f54:	4618      	mov	r0, r3
 8000f56:	370c      	adds	r7, #12
 8000f58:	46bd      	mov	sp, r7
 8000f5a:	bc80      	pop	{r7}
 8000f5c:	4770      	bx	lr

08000f5e <_fstat>:


int _fstat(int file, struct stat *st)
{
 8000f5e:	b480      	push	{r7}
 8000f60:	b083      	sub	sp, #12
 8000f62:	af00      	add	r7, sp, #0
 8000f64:	6078      	str	r0, [r7, #4]
 8000f66:	6039      	str	r1, [r7, #0]
  (void)file;
  st->st_mode = S_IFCHR;
 8000f68:	683b      	ldr	r3, [r7, #0]
 8000f6a:	f44f 5200 	mov.w	r2, #8192	@ 0x2000
 8000f6e:	605a      	str	r2, [r3, #4]
  return 0;
 8000f70:	2300      	movs	r3, #0
}
 8000f72:	4618      	mov	r0, r3
 8000f74:	370c      	adds	r7, #12
 8000f76:	46bd      	mov	sp, r7
 8000f78:	bc80      	pop	{r7}
 8000f7a:	4770      	bx	lr

08000f7c <_isatty>:

int _isatty(int file)
{
 8000f7c:	b480      	push	{r7}
 8000f7e:	b083      	sub	sp, #12
 8000f80:	af00      	add	r7, sp, #0
 8000f82:	6078      	str	r0, [r7, #4]
  (void)file;
  return 1;
 8000f84:	2301      	movs	r3, #1
}
 8000f86:	4618      	mov	r0, r3
 8000f88:	370c      	adds	r7, #12
 8000f8a:	46bd      	mov	sp, r7
 8000f8c:	bc80      	pop	{r7}
 8000f8e:	4770      	bx	lr

08000f90 <_lseek>:

int _lseek(int file, int ptr, int dir)
{
 8000f90:	b480      	push	{r7}
 8000f92:	b085      	sub	sp, #20
 8000f94:	af00      	add	r7, sp, #0
 8000f96:	60f8      	str	r0, [r7, #12]
 8000f98:	60b9      	str	r1, [r7, #8]
 8000f9a:	607a      	str	r2, [r7, #4]
  (void)file;
  (void)ptr;
  (void)dir;
  return 0;
 8000f9c:	2300      	movs	r3, #0
}
 8000f9e:	4618      	mov	r0, r3
 8000fa0:	3714      	adds	r7, #20
 8000fa2:	46bd      	mov	sp, r7
 8000fa4:	bc80      	pop	{r7}
 8000fa6:	4770      	bx	lr

08000fa8 <_sbrk>:
 *
 * @param incr Memory size
 * @return Pointer to allocated memory
 */
void *_sbrk(ptrdiff_t incr)
{
 8000fa8:	b580      	push	{r7, lr}
 8000faa:	b086      	sub	sp, #24
 8000fac:	af00      	add	r7, sp, #0
 8000fae:	6078      	str	r0, [r7, #4]
  extern uint8_t _end; /* Symbol defined in the linker script */
  extern uint8_t _estack; /* Symbol defined in the linker script */
  extern uint32_t _Min_Stack_Size; /* Symbol defined in the linker script */
  const uint32_t stack_limit = (uint32_t)&_estack - (uint32_t)&_Min_Stack_Size;
 8000fb0:	4a14      	ldr	r2, [pc, #80]	@ (8001004 <_sbrk+0x5c>)
 8000fb2:	4b15      	ldr	r3, [pc, #84]	@ (8001008 <_sbrk+0x60>)
 8000fb4:	1ad3      	subs	r3, r2, r3
 8000fb6:	617b      	str	r3, [r7, #20]
  const uint8_t *max_heap = (uint8_t *)stack_limit;
 8000fb8:	697b      	ldr	r3, [r7, #20]
 8000fba:	613b      	str	r3, [r7, #16]
  uint8_t *prev_heap_end;

  /* Initialize heap end at first call */
  if (NULL == __sbrk_heap_end)
 8000fbc:	4b13      	ldr	r3, [pc, #76]	@ (800100c <_sbrk+0x64>)
 8000fbe:	681b      	ldr	r3, [r3, #0]
 8000fc0:	2b00      	cmp	r3, #0
 8000fc2:	d102      	bne.n	8000fca <_sbrk+0x22>
  {
    __sbrk_heap_end = &_end;
 8000fc4:	4b11      	ldr	r3, [pc, #68]	@ (800100c <_sbrk+0x64>)
 8000fc6:	4a12      	ldr	r2, [pc, #72]	@ (8001010 <_sbrk+0x68>)
 8000fc8:	601a      	str	r2, [r3, #0]
  }

  /* Protect heap from growing into the reserved MSP stack */
  if (__sbrk_heap_end + incr > max_heap)
 8000fca:	4b10      	ldr	r3, [pc, #64]	@ (800100c <_sbrk+0x64>)
 8000fcc:	681a      	ldr	r2, [r3, #0]
 8000fce:	687b      	ldr	r3, [r7, #4]
 8000fd0:	4413      	add	r3, r2
 8000fd2:	693a      	ldr	r2, [r7, #16]
 8000fd4:	429a      	cmp	r2, r3
 8000fd6:	d207      	bcs.n	8000fe8 <_sbrk+0x40>
  {
    errno = ENOMEM;
 8000fd8:	f000 fdfa 	bl	8001bd0 <__errno>
 8000fdc:	4603      	mov	r3, r0
 8000fde:	220c      	movs	r2, #12
 8000fe0:	601a      	str	r2, [r3, #0]
    return (void *)-1;
 8000fe2:	f04f 33ff 	mov.w	r3, #4294967295
 8000fe6:	e009      	b.n	8000ffc <_sbrk+0x54>
  }

  prev_heap_end = __sbrk_heap_end;
 8000fe8:	4b08      	ldr	r3, [pc, #32]	@ (800100c <_sbrk+0x64>)
 8000fea:	681b      	ldr	r3, [r3, #0]
 8000fec:	60fb      	str	r3, [r7, #12]
  __sbrk_heap_end += incr;
 8000fee:	4b07      	ldr	r3, [pc, #28]	@ (800100c <_sbrk+0x64>)
 8000ff0:	681a      	ldr	r2, [r3, #0]
 8000ff2:	687b      	ldr	r3, [r7, #4]
 8000ff4:	4413      	add	r3, r2
 8000ff6:	4a05      	ldr	r2, [pc, #20]	@ (800100c <_sbrk+0x64>)
 8000ff8:	6013      	str	r3, [r2, #0]

  return (void *)prev_heap_end;
 8000ffa:	68fb      	ldr	r3, [r7, #12]
}
 8000ffc:	4618      	mov	r0, r3
 8000ffe:	3718      	adds	r7, #24
 8001000:	46bd      	mov	sp, r7
 8001002:	bd80      	pop	{r7, pc}
 8001004:	20002800 	.word	0x20002800
 8001008:	00000400 	.word	0x00000400
 800100c:	200003f8 	.word	0x200003f8
 8001010:	20000548 	.word	0x20000548

08001014 <Reset_Handler>:
 8001014:	480d      	ldr	r0, [pc, #52]	@ (800104c <LoopForever+0x2>)
 8001016:	4685      	mov	sp, r0
 8001018:	f7ff fd46 	bl	8000aa8 <SystemInit>
 800101c:	480c      	ldr	r0, [pc, #48]	@ (8001050 <LoopForever+0x6>)
 800101e:	490d      	ldr	r1, [pc, #52]	@ (8001054 <LoopForever+0xa>)
 8001020:	4a0d      	ldr	r2, [pc, #52]	@ (8001058 <LoopForever+0xe>)
 8001022:	2300      	movs	r3, #0
 8001024:	e002      	b.n	800102c <LoopCopyDataInit>

08001026 <CopyDataInit>:
 8001026:	58d4      	ldr	r4, [r2, r3]
 8001028:	50c4      	str	r4, [r0, r3]
 800102a:	3304      	adds	r3, #4

0800102c <LoopCopyDataInit>:
 800102c:	18c4      	adds	r4, r0, r3
 800102e:	428c      	cmp	r4, r1
 8001030:	d3f9      	bcc.n	8001026 <CopyDataInit>
 8001032:	4a0a      	ldr	r2, [pc, #40]	@ (800105c <LoopForever+0x12>)
 8001034:	4c0a      	ldr	r4, [pc, #40]	@ (8001060 <LoopForever+0x16>)
 8001036:	2300      	movs	r3, #0
 8001038:	e001      	b.n	800103e <LoopFillZerobss>

0800103a <FillZerobss>:
 800103a:	6013      	str	r3, [r2, #0]
 800103c:	3204      	adds	r2, #4

0800103e <LoopFillZerobss>:
 800103e:	42a2      	cmp	r2, r4
 8001040:	d3fb      	bcc.n	800103a <FillZerobss>
 8001042:	f000 fdcb 	bl	8001bdc <__libc_init_array>
 8001046:	f7ff ff1c 	bl	8000e82 <main>

0800104a <LoopForever>:
 800104a:	e7fe      	b.n	800104a <LoopForever>
 800104c:	20002800 	.word	0x20002800
 8001050:	20000000 	.word	0x20000000
 8001054:	200001d4 	.word	0x200001d4
 8001058:	08003d18 	.word	0x08003d18
 800105c:	200001d4 	.word	0x200001d4
 8001060:	20000548 	.word	0x20000548

08001064 <ADC1_2_IRQHandler>:
 8001064:	e7fe      	b.n	8001064 <ADC1_2_IRQHandler>

08001066 <__cvt>:
 8001066:	2b00      	cmp	r3, #0
 8001068:	e92d 47f0 	stmdb	sp!, {r4, r5, r6, r7, r8, r9, sl, lr}
 800106c:	461d      	mov	r5, r3
 800106e:	bfbb      	ittet	lt
 8001070:	f103 4300 	addlt.w	r3, r3, #2147483648	@ 0x80000000
 8001074:	461d      	movlt	r5, r3
 8001076:	2300      	movge	r3, #0
 8001078:	232d      	movlt	r3, #45	@ 0x2d
 800107a:	b088      	sub	sp, #32
 800107c:	4614      	mov	r4, r2
 800107e:	bfb8      	it	lt
 8001080:	4614      	movlt	r4, r2
 8001082:	9a12      	ldr	r2, [sp, #72]	@ 0x48
 8001084:	9e10      	ldr	r6, [sp, #64]	@ 0x40
 8001086:	7013      	strb	r3, [r2, #0]
 8001088:	9b14      	ldr	r3, [sp, #80]	@ 0x50
 800108a:	f8dd a04c 	ldr.w	sl, [sp, #76]	@ 0x4c
 800108e:	f023 0820 	bic.w	r8, r3, #32
 8001092:	f1b8 0f46 	cmp.w	r8, #70	@ 0x46
 8001096:	d005      	beq.n	80010a4 <__cvt+0x3e>
 8001098:	f1b8 0f45 	cmp.w	r8, #69	@ 0x45
 800109c:	d100      	bne.n	80010a0 <__cvt+0x3a>
 800109e:	3601      	adds	r6, #1
 80010a0:	2302      	movs	r3, #2
 80010a2:	e000      	b.n	80010a6 <__cvt+0x40>
 80010a4:	2303      	movs	r3, #3
 80010a6:	aa07      	add	r2, sp, #28
 80010a8:	9204      	str	r2, [sp, #16]
 80010aa:	aa06      	add	r2, sp, #24
 80010ac:	e9cd a202 	strd	sl, r2, [sp, #8]
 80010b0:	e9cd 3600 	strd	r3, r6, [sp]
 80010b4:	4622      	mov	r2, r4
 80010b6:	462b      	mov	r3, r5
 80010b8:	f000 fe4e 	bl	8001d58 <_dtoa_r>
 80010bc:	f1b8 0f47 	cmp.w	r8, #71	@ 0x47
 80010c0:	4607      	mov	r7, r0
 80010c2:	d119      	bne.n	80010f8 <__cvt+0x92>
 80010c4:	9b11      	ldr	r3, [sp, #68]	@ 0x44
 80010c6:	07db      	lsls	r3, r3, #31
 80010c8:	d50e      	bpl.n	80010e8 <__cvt+0x82>
 80010ca:	eb00 0906 	add.w	r9, r0, r6
 80010ce:	2200      	movs	r2, #0
 80010d0:	2300      	movs	r3, #0
 80010d2:	4620      	mov	r0, r4
 80010d4:	4629      	mov	r1, r5
 80010d6:	f7ff fc77 	bl	80009c8 <__aeabi_dcmpeq>
 80010da:	b108      	cbz	r0, 80010e0 <__cvt+0x7a>
 80010dc:	f8cd 901c 	str.w	r9, [sp, #28]
 80010e0:	2230      	movs	r2, #48	@ 0x30
 80010e2:	9b07      	ldr	r3, [sp, #28]
 80010e4:	454b      	cmp	r3, r9
 80010e6:	d31e      	bcc.n	8001126 <__cvt+0xc0>
 80010e8:	4638      	mov	r0, r7
 80010ea:	9b07      	ldr	r3, [sp, #28]
 80010ec:	9a15      	ldr	r2, [sp, #84]	@ 0x54
 80010ee:	1bdb      	subs	r3, r3, r7
 80010f0:	6013      	str	r3, [r2, #0]
 80010f2:	b008      	add	sp, #32
 80010f4:	e8bd 87f0 	ldmia.w	sp!, {r4, r5, r6, r7, r8, r9, sl, pc}
 80010f8:	f1b8 0f46 	cmp.w	r8, #70	@ 0x46
 80010fc:	eb00 0906 	add.w	r9, r0, r6
 8001100:	d1e5      	bne.n	80010ce <__cvt+0x68>
 8001102:	7803      	ldrb	r3, [r0, #0]
 8001104:	2b30      	cmp	r3, #48	@ 0x30
 8001106:	d10a      	bne.n	800111e <__cvt+0xb8>
 8001108:	2200      	movs	r2, #0
 800110a:	2300      	movs	r3, #0
 800110c:	4620      	mov	r0, r4
 800110e:	4629      	mov	r1, r5
 8001110:	f7ff fc5a 	bl	80009c8 <__aeabi_dcmpeq>
 8001114:	b918      	cbnz	r0, 800111e <__cvt+0xb8>
 8001116:	f1c6 0601 	rsb	r6, r6, #1
 800111a:	f8ca 6000 	str.w	r6, [sl]
 800111e:	f8da 3000 	ldr.w	r3, [sl]
 8001122:	4499      	add	r9, r3
 8001124:	e7d3      	b.n	80010ce <__cvt+0x68>
 8001126:	1c59      	adds	r1, r3, #1
 8001128:	9107      	str	r1, [sp, #28]
 800112a:	701a      	strb	r2, [r3, #0]
 800112c:	e7d9      	b.n	80010e2 <__cvt+0x7c>

0800112e <__exponent>:
 800112e:	b5f7      	push	{r0, r1, r2, r4, r5, r6, r7, lr}
 8001130:	2900      	cmp	r1, #0
 8001132:	bfb6      	itet	lt
 8001134:	232d      	movlt	r3, #45	@ 0x2d
 8001136:	232b      	movge	r3, #43	@ 0x2b
 8001138:	4249      	neglt	r1, r1
 800113a:	2909      	cmp	r1, #9
 800113c:	7002      	strb	r2, [r0, #0]
 800113e:	7043      	strb	r3, [r0, #1]
 8001140:	dd29      	ble.n	8001196 <__exponent+0x68>
 8001142:	f10d 0307 	add.w	r3, sp, #7
 8001146:	461d      	mov	r5, r3
 8001148:	270a      	movs	r7, #10
 800114a:	fbb1 f6f7 	udiv	r6, r1, r7
 800114e:	461a      	mov	r2, r3
 8001150:	fb07 1416 	mls	r4, r7, r6, r1
 8001154:	3430      	adds	r4, #48	@ 0x30
 8001156:	f802 4c01 	strb.w	r4, [r2, #-1]
 800115a:	460c      	mov	r4, r1
 800115c:	2c63      	cmp	r4, #99	@ 0x63
 800115e:	4631      	mov	r1, r6
 8001160:	f103 33ff 	add.w	r3, r3, #4294967295
 8001164:	dcf1      	bgt.n	800114a <__exponent+0x1c>
 8001166:	3130      	adds	r1, #48	@ 0x30
 8001168:	1e94      	subs	r4, r2, #2
 800116a:	f803 1c01 	strb.w	r1, [r3, #-1]
 800116e:	4623      	mov	r3, r4
 8001170:	1c41      	adds	r1, r0, #1
 8001172:	42ab      	cmp	r3, r5
 8001174:	d30a      	bcc.n	800118c <__exponent+0x5e>
 8001176:	f10d 0309 	add.w	r3, sp, #9
 800117a:	1a9b      	subs	r3, r3, r2
 800117c:	42ac      	cmp	r4, r5
 800117e:	bf88      	it	hi
 8001180:	2300      	movhi	r3, #0
 8001182:	3302      	adds	r3, #2
 8001184:	4403      	add	r3, r0
 8001186:	1a18      	subs	r0, r3, r0
 8001188:	b003      	add	sp, #12
 800118a:	bdf0      	pop	{r4, r5, r6, r7, pc}
 800118c:	f813 6b01 	ldrb.w	r6, [r3], #1
 8001190:	f801 6f01 	strb.w	r6, [r1, #1]!
 8001194:	e7ed      	b.n	8001172 <__exponent+0x44>
 8001196:	2330      	movs	r3, #48	@ 0x30
 8001198:	3130      	adds	r1, #48	@ 0x30
 800119a:	7083      	strb	r3, [r0, #2]
 800119c:	70c1      	strb	r1, [r0, #3]
 800119e:	1d03      	adds	r3, r0, #4
 80011a0:	e7f1      	b.n	8001186 <__exponent+0x58>
	...

080011a4 <_printf_float>:
 80011a4:	e92d 4ff0 	stmdb	sp!, {r4, r5, r6, r7, r8, r9, sl, fp, lr}
 80011a8:	b091      	sub	sp, #68	@ 0x44
 80011aa:	460c      	mov	r4, r1
 80011ac:	f8dd 8068 	ldr.w	r8, [sp, #104]	@ 0x68
 80011b0:	4616      	mov	r6, r2
 80011b2:	461f      	mov	r7, r3
 80011b4:	4605      	mov	r5, r0
 80011b6:	f000 fcc1 	bl	8001b3c <_localeconv_r>
 80011ba:	6803      	ldr	r3, [r0, #0]
 80011bc:	4618      	mov	r0, r3
 80011be:	9308      	str	r3, [sp, #32]
 80011c0:	f7fe ffd6 	bl	8000170 <strlen>
 80011c4:	2300      	movs	r3, #0
 80011c6:	930e      	str	r3, [sp, #56]	@ 0x38
 80011c8:	f8d8 3000 	ldr.w	r3, [r8]
 80011cc:	9009      	str	r0, [sp, #36]	@ 0x24
 80011ce:	3307      	adds	r3, #7
 80011d0:	f023 0307 	bic.w	r3, r3, #7
 80011d4:	f103 0208 	add.w	r2, r3, #8
 80011d8:	f894 a018 	ldrb.w	sl, [r4, #24]
 80011dc:	f8d4 b000 	ldr.w	fp, [r4]
 80011e0:	f8c8 2000 	str.w	r2, [r8]
 80011e4:	e9d3 8900 	ldrd	r8, r9, [r3]
 80011e8:	f029 4300 	bic.w	r3, r9, #2147483648	@ 0x80000000
 80011ec:	930b      	str	r3, [sp, #44]	@ 0x2c
 80011ee:	f8cd 8028 	str.w	r8, [sp, #40]	@ 0x28
 80011f2:	f04f 32ff 	mov.w	r2, #4294967295
 80011f6:	e9dd 010a 	ldrd	r0, r1, [sp, #40]	@ 0x28
 80011fa:	e9c4 8912 	strd	r8, r9, [r4, #72]	@ 0x48
 80011fe:	4b9c      	ldr	r3, [pc, #624]	@ (8001470 <_printf_float+0x2cc>)
 8001200:	f7ff fc14 	bl	8000a2c <__aeabi_dcmpun>
 8001204:	bb70      	cbnz	r0, 8001264 <_printf_float+0xc0>
 8001206:	e9dd 010a 	ldrd	r0, r1, [sp, #40]	@ 0x28
 800120a:	f04f 32ff 	mov.w	r2, #4294967295
 800120e:	4b98      	ldr	r3, [pc, #608]	@ (8001470 <_printf_float+0x2cc>)
 8001210:	f7ff fbee 	bl	80009f0 <__aeabi_dcmple>
 8001214:	bb30      	cbnz	r0, 8001264 <_printf_float+0xc0>
 8001216:	2200      	movs	r2, #0
 8001218:	2300      	movs	r3, #0
 800121a:	4640      	mov	r0, r8
 800121c:	4649      	mov	r1, r9
 800121e:	f7ff fbdd 	bl	80009dc <__aeabi_dcmplt>
 8001222:	b110      	cbz	r0, 800122a <_printf_float+0x86>
 8001224:	232d      	movs	r3, #45	@ 0x2d
 8001226:	f884 3043 	strb.w	r3, [r4, #67]	@ 0x43
 800122a:	4a92      	ldr	r2, [pc, #584]	@ (8001474 <_printf_float+0x2d0>)
 800122c:	4b92      	ldr	r3, [pc, #584]	@ (8001478 <_printf_float+0x2d4>)
 800122e:	f1ba 0f47 	cmp.w	sl, #71	@ 0x47
 8001232:	bf94      	ite	ls
 8001234:	4690      	movls	r8, r2
 8001236:	4698      	movhi	r8, r3
 8001238:	2303      	movs	r3, #3
 800123a:	f04f 0900 	mov.w	r9, #0
 800123e:	6123      	str	r3, [r4, #16]
 8001240:	f02b 0304 	bic.w	r3, fp, #4
 8001244:	6023      	str	r3, [r4, #0]
 8001246:	4633      	mov	r3, r6
 8001248:	4621      	mov	r1, r4
 800124a:	4628      	mov	r0, r5
 800124c:	9700      	str	r7, [sp, #0]
 800124e:	aa0f      	add	r2, sp, #60	@ 0x3c
 8001250:	f000 f9d4 	bl	80015fc <_printf_common>
 8001254:	3001      	adds	r0, #1
 8001256:	f040 8090 	bne.w	800137a <_printf_float+0x1d6>
 800125a:	f04f 30ff 	mov.w	r0, #4294967295
 800125e:	b011      	add	sp, #68	@ 0x44
 8001260:	e8bd 8ff0 	ldmia.w	sp!, {r4, r5, r6, r7, r8, r9, sl, fp, pc}
 8001264:	4642      	mov	r2, r8
 8001266:	464b      	mov	r3, r9
 8001268:	4640      	mov	r0, r8
 800126a:	4649      	mov	r1, r9
 800126c:	f7ff fbde 	bl	8000a2c <__aeabi_dcmpun>
 8001270:	b148      	cbz	r0, 8001286 <_printf_float+0xe2>
 8001272:	464b      	mov	r3, r9
 8001274:	2b00      	cmp	r3, #0
 8001276:	bfb8      	it	lt
 8001278:	232d      	movlt	r3, #45	@ 0x2d
 800127a:	4a80      	ldr	r2, [pc, #512]	@ (800147c <_printf_float+0x2d8>)
 800127c:	bfb8      	it	lt
 800127e:	f884 3043 	strblt.w	r3, [r4, #67]	@ 0x43
 8001282:	4b7f      	ldr	r3, [pc, #508]	@ (8001480 <_printf_float+0x2dc>)
 8001284:	e7d3      	b.n	800122e <_printf_float+0x8a>
 8001286:	6863      	ldr	r3, [r4, #4]
 8001288:	f00a 01df 	and.w	r1, sl, #223	@ 0xdf
 800128c:	1c5a      	adds	r2, r3, #1
 800128e:	d13f      	bne.n	8001310 <_printf_float+0x16c>
 8001290:	2306      	movs	r3, #6
 8001292:	6063      	str	r3, [r4, #4]
 8001294:	2200      	movs	r2, #0
 8001296:	f44b 6380 	orr.w	r3, fp, #1024	@ 0x400
 800129a:	6023      	str	r3, [r4, #0]
 800129c:	9206      	str	r2, [sp, #24]
 800129e:	aa0e      	add	r2, sp, #56	@ 0x38
 80012a0:	e9cd a204 	strd	sl, r2, [sp, #16]
 80012a4:	aa0d      	add	r2, sp, #52	@ 0x34
 80012a6:	9203      	str	r2, [sp, #12]
 80012a8:	f10d 0233 	add.w	r2, sp, #51	@ 0x33
 80012ac:	e9cd 3201 	strd	r3, r2, [sp, #4]
 80012b0:	6863      	ldr	r3, [r4, #4]
 80012b2:	4642      	mov	r2, r8
 80012b4:	9300      	str	r3, [sp, #0]
 80012b6:	4628      	mov	r0, r5
 80012b8:	464b      	mov	r3, r9
 80012ba:	910a      	str	r1, [sp, #40]	@ 0x28
 80012bc:	f7ff fed3 	bl	8001066 <__cvt>
 80012c0:	990a      	ldr	r1, [sp, #40]	@ 0x28
 80012c2:	4680      	mov	r8, r0
 80012c4:	2947      	cmp	r1, #71	@ 0x47
 80012c6:	990d      	ldr	r1, [sp, #52]	@ 0x34
 80012c8:	d128      	bne.n	800131c <_printf_float+0x178>
 80012ca:	1cc8      	adds	r0, r1, #3
 80012cc:	db02      	blt.n	80012d4 <_printf_float+0x130>
 80012ce:	6863      	ldr	r3, [r4, #4]
 80012d0:	4299      	cmp	r1, r3
 80012d2:	dd40      	ble.n	8001356 <_printf_float+0x1b2>
 80012d4:	f1aa 0a02 	sub.w	sl, sl, #2
 80012d8:	fa5f fa8a 	uxtb.w	sl, sl
 80012dc:	4652      	mov	r2, sl
 80012de:	3901      	subs	r1, #1
 80012e0:	f104 0050 	add.w	r0, r4, #80	@ 0x50
 80012e4:	910d      	str	r1, [sp, #52]	@ 0x34
 80012e6:	f7ff ff22 	bl	800112e <__exponent>
 80012ea:	9a0e      	ldr	r2, [sp, #56]	@ 0x38
 80012ec:	4681      	mov	r9, r0
 80012ee:	1813      	adds	r3, r2, r0
 80012f0:	2a01      	cmp	r2, #1
 80012f2:	6123      	str	r3, [r4, #16]
 80012f4:	dc02      	bgt.n	80012fc <_printf_float+0x158>
 80012f6:	6822      	ldr	r2, [r4, #0]
 80012f8:	07d2      	lsls	r2, r2, #31
 80012fa:	d501      	bpl.n	8001300 <_printf_float+0x15c>
 80012fc:	3301      	adds	r3, #1
 80012fe:	6123      	str	r3, [r4, #16]
 8001300:	f89d 3033 	ldrb.w	r3, [sp, #51]	@ 0x33
 8001304:	2b00      	cmp	r3, #0
 8001306:	d09e      	beq.n	8001246 <_printf_float+0xa2>
 8001308:	232d      	movs	r3, #45	@ 0x2d
 800130a:	f884 3043 	strb.w	r3, [r4, #67]	@ 0x43
 800130e:	e79a      	b.n	8001246 <_printf_float+0xa2>
 8001310:	2947      	cmp	r1, #71	@ 0x47
 8001312:	d1bf      	bne.n	8001294 <_printf_float+0xf0>
 8001314:	2b00      	cmp	r3, #0
 8001316:	d1bd      	bne.n	8001294 <_printf_float+0xf0>
 8001318:	2301      	movs	r3, #1
 800131a:	e7ba      	b.n	8001292 <_printf_float+0xee>
 800131c:	f1ba 0f65 	cmp.w	sl, #101	@ 0x65
 8001320:	d9dc      	bls.n	80012dc <_printf_float+0x138>
 8001322:	f1ba 0f66 	cmp.w	sl, #102	@ 0x66
 8001326:	d118      	bne.n	800135a <_printf_float+0x1b6>
 8001328:	2900      	cmp	r1, #0
 800132a:	6863      	ldr	r3, [r4, #4]
 800132c:	dd0b      	ble.n	8001346 <_printf_float+0x1a2>
 800132e:	6121      	str	r1, [r4, #16]
 8001330:	b913      	cbnz	r3, 8001338 <_printf_float+0x194>
 8001332:	6822      	ldr	r2, [r4, #0]
 8001334:	07d0      	lsls	r0, r2, #31
 8001336:	d502      	bpl.n	800133e <_printf_float+0x19a>
 8001338:	3301      	adds	r3, #1
 800133a:	440b      	add	r3, r1
 800133c:	6123      	str	r3, [r4, #16]
 800133e:	f04f 0900 	mov.w	r9, #0
 8001342:	65a1      	str	r1, [r4, #88]	@ 0x58
 8001344:	e7dc      	b.n	8001300 <_printf_float+0x15c>
 8001346:	b913      	cbnz	r3, 800134e <_printf_float+0x1aa>
 8001348:	6822      	ldr	r2, [r4, #0]
 800134a:	07d2      	lsls	r2, r2, #31
 800134c:	d501      	bpl.n	8001352 <_printf_float+0x1ae>
 800134e:	3302      	adds	r3, #2
 8001350:	e7f4      	b.n	800133c <_printf_float+0x198>
 8001352:	2301      	movs	r3, #1
 8001354:	e7f2      	b.n	800133c <_printf_float+0x198>
 8001356:	f04f 0a67 	mov.w	sl, #103	@ 0x67
 800135a:	9b0e      	ldr	r3, [sp, #56]	@ 0x38
 800135c:	4299      	cmp	r1, r3
 800135e:	db05      	blt.n	800136c <_printf_float+0x1c8>
 8001360:	6823      	ldr	r3, [r4, #0]
 8001362:	6121      	str	r1, [r4, #16]
 8001364:	07d8      	lsls	r0, r3, #31
 8001366:	d5ea      	bpl.n	800133e <_printf_float+0x19a>
 8001368:	1c4b      	adds	r3, r1, #1
 800136a:	e7e7      	b.n	800133c <_printf_float+0x198>
 800136c:	2900      	cmp	r1, #0
 800136e:	bfcc      	ite	gt
 8001370:	2201      	movgt	r2, #1
 8001372:	f1c1 0202 	rsble	r2, r1, #2
 8001376:	4413      	add	r3, r2
 8001378:	e7e0      	b.n	800133c <_printf_float+0x198>
 800137a:	6823      	ldr	r3, [r4, #0]
 800137c:	055a      	lsls	r2, r3, #21
 800137e:	d407      	bmi.n	8001390 <_printf_float+0x1ec>
 8001380:	6923      	ldr	r3, [r4, #16]
 8001382:	4642      	mov	r2, r8
 8001384:	4631      	mov	r1, r6
 8001386:	4628      	mov	r0, r5
 8001388:	47b8      	blx	r7
 800138a:	3001      	adds	r0, #1
 800138c:	d12b      	bne.n	80013e6 <_printf_float+0x242>
 800138e:	e764      	b.n	800125a <_printf_float+0xb6>
 8001390:	f1ba 0f65 	cmp.w	sl, #101	@ 0x65
 8001394:	f240 80dc 	bls.w	8001550 <_printf_float+0x3ac>
 8001398:	e9d4 0112 	ldrd	r0, r1, [r4, #72]	@ 0x48
 800139c:	2200      	movs	r2, #0
 800139e:	2300      	movs	r3, #0
 80013a0:	f7ff fb12 	bl	80009c8 <__aeabi_dcmpeq>
 80013a4:	2800      	cmp	r0, #0
 80013a6:	d033      	beq.n	8001410 <_printf_float+0x26c>
 80013a8:	2301      	movs	r3, #1
 80013aa:	4631      	mov	r1, r6
 80013ac:	4628      	mov	r0, r5
 80013ae:	4a35      	ldr	r2, [pc, #212]	@ (8001484 <_printf_float+0x2e0>)
 80013b0:	47b8      	blx	r7
 80013b2:	3001      	adds	r0, #1
 80013b4:	f43f af51 	beq.w	800125a <_printf_float+0xb6>
 80013b8:	e9dd 380d 	ldrd	r3, r8, [sp, #52]	@ 0x34
 80013bc:	4543      	cmp	r3, r8
 80013be:	db02      	blt.n	80013c6 <_printf_float+0x222>
 80013c0:	6823      	ldr	r3, [r4, #0]
 80013c2:	07d8      	lsls	r0, r3, #31
 80013c4:	d50f      	bpl.n	80013e6 <_printf_float+0x242>
 80013c6:	e9dd 2308 	ldrd	r2, r3, [sp, #32]
 80013ca:	4631      	mov	r1, r6
 80013cc:	4628      	mov	r0, r5
 80013ce:	47b8      	blx	r7
 80013d0:	3001      	adds	r0, #1
 80013d2:	f43f af42 	beq.w	800125a <_printf_float+0xb6>
 80013d6:	f04f 0900 	mov.w	r9, #0
 80013da:	f108 38ff 	add.w	r8, r8, #4294967295
 80013de:	f104 0a1a 	add.w	sl, r4, #26
 80013e2:	45c8      	cmp	r8, r9
 80013e4:	dc09      	bgt.n	80013fa <_printf_float+0x256>
 80013e6:	6823      	ldr	r3, [r4, #0]
 80013e8:	079b      	lsls	r3, r3, #30
 80013ea:	f100 8102 	bmi.w	80015f2 <_printf_float+0x44e>
 80013ee:	68e0      	ldr	r0, [r4, #12]
 80013f0:	9b0f      	ldr	r3, [sp, #60]	@ 0x3c
 80013f2:	4298      	cmp	r0, r3
 80013f4:	bfb8      	it	lt
 80013f6:	4618      	movlt	r0, r3
 80013f8:	e731      	b.n	800125e <_printf_float+0xba>
 80013fa:	2301      	movs	r3, #1
 80013fc:	4652      	mov	r2, sl
 80013fe:	4631      	mov	r1, r6
 8001400:	4628      	mov	r0, r5
 8001402:	47b8      	blx	r7
 8001404:	3001      	adds	r0, #1
 8001406:	f43f af28 	beq.w	800125a <_printf_float+0xb6>
 800140a:	f109 0901 	add.w	r9, r9, #1
 800140e:	e7e8      	b.n	80013e2 <_printf_float+0x23e>
 8001410:	9b0d      	ldr	r3, [sp, #52]	@ 0x34
 8001412:	2b00      	cmp	r3, #0
 8001414:	dc38      	bgt.n	8001488 <_printf_float+0x2e4>
 8001416:	2301      	movs	r3, #1
 8001418:	4631      	mov	r1, r6
 800141a:	4628      	mov	r0, r5
 800141c:	4a19      	ldr	r2, [pc, #100]	@ (8001484 <_printf_float+0x2e0>)
 800141e:	47b8      	blx	r7
 8001420:	3001      	adds	r0, #1
 8001422:	f43f af1a 	beq.w	800125a <_printf_float+0xb6>
 8001426:	e9dd 390d 	ldrd	r3, r9, [sp, #52]	@ 0x34
 800142a:	ea59 0303 	orrs.w	r3, r9, r3
 800142e:	d102      	bne.n	8001436 <_printf_float+0x292>
 8001430:	6823      	ldr	r3, [r4, #0]
 8001432:	07d9      	lsls	r1, r3, #31
 8001434:	d5d7      	bpl.n	80013e6 <_printf_float+0x242>
 8001436:	e9dd 2308 	ldrd	r2, r3, [sp, #32]
 800143a:	4631      	mov	r1, r6
 800143c:	4628      	mov	r0, r5
 800143e:	47b8      	blx	r7
 8001440:	3001      	adds	r0, #1
 8001442:	f43f af0a 	beq.w	800125a <_printf_float+0xb6>
 8001446:	f04f 0a00 	mov.w	sl, #0
 800144a:	f104 0b1a 	add.w	fp, r4, #26
 800144e:	9b0d      	ldr	r3, [sp, #52]	@ 0x34
 8001450:	425b      	negs	r3, r3
 8001452:	4553      	cmp	r3, sl
 8001454:	dc01      	bgt.n	800145a <_printf_float+0x2b6>
 8001456:	464b      	mov	r3, r9
 8001458:	e793      	b.n	8001382 <_printf_float+0x1de>
 800145a:	2301      	movs	r3, #1
 800145c:	465a      	mov	r2, fp
 800145e:	4631      	mov	r1, r6
 8001460:	4628      	mov	r0, r5
 8001462:	47b8      	blx	r7
 8001464:	3001      	adds	r0, #1
 8001466:	f43f aef8 	beq.w	800125a <_printf_float+0xb6>
 800146a:	f10a 0a01 	add.w	sl, sl, #1
 800146e:	e7ee      	b.n	800144e <_printf_float+0x2aa>
 8001470:	7fefffff 	.word	0x7fefffff
 8001474:	08003998 	.word	0x08003998
 8001478:	0800399c 	.word	0x0800399c
 800147c:	080039a0 	.word	0x080039a0
 8001480:	080039a4 	.word	0x080039a4
 8001484:	080039a8 	.word	0x080039a8
 8001488:	6da3      	ldr	r3, [r4, #88]	@ 0x58
 800148a:	f8dd a038 	ldr.w	sl, [sp, #56]	@ 0x38
 800148e:	4553      	cmp	r3, sl
 8001490:	bfa8      	it	ge
 8001492:	4653      	movge	r3, sl
 8001494:	2b00      	cmp	r3, #0
 8001496:	4699      	mov	r9, r3
 8001498:	dc36      	bgt.n	8001508 <_printf_float+0x364>
 800149a:	f04f 0b00 	mov.w	fp, #0
 800149e:	ea29 79e9 	bic.w	r9, r9, r9, asr #31
 80014a2:	f104 021a 	add.w	r2, r4, #26
 80014a6:	6da3      	ldr	r3, [r4, #88]	@ 0x58
 80014a8:	930a      	str	r3, [sp, #40]	@ 0x28
 80014aa:	eba3 0309 	sub.w	r3, r3, r9
 80014ae:	455b      	cmp	r3, fp
 80014b0:	dc31      	bgt.n	8001516 <_printf_float+0x372>
 80014b2:	9b0d      	ldr	r3, [sp, #52]	@ 0x34
 80014b4:	459a      	cmp	sl, r3
 80014b6:	dc3a      	bgt.n	800152e <_printf_float+0x38a>
 80014b8:	6823      	ldr	r3, [r4, #0]
 80014ba:	07da      	lsls	r2, r3, #31
 80014bc:	d437      	bmi.n	800152e <_printf_float+0x38a>
 80014be:	9b0d      	ldr	r3, [sp, #52]	@ 0x34
 80014c0:	ebaa 0903 	sub.w	r9, sl, r3
 80014c4:	9b0a      	ldr	r3, [sp, #40]	@ 0x28
 80014c6:	ebaa 0303 	sub.w	r3, sl, r3
 80014ca:	4599      	cmp	r9, r3
 80014cc:	bfa8      	it	ge
 80014ce:	4699      	movge	r9, r3
 80014d0:	f1b9 0f00 	cmp.w	r9, #0
 80014d4:	dc33      	bgt.n	800153e <_printf_float+0x39a>
 80014d6:	f04f 0800 	mov.w	r8, #0
 80014da:	ea29 79e9 	bic.w	r9, r9, r9, asr #31
 80014de:	f104 0b1a 	add.w	fp, r4, #26
 80014e2:	9b0d      	ldr	r3, [sp, #52]	@ 0x34
 80014e4:	ebaa 0303 	sub.w	r3, sl, r3
 80014e8:	eba3 0309 	sub.w	r3, r3, r9
 80014ec:	4543      	cmp	r3, r8
 80014ee:	f77f af7a 	ble.w	80013e6 <_printf_float+0x242>
 80014f2:	2301      	movs	r3, #1
 80014f4:	465a      	mov	r2, fp
 80014f6:	4631      	mov	r1, r6
 80014f8:	4628      	mov	r0, r5
 80014fa:	47b8      	blx	r7
 80014fc:	3001      	adds	r0, #1
 80014fe:	f43f aeac 	beq.w	800125a <_printf_float+0xb6>
 8001502:	f108 0801 	add.w	r8, r8, #1
 8001506:	e7ec      	b.n	80014e2 <_printf_float+0x33e>
 8001508:	4642      	mov	r2, r8
 800150a:	4631      	mov	r1, r6
 800150c:	4628      	mov	r0, r5
 800150e:	47b8      	blx	r7
 8001510:	3001      	adds	r0, #1
 8001512:	d1c2      	bne.n	800149a <_printf_float+0x2f6>
 8001514:	e6a1      	b.n	800125a <_printf_float+0xb6>
 8001516:	2301      	movs	r3, #1
 8001518:	4631      	mov	r1, r6
 800151a:	4628      	mov	r0, r5
 800151c:	920a      	str	r2, [sp, #40]	@ 0x28
 800151e:	47b8      	blx	r7
 8001520:	3001      	adds	r0, #1
 8001522:	f43f ae9a 	beq.w	800125a <_printf_float+0xb6>
 8001526:	9a0a      	ldr	r2, [sp, #40]	@ 0x28
 8001528:	f10b 0b01 	add.w	fp, fp, #1
 800152c:	e7bb      	b.n	80014a6 <_printf_float+0x302>
 800152e:	4631      	mov	r1, r6
 8001530:	e9dd 2308 	ldrd	r2, r3, [sp, #32]
 8001534:	4628      	mov	r0, r5
 8001536:	47b8      	blx	r7
 8001538:	3001      	adds	r0, #1
 800153a:	d1c0      	bne.n	80014be <_printf_float+0x31a>
 800153c:	e68d      	b.n	800125a <_printf_float+0xb6>
 800153e:	9a0a      	ldr	r2, [sp, #40]	@ 0x28
 8001540:	464b      	mov	r3, r9
 8001542:	4631      	mov	r1, r6
 8001544:	4628      	mov	r0, r5
 8001546:	4442      	add	r2, r8
 8001548:	47b8      	blx	r7
 800154a:	3001      	adds	r0, #1
 800154c:	d1c3      	bne.n	80014d6 <_printf_float+0x332>
 800154e:	e684      	b.n	800125a <_printf_float+0xb6>
 8001550:	f8dd a038 	ldr.w	sl, [sp, #56]	@ 0x38
 8001554:	f1ba 0f01 	cmp.w	sl, #1
 8001558:	dc01      	bgt.n	800155e <_printf_float+0x3ba>
 800155a:	07db      	lsls	r3, r3, #31
 800155c:	d536      	bpl.n	80015cc <_printf_float+0x428>
 800155e:	2301      	movs	r3, #1
 8001560:	4642      	mov	r2, r8
 8001562:	4631      	mov	r1, r6
 8001564:	4628      	mov	r0, r5
 8001566:	47b8      	blx	r7
 8001568:	3001      	adds	r0, #1
 800156a:	f43f ae76 	beq.w	800125a <_printf_float+0xb6>
 800156e:	e9dd 2308 	ldrd	r2, r3, [sp, #32]
 8001572:	4631      	mov	r1, r6
 8001574:	4628      	mov	r0, r5
 8001576:	47b8      	blx	r7
 8001578:	3001      	adds	r0, #1
 800157a:	f43f ae6e 	beq.w	800125a <_printf_float+0xb6>
 800157e:	e9d4 0112 	ldrd	r0, r1, [r4, #72]	@ 0x48
 8001582:	2200      	movs	r2, #0
 8001584:	2300      	movs	r3, #0
 8001586:	f10a 3aff 	add.w	sl, sl, #4294967295
 800158a:	f7ff fa1d 	bl	80009c8 <__aeabi_dcmpeq>
 800158e:	b9c0      	cbnz	r0, 80015c2 <_printf_float+0x41e>
 8001590:	4653      	mov	r3, sl
 8001592:	f108 0201 	add.w	r2, r8, #1
 8001596:	4631      	mov	r1, r6
 8001598:	4628      	mov	r0, r5
 800159a:	47b8      	blx	r7
 800159c:	3001      	adds	r0, #1
 800159e:	d10c      	bne.n	80015ba <_printf_float+0x416>
 80015a0:	e65b      	b.n	800125a <_printf_float+0xb6>
 80015a2:	2301      	movs	r3, #1
 80015a4:	465a      	mov	r2, fp
 80015a6:	4631      	mov	r1, r6
 80015a8:	4628      	mov	r0, r5
 80015aa:	47b8      	blx	r7
 80015ac:	3001      	adds	r0, #1
 80015ae:	f43f ae54 	beq.w	800125a <_printf_float+0xb6>
 80015b2:	f108 0801 	add.w	r8, r8, #1
 80015b6:	45d0      	cmp	r8, sl
 80015b8:	dbf3      	blt.n	80015a2 <_printf_float+0x3fe>
 80015ba:	464b      	mov	r3, r9
 80015bc:	f104 0250 	add.w	r2, r4, #80	@ 0x50
 80015c0:	e6e0      	b.n	8001384 <_printf_float+0x1e0>
 80015c2:	f04f 0800 	mov.w	r8, #0
 80015c6:	f104 0b1a 	add.w	fp, r4, #26
 80015ca:	e7f4      	b.n	80015b6 <_printf_float+0x412>
 80015cc:	2301      	movs	r3, #1
 80015ce:	4642      	mov	r2, r8
 80015d0:	e7e1      	b.n	8001596 <_printf_float+0x3f2>
 80015d2:	2301      	movs	r3, #1
 80015d4:	464a      	mov	r2, r9
 80015d6:	4631      	mov	r1, r6
 80015d8:	4628      	mov	r0, r5
 80015da:	47b8      	blx	r7
 80015dc:	3001      	adds	r0, #1
 80015de:	f43f ae3c 	beq.w	800125a <_printf_float+0xb6>
 80015e2:	f108 0801 	add.w	r8, r8, #1
 80015e6:	68e3      	ldr	r3, [r4, #12]
 80015e8:	990f      	ldr	r1, [sp, #60]	@ 0x3c
 80015ea:	1a5b      	subs	r3, r3, r1
 80015ec:	4543      	cmp	r3, r8
 80015ee:	dcf0      	bgt.n	80015d2 <_printf_float+0x42e>
 80015f0:	e6fd      	b.n	80013ee <_printf_float+0x24a>
 80015f2:	f04f 0800 	mov.w	r8, #0
 80015f6:	f104 0919 	add.w	r9, r4, #25
 80015fa:	e7f4      	b.n	80015e6 <_printf_float+0x442>

080015fc <_printf_common>:
 80015fc:	e92d 47f0 	stmdb	sp!, {r4, r5, r6, r7, r8, r9, sl, lr}
 8001600:	4616      	mov	r6, r2
 8001602:	4698      	mov	r8, r3
 8001604:	688a      	ldr	r2, [r1, #8]
 8001606:	690b      	ldr	r3, [r1, #16]
 8001608:	4607      	mov	r7, r0
 800160a:	4293      	cmp	r3, r2
 800160c:	bfb8      	it	lt
 800160e:	4613      	movlt	r3, r2
 8001610:	6033      	str	r3, [r6, #0]
 8001612:	f891 2043 	ldrb.w	r2, [r1, #67]	@ 0x43
 8001616:	460c      	mov	r4, r1
 8001618:	f8dd 9020 	ldr.w	r9, [sp, #32]
 800161c:	b10a      	cbz	r2, 8001622 <_printf_common+0x26>
 800161e:	3301      	adds	r3, #1
 8001620:	6033      	str	r3, [r6, #0]
 8001622:	6823      	ldr	r3, [r4, #0]
 8001624:	0699      	lsls	r1, r3, #26
 8001626:	bf42      	ittt	mi
 8001628:	6833      	ldrmi	r3, [r6, #0]
 800162a:	3302      	addmi	r3, #2
 800162c:	6033      	strmi	r3, [r6, #0]
 800162e:	6825      	ldr	r5, [r4, #0]
 8001630:	f015 0506 	ands.w	r5, r5, #6
 8001634:	d106      	bne.n	8001644 <_printf_common+0x48>
 8001636:	f104 0a19 	add.w	sl, r4, #25
 800163a:	68e3      	ldr	r3, [r4, #12]
 800163c:	6832      	ldr	r2, [r6, #0]
 800163e:	1a9b      	subs	r3, r3, r2
 8001640:	42ab      	cmp	r3, r5
 8001642:	dc2b      	bgt.n	800169c <_printf_common+0xa0>
 8001644:	f894 3043 	ldrb.w	r3, [r4, #67]	@ 0x43
 8001648:	6822      	ldr	r2, [r4, #0]
 800164a:	3b00      	subs	r3, #0
 800164c:	bf18      	it	ne
 800164e:	2301      	movne	r3, #1
 8001650:	0692      	lsls	r2, r2, #26
 8001652:	d430      	bmi.n	80016b6 <_printf_common+0xba>
 8001654:	4641      	mov	r1, r8
 8001656:	4638      	mov	r0, r7
 8001658:	f104 0243 	add.w	r2, r4, #67	@ 0x43
 800165c:	47c8      	blx	r9
 800165e:	3001      	adds	r0, #1
 8001660:	d023      	beq.n	80016aa <_printf_common+0xae>
 8001662:	6823      	ldr	r3, [r4, #0]
 8001664:	6922      	ldr	r2, [r4, #16]
 8001666:	f003 0306 	and.w	r3, r3, #6
 800166a:	2b04      	cmp	r3, #4
 800166c:	bf14      	ite	ne
 800166e:	2500      	movne	r5, #0
 8001670:	6833      	ldreq	r3, [r6, #0]
 8001672:	f04f 0600 	mov.w	r6, #0
 8001676:	bf08      	it	eq
 8001678:	68e5      	ldreq	r5, [r4, #12]
 800167a:	f104 041a 	add.w	r4, r4, #26
 800167e:	bf08      	it	eq
 8001680:	1aed      	subeq	r5, r5, r3
 8001682:	f854 3c12 	ldr.w	r3, [r4, #-18]
 8001686:	bf08      	it	eq
 8001688:	ea25 75e5 	biceq.w	r5, r5, r5, asr #31
 800168c:	4293      	cmp	r3, r2
 800168e:	bfc4      	itt	gt
 8001690:	1a9b      	subgt	r3, r3, r2
 8001692:	18ed      	addgt	r5, r5, r3
 8001694:	42b5      	cmp	r5, r6
 8001696:	d11a      	bne.n	80016ce <_printf_common+0xd2>
 8001698:	2000      	movs	r0, #0
 800169a:	e008      	b.n	80016ae <_printf_common+0xb2>
 800169c:	2301      	movs	r3, #1
 800169e:	4652      	mov	r2, sl
 80016a0:	4641      	mov	r1, r8
 80016a2:	4638      	mov	r0, r7
 80016a4:	47c8      	blx	r9
 80016a6:	3001      	adds	r0, #1
 80016a8:	d103      	bne.n	80016b2 <_printf_common+0xb6>
 80016aa:	f04f 30ff 	mov.w	r0, #4294967295
 80016ae:	e8bd 87f0 	ldmia.w	sp!, {r4, r5, r6, r7, r8, r9, sl, pc}
 80016b2:	3501      	adds	r5, #1
 80016b4:	e7c1      	b.n	800163a <_printf_common+0x3e>
 80016b6:	2030      	movs	r0, #48	@ 0x30
 80016b8:	18e1      	adds	r1, r4, r3
 80016ba:	f881 0043 	strb.w	r0, [r1, #67]	@ 0x43
 80016be:	1c5a      	adds	r2, r3, #1
 80016c0:	f894 1045 	ldrb.w	r1, [r4, #69]	@ 0x45
 80016c4:	4422      	add	r2, r4
 80016c6:	3302      	adds	r3, #2
 80016c8:	f882 1043 	strb.w	r1, [r2, #67]	@ 0x43
 80016cc:	e7c2      	b.n	8001654 <_printf_common+0x58>
 80016ce:	2301      	movs	r3, #1
 80016d0:	4622      	mov	r2, r4
 80016d2:	4641      	mov	r1, r8
 80016d4:	4638      	mov	r0, r7
 80016d6:	47c8      	blx	r9
 80016d8:	3001      	adds	r0, #1
 80016da:	d0e6      	beq.n	80016aa <_printf_common+0xae>
 80016dc:	3601      	adds	r6, #1
 80016de:	e7d9      	b.n	8001694 <_printf_common+0x98>

080016e0 <_printf_i>:
 80016e0:	e92d 47ff 	stmdb	sp!, {r0, r1, r2, r3, r4, r5, r6, r7, r8, r9, sl, lr}
 80016e4:	7e0f      	ldrb	r7, [r1, #24]
 80016e6:	4691      	mov	r9, r2
 80016e8:	2f78      	cmp	r7, #120	@ 0x78
 80016ea:	4680      	mov	r8, r0
 80016ec:	460c      	mov	r4, r1
 80016ee:	469a      	mov	sl, r3
 80016f0:	9e0c      	ldr	r6, [sp, #48]	@ 0x30
 80016f2:	f101 0243 	add.w	r2, r1, #67	@ 0x43
 80016f6:	d807      	bhi.n	8001708 <_printf_i+0x28>
 80016f8:	2f62      	cmp	r7, #98	@ 0x62
 80016fa:	d80a      	bhi.n	8001712 <_printf_i+0x32>
 80016fc:	2f00      	cmp	r7, #0
 80016fe:	f000 80d3 	beq.w	80018a8 <_printf_i+0x1c8>
 8001702:	2f58      	cmp	r7, #88	@ 0x58
 8001704:	f000 80ba 	beq.w	800187c <_printf_i+0x19c>
 8001708:	f104 0642 	add.w	r6, r4, #66	@ 0x42
 800170c:	f884 7042 	strb.w	r7, [r4, #66]	@ 0x42
 8001710:	e03a      	b.n	8001788 <_printf_i+0xa8>
 8001712:	f1a7 0363 	sub.w	r3, r7, #99	@ 0x63
 8001716:	2b15      	cmp	r3, #21
 8001718:	d8f6      	bhi.n	8001708 <_printf_i+0x28>
 800171a:	a101      	add	r1, pc, #4	@ (adr r1, 8001720 <_printf_i+0x40>)
 800171c:	f851 f023 	ldr.w	pc, [r1, r3, lsl #2]
 8001720:	08001779 	.word	0x08001779
 8001724:	0800178d 	.word	0x0800178d
 8001728:	08001709 	.word	0x08001709
 800172c:	08001709 	.word	0x08001709
 8001730:	08001709 	.word	0x08001709
 8001734:	08001709 	.word	0x08001709
 8001738:	0800178d 	.word	0x0800178d
 800173c:	08001709 	.word	0x08001709
 8001740:	08001709 	.word	0x08001709
 8001744:	08001709 	.word	0x08001709
 8001748:	08001709 	.word	0x08001709
 800174c:	0800188f 	.word	0x0800188f
 8001750:	080017b7 	.word	0x080017b7
 8001754:	08001849 	.word	0x08001849
 8001758:	08001709 	.word	0x08001709
 800175c:	08001709 	.word	0x08001709
 8001760:	080018b1 	.word	0x080018b1
 8001764:	08001709 	.word	0x08001709
 8001768:	080017b7 	.word	0x080017b7
 800176c:	08001709 	.word	0x08001709
 8001770:	08001709 	.word	0x08001709
 8001774:	08001851 	.word	0x08001851
 8001778:	6833      	ldr	r3, [r6, #0]
 800177a:	1d1a      	adds	r2, r3, #4
 800177c:	681b      	ldr	r3, [r3, #0]
 800177e:	6032      	str	r2, [r6, #0]
 8001780:	f104 0642 	add.w	r6, r4, #66	@ 0x42
 8001784:	f884 3042 	strb.w	r3, [r4, #66]	@ 0x42
 8001788:	2301      	movs	r3, #1
 800178a:	e09e      	b.n	80018ca <_printf_i+0x1ea>
 800178c:	6833      	ldr	r3, [r6, #0]
 800178e:	6820      	ldr	r0, [r4, #0]
 8001790:	1d19      	adds	r1, r3, #4
 8001792:	6031      	str	r1, [r6, #0]
 8001794:	0606      	lsls	r6, r0, #24
 8001796:	d501      	bpl.n	800179c <_printf_i+0xbc>
 8001798:	681d      	ldr	r5, [r3, #0]
 800179a:	e003      	b.n	80017a4 <_printf_i+0xc4>
 800179c:	0645      	lsls	r5, r0, #25
 800179e:	d5fb      	bpl.n	8001798 <_printf_i+0xb8>
 80017a0:	f9b3 5000 	ldrsh.w	r5, [r3]
 80017a4:	2d00      	cmp	r5, #0
 80017a6:	da03      	bge.n	80017b0 <_printf_i+0xd0>
 80017a8:	232d      	movs	r3, #45	@ 0x2d
 80017aa:	426d      	negs	r5, r5
 80017ac:	f884 3043 	strb.w	r3, [r4, #67]	@ 0x43
 80017b0:	230a      	movs	r3, #10
 80017b2:	4859      	ldr	r0, [pc, #356]	@ (8001918 <_printf_i+0x238>)
 80017b4:	e011      	b.n	80017da <_printf_i+0xfa>
 80017b6:	6821      	ldr	r1, [r4, #0]
 80017b8:	6833      	ldr	r3, [r6, #0]
 80017ba:	0608      	lsls	r0, r1, #24
 80017bc:	f853 5b04 	ldr.w	r5, [r3], #4
 80017c0:	d402      	bmi.n	80017c8 <_printf_i+0xe8>
 80017c2:	0649      	lsls	r1, r1, #25
 80017c4:	bf48      	it	mi
 80017c6:	b2ad      	uxthmi	r5, r5
 80017c8:	2f6f      	cmp	r7, #111	@ 0x6f
 80017ca:	6033      	str	r3, [r6, #0]
 80017cc:	bf14      	ite	ne
 80017ce:	230a      	movne	r3, #10
 80017d0:	2308      	moveq	r3, #8
 80017d2:	4851      	ldr	r0, [pc, #324]	@ (8001918 <_printf_i+0x238>)
 80017d4:	2100      	movs	r1, #0
 80017d6:	f884 1043 	strb.w	r1, [r4, #67]	@ 0x43
 80017da:	6866      	ldr	r6, [r4, #4]
 80017dc:	2e00      	cmp	r6, #0
 80017de:	bfa8      	it	ge
 80017e0:	6821      	ldrge	r1, [r4, #0]
 80017e2:	60a6      	str	r6, [r4, #8]
 80017e4:	bfa4      	itt	ge
 80017e6:	f021 0104 	bicge.w	r1, r1, #4
 80017ea:	6021      	strge	r1, [r4, #0]
 80017ec:	b90d      	cbnz	r5, 80017f2 <_printf_i+0x112>
 80017ee:	2e00      	cmp	r6, #0
 80017f0:	d04b      	beq.n	800188a <_printf_i+0x1aa>
 80017f2:	4616      	mov	r6, r2
 80017f4:	fbb5 f1f3 	udiv	r1, r5, r3
 80017f8:	fb03 5711 	mls	r7, r3, r1, r5
 80017fc:	5dc7      	ldrb	r7, [r0, r7]
 80017fe:	f806 7d01 	strb.w	r7, [r6, #-1]!
 8001802:	462f      	mov	r7, r5
 8001804:	42bb      	cmp	r3, r7
 8001806:	460d      	mov	r5, r1
 8001808:	d9f4      	bls.n	80017f4 <_printf_i+0x114>
 800180a:	2b08      	cmp	r3, #8
 800180c:	d10b      	bne.n	8001826 <_printf_i+0x146>
 800180e:	6823      	ldr	r3, [r4, #0]
 8001810:	07df      	lsls	r7, r3, #31
 8001812:	d508      	bpl.n	8001826 <_printf_i+0x146>
 8001814:	6923      	ldr	r3, [r4, #16]
 8001816:	6861      	ldr	r1, [r4, #4]
 8001818:	4299      	cmp	r1, r3
 800181a:	bfde      	ittt	le
 800181c:	2330      	movle	r3, #48	@ 0x30
 800181e:	f806 3c01 	strble.w	r3, [r6, #-1]
 8001822:	f106 36ff 	addle.w	r6, r6, #4294967295
 8001826:	1b92      	subs	r2, r2, r6
 8001828:	6122      	str	r2, [r4, #16]
 800182a:	464b      	mov	r3, r9
 800182c:	4621      	mov	r1, r4
 800182e:	4640      	mov	r0, r8
 8001830:	f8cd a000 	str.w	sl, [sp]
 8001834:	aa03      	add	r2, sp, #12
 8001836:	f7ff fee1 	bl	80015fc <_printf_common>
 800183a:	3001      	adds	r0, #1
 800183c:	d14a      	bne.n	80018d4 <_printf_i+0x1f4>
 800183e:	f04f 30ff 	mov.w	r0, #4294967295
 8001842:	b004      	add	sp, #16
 8001844:	e8bd 87f0 	ldmia.w	sp!, {r4, r5, r6, r7, r8, r9, sl, pc}
 8001848:	6823      	ldr	r3, [r4, #0]
 800184a:	f043 0320 	orr.w	r3, r3, #32
 800184e:	6023      	str	r3, [r4, #0]
 8001850:	2778      	movs	r7, #120	@ 0x78
 8001852:	4832      	ldr	r0, [pc, #200]	@ (800191c <_printf_i+0x23c>)
 8001854:	f884 7045 	strb.w	r7, [r4, #69]	@ 0x45
 8001858:	6823      	ldr	r3, [r4, #0]
 800185a:	6831      	ldr	r1, [r6, #0]
 800185c:	061f      	lsls	r7, r3, #24
 800185e:	f851 5b04 	ldr.w	r5, [r1], #4
 8001862:	d402      	bmi.n	800186a <_printf_i+0x18a>
 8001864:	065f      	lsls	r7, r3, #25
 8001866:	bf48      	it	mi
 8001868:	b2ad      	uxthmi	r5, r5
 800186a:	6031      	str	r1, [r6, #0]
 800186c:	07d9      	lsls	r1, r3, #31
 800186e:	bf44      	itt	mi
 8001870:	f043 0320 	orrmi.w	r3, r3, #32
 8001874:	6023      	strmi	r3, [r4, #0]
 8001876:	b11d      	cbz	r5, 8001880 <_printf_i+0x1a0>
 8001878:	2310      	movs	r3, #16
 800187a:	e7ab      	b.n	80017d4 <_printf_i+0xf4>
 800187c:	4826      	ldr	r0, [pc, #152]	@ (8001918 <_printf_i+0x238>)
 800187e:	e7e9      	b.n	8001854 <_printf_i+0x174>
 8001880:	6823      	ldr	r3, [r4, #0]
 8001882:	f023 0320 	bic.w	r3, r3, #32
 8001886:	6023      	str	r3, [r4, #0]
 8001888:	e7f6      	b.n	8001878 <_printf_i+0x198>
 800188a:	4616      	mov	r6, r2
 800188c:	e7bd      	b.n	800180a <_printf_i+0x12a>
 800188e:	6833      	ldr	r3, [r6, #0]
 8001890:	6825      	ldr	r5, [r4, #0]
 8001892:	1d18      	adds	r0, r3, #4
 8001894:	6961      	ldr	r1, [r4, #20]
 8001896:	6030      	str	r0, [r6, #0]
 8001898:	062e      	lsls	r6, r5, #24
 800189a:	681b      	ldr	r3, [r3, #0]
 800189c:	d501      	bpl.n	80018a2 <_printf_i+0x1c2>
 800189e:	6019      	str	r1, [r3, #0]
 80018a0:	e002      	b.n	80018a8 <_printf_i+0x1c8>
 80018a2:	0668      	lsls	r0, r5, #25
 80018a4:	d5fb      	bpl.n	800189e <_printf_i+0x1be>
 80018a6:	8019      	strh	r1, [r3, #0]
 80018a8:	2300      	movs	r3, #0
 80018aa:	4616      	mov	r6, r2
 80018ac:	6123      	str	r3, [r4, #16]
 80018ae:	e7bc      	b.n	800182a <_printf_i+0x14a>
 80018b0:	6833      	ldr	r3, [r6, #0]
 80018b2:	2100      	movs	r1, #0
 80018b4:	1d1a      	adds	r2, r3, #4
 80018b6:	6032      	str	r2, [r6, #0]
 80018b8:	681e      	ldr	r6, [r3, #0]
 80018ba:	6862      	ldr	r2, [r4, #4]
 80018bc:	4630      	mov	r0, r6
 80018be:	f000 f9b4 	bl	8001c2a <memchr>
 80018c2:	b108      	cbz	r0, 80018c8 <_printf_i+0x1e8>
 80018c4:	1b80      	subs	r0, r0, r6
 80018c6:	6060      	str	r0, [r4, #4]
 80018c8:	6863      	ldr	r3, [r4, #4]
 80018ca:	6123      	str	r3, [r4, #16]
 80018cc:	2300      	movs	r3, #0
 80018ce:	f884 3043 	strb.w	r3, [r4, #67]	@ 0x43
 80018d2:	e7aa      	b.n	800182a <_printf_i+0x14a>
 80018d4:	4632      	mov	r2, r6
 80018d6:	4649      	mov	r1, r9
 80018d8:	4640      	mov	r0, r8
 80018da:	6923      	ldr	r3, [r4, #16]
 80018dc:	47d0      	blx	sl
 80018de:	3001      	adds	r0, #1
 80018e0:	d0ad      	beq.n	800183e <_printf_i+0x15e>
 80018e2:	6823      	ldr	r3, [r4, #0]
 80018e4:	079b      	lsls	r3, r3, #30
 80018e6:	d413      	bmi.n	8001910 <_printf_i+0x230>
 80018e8:	68e0      	ldr	r0, [r4, #12]
 80018ea:	9b03      	ldr	r3, [sp, #12]
 80018ec:	4298      	cmp	r0, r3
 80018ee:	bfb8      	it	lt
 80018f0:	4618      	movlt	r0, r3
 80018f2:	e7a6      	b.n	8001842 <_printf_i+0x162>
 80018f4:	2301      	movs	r3, #1
 80018f6:	4632      	mov	r2, r6
 80018f8:	4649      	mov	r1, r9
 80018fa:	4640      	mov	r0, r8
 80018fc:	47d0      	blx	sl
 80018fe:	3001      	adds	r0, #1
 8001900:	d09d      	beq.n	800183e <_printf_i+0x15e>
 8001902:	3501      	adds	r5, #1
 8001904:	68e3      	ldr	r3, [r4, #12]
 8001906:	9903      	ldr	r1, [sp, #12]
 8001908:	1a5b      	subs	r3, r3, r1
 800190a:	42ab      	cmp	r3, r5
 800190c:	dcf2      	bgt.n	80018f4 <_printf_i+0x214>
 800190e:	e7eb      	b.n	80018e8 <_printf_i+0x208>
 8001910:	2500      	movs	r5, #0
 8001912:	f104 0619 	add.w	r6, r4, #25
 8001916:	e7f5      	b.n	8001904 <_printf_i+0x224>
 8001918:	080039aa 	.word	0x080039aa
 800191c:	080039bb 	.word	0x080039bb

08001920 <std>:
 8001920:	2300      	movs	r3, #0
 8001922:	b510      	push	{r4, lr}
 8001924:	4604      	mov	r4, r0
 8001926:	e9c0 3300 	strd	r3, r3, [r0]
 800192a:	e9c0 3304 	strd	r3, r3, [r0, #16]
 800192e:	6083      	str	r3, [r0, #8]
 8001930:	8181      	strh	r1, [r0, #12]
 8001932:	6643      	str	r3, [r0, #100]	@ 0x64
 8001934:	81c2      	strh	r2, [r0, #14]
 8001936:	6183      	str	r3, [r0, #24]
 8001938:	4619      	mov	r1, r3
 800193a:	2208      	movs	r2, #8
 800193c:	305c      	adds	r0, #92	@ 0x5c
 800193e:	f000 f8f4 	bl	8001b2a <memset>
 8001942:	4b0d      	ldr	r3, [pc, #52]	@ (8001978 <std+0x58>)
 8001944:	6224      	str	r4, [r4, #32]
 8001946:	6263      	str	r3, [r4, #36]	@ 0x24
 8001948:	4b0c      	ldr	r3, [pc, #48]	@ (800197c <std+0x5c>)
 800194a:	62a3      	str	r3, [r4, #40]	@ 0x28
 800194c:	4b0c      	ldr	r3, [pc, #48]	@ (8001980 <std+0x60>)
 800194e:	62e3      	str	r3, [r4, #44]	@ 0x2c
 8001950:	4b0c      	ldr	r3, [pc, #48]	@ (8001984 <std+0x64>)
 8001952:	6323      	str	r3, [r4, #48]	@ 0x30
 8001954:	4b0c      	ldr	r3, [pc, #48]	@ (8001988 <std+0x68>)
 8001956:	429c      	cmp	r4, r3
 8001958:	d006      	beq.n	8001968 <std+0x48>
 800195a:	f103 0268 	add.w	r2, r3, #104	@ 0x68
 800195e:	4294      	cmp	r4, r2
 8001960:	d002      	beq.n	8001968 <std+0x48>
 8001962:	33d0      	adds	r3, #208	@ 0xd0
 8001964:	429c      	cmp	r4, r3
 8001966:	d105      	bne.n	8001974 <std+0x54>
 8001968:	f104 0058 	add.w	r0, r4, #88	@ 0x58
 800196c:	e8bd 4010 	ldmia.w	sp!, {r4, lr}
 8001970:	f000 b958 	b.w	8001c24 <__retarget_lock_init_recursive>
 8001974:	bd10      	pop	{r4, pc}
 8001976:	bf00      	nop
 8001978:	08001aa5 	.word	0x08001aa5
 800197c:	08001ac7 	.word	0x08001ac7
 8001980:	08001aff 	.word	0x08001aff
 8001984:	08001b23 	.word	0x08001b23
 8001988:	200003fc 	.word	0x200003fc

0800198c <stdio_exit_handler>:
 800198c:	4a02      	ldr	r2, [pc, #8]	@ (8001998 <stdio_exit_handler+0xc>)
 800198e:	4903      	ldr	r1, [pc, #12]	@ (800199c <stdio_exit_handler+0x10>)
 8001990:	4803      	ldr	r0, [pc, #12]	@ (80019a0 <stdio_exit_handler+0x14>)
 8001992:	f000 b869 	b.w	8001a68 <_fwalk_sglue>
 8001996:	bf00      	nop
 8001998:	2000000c 	.word	0x2000000c
 800199c:	080032e5 	.word	0x080032e5
 80019a0:	2000001c 	.word	0x2000001c

080019a4 <cleanup_stdio>:
 80019a4:	6841      	ldr	r1, [r0, #4]
 80019a6:	4b0c      	ldr	r3, [pc, #48]	@ (80019d8 <cleanup_stdio+0x34>)
 80019a8:	b510      	push	{r4, lr}
 80019aa:	4299      	cmp	r1, r3
 80019ac:	4604      	mov	r4, r0
 80019ae:	d001      	beq.n	80019b4 <cleanup_stdio+0x10>
 80019b0:	f001 fc98 	bl	80032e4 <_fflush_r>
 80019b4:	68a1      	ldr	r1, [r4, #8]
 80019b6:	4b09      	ldr	r3, [pc, #36]	@ (80019dc <cleanup_stdio+0x38>)
 80019b8:	4299      	cmp	r1, r3
 80019ba:	d002      	beq.n	80019c2 <cleanup_stdio+0x1e>
 80019bc:	4620      	mov	r0, r4
 80019be:	f001 fc91 	bl	80032e4 <_fflush_r>
 80019c2:	68e1      	ldr	r1, [r4, #12]
 80019c4:	4b06      	ldr	r3, [pc, #24]	@ (80019e0 <cleanup_stdio+0x3c>)
 80019c6:	4299      	cmp	r1, r3
 80019c8:	d004      	beq.n	80019d4 <cleanup_stdio+0x30>
 80019ca:	4620      	mov	r0, r4
 80019cc:	e8bd 4010 	ldmia.w	sp!, {r4, lr}
 80019d0:	f001 bc88 	b.w	80032e4 <_fflush_r>
 80019d4:	bd10      	pop	{r4, pc}
 80019d6:	bf00      	nop
 80019d8:	200003fc 	.word	0x200003fc
 80019dc:	20000464 	.word	0x20000464
 80019e0:	200004cc 	.word	0x200004cc

080019e4 <global_stdio_init.part.0>:
 80019e4:	b510      	push	{r4, lr}
 80019e6:	4b0b      	ldr	r3, [pc, #44]	@ (8001a14 <global_stdio_init.part.0+0x30>)
 80019e8:	4c0b      	ldr	r4, [pc, #44]	@ (8001a18 <global_stdio_init.part.0+0x34>)
 80019ea:	4a0c      	ldr	r2, [pc, #48]	@ (8001a1c <global_stdio_init.part.0+0x38>)
 80019ec:	4620      	mov	r0, r4
 80019ee:	601a      	str	r2, [r3, #0]
 80019f0:	2104      	movs	r1, #4
 80019f2:	2200      	movs	r2, #0
 80019f4:	f7ff ff94 	bl	8001920 <std>
 80019f8:	f104 0068 	add.w	r0, r4, #104	@ 0x68
 80019fc:	2201      	movs	r2, #1
 80019fe:	2109      	movs	r1, #9
 8001a00:	f7ff ff8e 	bl	8001920 <std>
 8001a04:	f104 00d0 	add.w	r0, r4, #208	@ 0xd0
 8001a08:	2202      	movs	r2, #2
 8001a0a:	e8bd 4010 	ldmia.w	sp!, {r4, lr}
 8001a0e:	2112      	movs	r1, #18
 8001a10:	f7ff bf86 	b.w	8001920 <std>
 8001a14:	20000534 	.word	0x20000534
 8001a18:	200003fc 	.word	0x200003fc
 8001a1c:	0800198d 	.word	0x0800198d

08001a20 <__sfp_lock_acquire>:
 8001a20:	4801      	ldr	r0, [pc, #4]	@ (8001a28 <__sfp_lock_acquire+0x8>)
 8001a22:	f000 b900 	b.w	8001c26 <__retarget_lock_acquire_recursive>
 8001a26:	bf00      	nop
 8001a28:	2000053d 	.word	0x2000053d

08001a2c <__sfp_lock_release>:
 8001a2c:	4801      	ldr	r0, [pc, #4]	@ (8001a34 <__sfp_lock_release+0x8>)
 8001a2e:	f000 b8fb 	b.w	8001c28 <__retarget_lock_release_recursive>
 8001a32:	bf00      	nop
 8001a34:	2000053d 	.word	0x2000053d

08001a38 <__sinit>:
 8001a38:	b510      	push	{r4, lr}
 8001a3a:	4604      	mov	r4, r0
 8001a3c:	f7ff fff0 	bl	8001a20 <__sfp_lock_acquire>
 8001a40:	6a23      	ldr	r3, [r4, #32]
 8001a42:	b11b      	cbz	r3, 8001a4c <__sinit+0x14>
 8001a44:	e8bd 4010 	ldmia.w	sp!, {r4, lr}
 8001a48:	f7ff bff0 	b.w	8001a2c <__sfp_lock_release>
 8001a4c:	4b04      	ldr	r3, [pc, #16]	@ (8001a60 <__sinit+0x28>)
 8001a4e:	6223      	str	r3, [r4, #32]
 8001a50:	4b04      	ldr	r3, [pc, #16]	@ (8001a64 <__sinit+0x2c>)
 8001a52:	681b      	ldr	r3, [r3, #0]
 8001a54:	2b00      	cmp	r3, #0
 8001a56:	d1f5      	bne.n	8001a44 <__sinit+0xc>
 8001a58:	f7ff ffc4 	bl	80019e4 <global_stdio_init.part.0>
 8001a5c:	e7f2      	b.n	8001a44 <__sinit+0xc>
 8001a5e:	bf00      	nop
 8001a60:	080019a5 	.word	0x080019a5
 8001a64:	20000534 	.word	0x20000534

08001a68 <_fwalk_sglue>:
 8001a68:	e92d 43f8 	stmdb	sp!, {r3, r4, r5, r6, r7, r8, r9, lr}
 8001a6c:	4607      	mov	r7, r0
 8001a6e:	4688      	mov	r8, r1
 8001a70:	4614      	mov	r4, r2
 8001a72:	2600      	movs	r6, #0
 8001a74:	e9d4 9501 	ldrd	r9, r5, [r4, #4]
 8001a78:	f1b9 0901 	subs.w	r9, r9, #1
 8001a7c:	d505      	bpl.n	8001a8a <_fwalk_sglue+0x22>
 8001a7e:	6824      	ldr	r4, [r4, #0]
 8001a80:	2c00      	cmp	r4, #0
 8001a82:	d1f7      	bne.n	8001a74 <_fwalk_sglue+0xc>
 8001a84:	4630      	mov	r0, r6
 8001a86:	e8bd 83f8 	ldmia.w	sp!, {r3, r4, r5, r6, r7, r8, r9, pc}
 8001a8a:	89ab      	ldrh	r3, [r5, #12]
 8001a8c:	2b01      	cmp	r3, #1
 8001a8e:	d907      	bls.n	8001aa0 <_fwalk_sglue+0x38>
 8001a90:	f9b5 300e 	ldrsh.w	r3, [r5, #14]
 8001a94:	3301      	adds	r3, #1
 8001a96:	d003      	beq.n	8001aa0 <_fwalk_sglue+0x38>
 8001a98:	4629      	mov	r1, r5
 8001a9a:	4638      	mov	r0, r7
 8001a9c:	47c0      	blx	r8
 8001a9e:	4306      	orrs	r6, r0
 8001aa0:	3568      	adds	r5, #104	@ 0x68
 8001aa2:	e7e9      	b.n	8001a78 <_fwalk_sglue+0x10>

08001aa4 <__sread>:
 8001aa4:	b510      	push	{r4, lr}
 8001aa6:	460c      	mov	r4, r1
 8001aa8:	f9b1 100e 	ldrsh.w	r1, [r1, #14]
 8001aac:	f000 f86c 	bl	8001b88 <_read_r>
 8001ab0:	2800      	cmp	r0, #0
 8001ab2:	bfab      	itete	ge
 8001ab4:	6d63      	ldrge	r3, [r4, #84]	@ 0x54
 8001ab6:	89a3      	ldrhlt	r3, [r4, #12]
 8001ab8:	181b      	addge	r3, r3, r0
 8001aba:	f423 5380 	biclt.w	r3, r3, #4096	@ 0x1000
 8001abe:	bfac      	ite	ge
 8001ac0:	6563      	strge	r3, [r4, #84]	@ 0x54
 8001ac2:	81a3      	strhlt	r3, [r4, #12]
 8001ac4:	bd10      	pop	{r4, pc}

08001ac6 <__swrite>:
 8001ac6:	e92d 41f0 	stmdb	sp!, {r4, r5, r6, r7, r8, lr}
 8001aca:	461f      	mov	r7, r3
 8001acc:	898b      	ldrh	r3, [r1, #12]
 8001ace:	4605      	mov	r5, r0
 8001ad0:	05db      	lsls	r3, r3, #23
 8001ad2:	460c      	mov	r4, r1
 8001ad4:	4616      	mov	r6, r2
 8001ad6:	d505      	bpl.n	8001ae4 <__swrite+0x1e>
 8001ad8:	2302      	movs	r3, #2
 8001ada:	2200      	movs	r2, #0
 8001adc:	f9b1 100e 	ldrsh.w	r1, [r1, #14]
 8001ae0:	f000 f840 	bl	8001b64 <_lseek_r>
 8001ae4:	89a3      	ldrh	r3, [r4, #12]
 8001ae6:	4632      	mov	r2, r6
 8001ae8:	f423 5380 	bic.w	r3, r3, #4096	@ 0x1000
 8001aec:	81a3      	strh	r3, [r4, #12]
 8001aee:	4628      	mov	r0, r5
 8001af0:	463b      	mov	r3, r7
 8001af2:	f9b4 100e 	ldrsh.w	r1, [r4, #14]
 8001af6:	e8bd 41f0 	ldmia.w	sp!, {r4, r5, r6, r7, r8, lr}
 8001afa:	f000 b857 	b.w	8001bac <_write_r>

08001afe <__sseek>:
 8001afe:	b510      	push	{r4, lr}
 8001b00:	460c      	mov	r4, r1
 8001b02:	f9b1 100e 	ldrsh.w	r1, [r1, #14]
 8001b06:	f000 f82d 	bl	8001b64 <_lseek_r>
 8001b0a:	1c43      	adds	r3, r0, #1
 8001b0c:	89a3      	ldrh	r3, [r4, #12]
 8001b0e:	bf15      	itete	ne
 8001b10:	6560      	strne	r0, [r4, #84]	@ 0x54
 8001b12:	f423 5380 	biceq.w	r3, r3, #4096	@ 0x1000
 8001b16:	f443 5380 	orrne.w	r3, r3, #4096	@ 0x1000
 8001b1a:	81a3      	strheq	r3, [r4, #12]
 8001b1c:	bf18      	it	ne
 8001b1e:	81a3      	strhne	r3, [r4, #12]
 8001b20:	bd10      	pop	{r4, pc}

08001b22 <__sclose>:
 8001b22:	f9b1 100e 	ldrsh.w	r1, [r1, #14]
 8001b26:	f000 b80d 	b.w	8001b44 <_close_r>

08001b2a <memset>:
 8001b2a:	4603      	mov	r3, r0
 8001b2c:	4402      	add	r2, r0
 8001b2e:	4293      	cmp	r3, r2
 8001b30:	d100      	bne.n	8001b34 <memset+0xa>
 8001b32:	4770      	bx	lr
 8001b34:	f803 1b01 	strb.w	r1, [r3], #1
 8001b38:	e7f9      	b.n	8001b2e <memset+0x4>
	...

08001b3c <_localeconv_r>:
 8001b3c:	4800      	ldr	r0, [pc, #0]	@ (8001b40 <_localeconv_r+0x4>)
 8001b3e:	4770      	bx	lr
 8001b40:	20000158 	.word	0x20000158

08001b44 <_close_r>:
 8001b44:	b538      	push	{r3, r4, r5, lr}
 8001b46:	2300      	movs	r3, #0
 8001b48:	4d05      	ldr	r5, [pc, #20]	@ (8001b60 <_close_r+0x1c>)
 8001b4a:	4604      	mov	r4, r0
 8001b4c:	4608      	mov	r0, r1
 8001b4e:	602b      	str	r3, [r5, #0]
 8001b50:	f7ff f9fa 	bl	8000f48 <_close>
 8001b54:	1c43      	adds	r3, r0, #1
 8001b56:	d102      	bne.n	8001b5e <_close_r+0x1a>
 8001b58:	682b      	ldr	r3, [r5, #0]
 8001b5a:	b103      	cbz	r3, 8001b5e <_close_r+0x1a>
 8001b5c:	6023      	str	r3, [r4, #0]
 8001b5e:	bd38      	pop	{r3, r4, r5, pc}
 8001b60:	20000538 	.word	0x20000538

08001b64 <_lseek_r>:
 8001b64:	b538      	push	{r3, r4, r5, lr}
 8001b66:	4604      	mov	r4, r0
 8001b68:	4608      	mov	r0, r1
 8001b6a:	4611      	mov	r1, r2
 8001b6c:	2200      	movs	r2, #0
 8001b6e:	4d05      	ldr	r5, [pc, #20]	@ (8001b84 <_lseek_r+0x20>)
 8001b70:	602a      	str	r2, [r5, #0]
 8001b72:	461a      	mov	r2, r3
 8001b74:	f7ff fa0c 	bl	8000f90 <_lseek>
 8001b78:	1c43      	adds	r3, r0, #1
 8001b7a:	d102      	bne.n	8001b82 <_lseek_r+0x1e>
 8001b7c:	682b      	ldr	r3, [r5, #0]
 8001b7e:	b103      	cbz	r3, 8001b82 <_lseek_r+0x1e>
 8001b80:	6023      	str	r3, [r4, #0]
 8001b82:	bd38      	pop	{r3, r4, r5, pc}
 8001b84:	20000538 	.word	0x20000538

08001b88 <_read_r>:
 8001b88:	b538      	push	{r3, r4, r5, lr}
 8001b8a:	4604      	mov	r4, r0
 8001b8c:	4608      	mov	r0, r1
 8001b8e:	4611      	mov	r1, r2
 8001b90:	2200      	movs	r2, #0
 8001b92:	4d05      	ldr	r5, [pc, #20]	@ (8001ba8 <_read_r+0x20>)
 8001b94:	602a      	str	r2, [r5, #0]
 8001b96:	461a      	mov	r2, r3
 8001b98:	f7ff f99d 	bl	8000ed6 <_read>
 8001b9c:	1c43      	adds	r3, r0, #1
 8001b9e:	d102      	bne.n	8001ba6 <_read_r+0x1e>
 8001ba0:	682b      	ldr	r3, [r5, #0]
 8001ba2:	b103      	cbz	r3, 8001ba6 <_read_r+0x1e>
 8001ba4:	6023      	str	r3, [r4, #0]
 8001ba6:	bd38      	pop	{r3, r4, r5, pc}
 8001ba8:	20000538 	.word	0x20000538

08001bac <_write_r>:
 8001bac:	b538      	push	{r3, r4, r5, lr}
 8001bae:	4604      	mov	r4, r0
 8001bb0:	4608      	mov	r0, r1
 8001bb2:	4611      	mov	r1, r2
 8001bb4:	2200      	movs	r2, #0
 8001bb6:	4d05      	ldr	r5, [pc, #20]	@ (8001bcc <_write_r+0x20>)
 8001bb8:	602a      	str	r2, [r5, #0]
 8001bba:	461a      	mov	r2, r3
 8001bbc:	f7ff f9a8 	bl	8000f10 <_write>
 8001bc0:	1c43      	adds	r3, r0, #1
 8001bc2:	d102      	bne.n	8001bca <_write_r+0x1e>
 8001bc4:	682b      	ldr	r3, [r5, #0]
 8001bc6:	b103      	cbz	r3, 8001bca <_write_r+0x1e>
 8001bc8:	6023      	str	r3, [r4, #0]
 8001bca:	bd38      	pop	{r3, r4, r5, pc}
 8001bcc:	20000538 	.word	0x20000538

08001bd0 <__errno>:
 8001bd0:	4b01      	ldr	r3, [pc, #4]	@ (8001bd8 <__errno+0x8>)
 8001bd2:	6818      	ldr	r0, [r3, #0]
 8001bd4:	4770      	bx	lr
 8001bd6:	bf00      	nop
 8001bd8:	20000018 	.word	0x20000018

08001bdc <__libc_init_array>:
 8001bdc:	b570      	push	{r4, r5, r6, lr}
 8001bde:	2600      	movs	r6, #0
 8001be0:	4d0c      	ldr	r5, [pc, #48]	@ (8001c14 <__libc_init_array+0x38>)
 8001be2:	4c0d      	ldr	r4, [pc, #52]	@ (8001c18 <__libc_init_array+0x3c>)
 8001be4:	1b64      	subs	r4, r4, r5
 8001be6:	10a4      	asrs	r4, r4, #2
 8001be8:	42a6      	cmp	r6, r4
 8001bea:	d109      	bne.n	8001c00 <__libc_init_array+0x24>
 8001bec:	f001 fec6 	bl	800397c <_init>
 8001bf0:	2600      	movs	r6, #0
 8001bf2:	4d0a      	ldr	r5, [pc, #40]	@ (8001c1c <__libc_init_array+0x40>)
 8001bf4:	4c0a      	ldr	r4, [pc, #40]	@ (8001c20 <__libc_init_array+0x44>)
 8001bf6:	1b64      	subs	r4, r4, r5
 8001bf8:	10a4      	asrs	r4, r4, #2
 8001bfa:	42a6      	cmp	r6, r4
 8001bfc:	d105      	bne.n	8001c0a <__libc_init_array+0x2e>
 8001bfe:	bd70      	pop	{r4, r5, r6, pc}
 8001c00:	f855 3b04 	ldr.w	r3, [r5], #4
 8001c04:	4798      	blx	r3
 8001c06:	3601      	adds	r6, #1
 8001c08:	e7ee      	b.n	8001be8 <__libc_init_array+0xc>
 8001c0a:	f855 3b04 	ldr.w	r3, [r5], #4
 8001c0e:	4798      	blx	r3
 8001c10:	3601      	adds	r6, #1
 8001c12:	e7f2      	b.n	8001bfa <__libc_init_array+0x1e>
 8001c14:	08003d10 	.word	0x08003d10
 8001c18:	08003d10 	.word	0x08003d10
 8001c1c:	08003d10 	.word	0x08003d10
 8001c20:	08003d14 	.word	0x08003d14

08001c24 <__retarget_lock_init_recursive>:
 8001c24:	4770      	bx	lr

08001c26 <__retarget_lock_acquire_recursive>:
 8001c26:	4770      	bx	lr

08001c28 <__retarget_lock_release_recursive>:
 8001c28:	4770      	bx	lr

08001c2a <memchr>:
 8001c2a:	4603      	mov	r3, r0
 8001c2c:	b510      	push	{r4, lr}
 8001c2e:	b2c9      	uxtb	r1, r1
 8001c30:	4402      	add	r2, r0
 8001c32:	4293      	cmp	r3, r2
 8001c34:	4618      	mov	r0, r3
 8001c36:	d101      	bne.n	8001c3c <memchr+0x12>
 8001c38:	2000      	movs	r0, #0
 8001c3a:	e003      	b.n	8001c44 <memchr+0x1a>
 8001c3c:	7804      	ldrb	r4, [r0, #0]
 8001c3e:	3301      	adds	r3, #1
 8001c40:	428c      	cmp	r4, r1
 8001c42:	d1f6      	bne.n	8001c32 <memchr+0x8>
 8001c44:	bd10      	pop	{r4, pc}

08001c46 <quorem>:
 8001c46:	e92d 4ff7 	stmdb	sp!, {r0, r1, r2, r4, r5, r6, r7, r8, r9, sl, fp, lr}
 8001c4a:	6903      	ldr	r3, [r0, #16]
 8001c4c:	690c      	ldr	r4, [r1, #16]
 8001c4e:	4607      	mov	r7, r0
 8001c50:	42a3      	cmp	r3, r4
 8001c52:	db7e      	blt.n	8001d52 <quorem+0x10c>
 8001c54:	3c01      	subs	r4, #1
 8001c56:	00a3      	lsls	r3, r4, #2
 8001c58:	f100 0514 	add.w	r5, r0, #20
 8001c5c:	f101 0814 	add.w	r8, r1, #20
 8001c60:	9300      	str	r3, [sp, #0]
 8001c62:	eb05 0384 	add.w	r3, r5, r4, lsl #2
 8001c66:	9301      	str	r3, [sp, #4]
 8001c68:	f858 3024 	ldr.w	r3, [r8, r4, lsl #2]
 8001c6c:	f855 2024 	ldr.w	r2, [r5, r4, lsl #2]
 8001c70:	3301      	adds	r3, #1
 8001c72:	429a      	cmp	r2, r3
 8001c74:	fbb2 f6f3 	udiv	r6, r2, r3
 8001c78:	eb08 0984 	add.w	r9, r8, r4, lsl #2
 8001c7c:	d32e      	bcc.n	8001cdc <quorem+0x96>
 8001c7e:	f04f 0a00 	mov.w	sl, #0
 8001c82:	46c4      	mov	ip, r8
 8001c84:	46ae      	mov	lr, r5
 8001c86:	46d3      	mov	fp, sl
 8001c88:	f85c 3b04 	ldr.w	r3, [ip], #4
 8001c8c:	b298      	uxth	r0, r3
 8001c8e:	fb06 a000 	mla	r0, r6, r0, sl
 8001c92:	0c1b      	lsrs	r3, r3, #16
 8001c94:	0c02      	lsrs	r2, r0, #16
 8001c96:	fb06 2303 	mla	r3, r6, r3, r2
 8001c9a:	f8de 2000 	ldr.w	r2, [lr]
 8001c9e:	b280      	uxth	r0, r0
 8001ca0:	b292      	uxth	r2, r2
 8001ca2:	1a12      	subs	r2, r2, r0
 8001ca4:	445a      	add	r2, fp
 8001ca6:	f8de 0000 	ldr.w	r0, [lr]
 8001caa:	ea4f 4a13 	mov.w	sl, r3, lsr #16
 8001cae:	b29b      	uxth	r3, r3
 8001cb0:	ebc3 4322 	rsb	r3, r3, r2, asr #16
 8001cb4:	eb03 4310 	add.w	r3, r3, r0, lsr #16
 8001cb8:	b292      	uxth	r2, r2
 8001cba:	ea42 4203 	orr.w	r2, r2, r3, lsl #16
 8001cbe:	45e1      	cmp	r9, ip
 8001cc0:	ea4f 4b23 	mov.w	fp, r3, asr #16
 8001cc4:	f84e 2b04 	str.w	r2, [lr], #4
 8001cc8:	d2de      	bcs.n	8001c88 <quorem+0x42>
 8001cca:	9b00      	ldr	r3, [sp, #0]
 8001ccc:	58eb      	ldr	r3, [r5, r3]
 8001cce:	b92b      	cbnz	r3, 8001cdc <quorem+0x96>
 8001cd0:	9b01      	ldr	r3, [sp, #4]
 8001cd2:	3b04      	subs	r3, #4
 8001cd4:	429d      	cmp	r5, r3
 8001cd6:	461a      	mov	r2, r3
 8001cd8:	d32f      	bcc.n	8001d3a <quorem+0xf4>
 8001cda:	613c      	str	r4, [r7, #16]
 8001cdc:	4638      	mov	r0, r7
 8001cde:	f001 f979 	bl	8002fd4 <__mcmp>
 8001ce2:	2800      	cmp	r0, #0
 8001ce4:	db25      	blt.n	8001d32 <quorem+0xec>
 8001ce6:	4629      	mov	r1, r5
 8001ce8:	2000      	movs	r0, #0
 8001cea:	f858 2b04 	ldr.w	r2, [r8], #4
 8001cee:	f8d1 c000 	ldr.w	ip, [r1]
 8001cf2:	fa1f fe82 	uxth.w	lr, r2
 8001cf6:	fa1f f38c 	uxth.w	r3, ip
 8001cfa:	eba3 030e 	sub.w	r3, r3, lr
 8001cfe:	4403      	add	r3, r0
 8001d00:	0c12      	lsrs	r2, r2, #16
 8001d02:	ebc2 4223 	rsb	r2, r2, r3, asr #16
 8001d06:	eb02 421c 	add.w	r2, r2, ip, lsr #16
 8001d0a:	b29b      	uxth	r3, r3
 8001d0c:	ea43 4302 	orr.w	r3, r3, r2, lsl #16
 8001d10:	45c1      	cmp	r9, r8
 8001d12:	ea4f 4022 	mov.w	r0, r2, asr #16
 8001d16:	f841 3b04 	str.w	r3, [r1], #4
 8001d1a:	d2e6      	bcs.n	8001cea <quorem+0xa4>
 8001d1c:	f855 2024 	ldr.w	r2, [r5, r4, lsl #2]
 8001d20:	eb05 0384 	add.w	r3, r5, r4, lsl #2
 8001d24:	b922      	cbnz	r2, 8001d30 <quorem+0xea>
 8001d26:	3b04      	subs	r3, #4
 8001d28:	429d      	cmp	r5, r3
 8001d2a:	461a      	mov	r2, r3
 8001d2c:	d30b      	bcc.n	8001d46 <quorem+0x100>
 8001d2e:	613c      	str	r4, [r7, #16]
 8001d30:	3601      	adds	r6, #1
 8001d32:	4630      	mov	r0, r6
 8001d34:	b003      	add	sp, #12
 8001d36:	e8bd 8ff0 	ldmia.w	sp!, {r4, r5, r6, r7, r8, r9, sl, fp, pc}
 8001d3a:	6812      	ldr	r2, [r2, #0]
 8001d3c:	3b04      	subs	r3, #4
 8001d3e:	2a00      	cmp	r2, #0
 8001d40:	d1cb      	bne.n	8001cda <quorem+0x94>
 8001d42:	3c01      	subs	r4, #1
 8001d44:	e7c6      	b.n	8001cd4 <quorem+0x8e>
 8001d46:	6812      	ldr	r2, [r2, #0]
 8001d48:	3b04      	subs	r3, #4
 8001d4a:	2a00      	cmp	r2, #0
 8001d4c:	d1ef      	bne.n	8001d2e <quorem+0xe8>
 8001d4e:	3c01      	subs	r4, #1
 8001d50:	e7ea      	b.n	8001d28 <quorem+0xe2>
 8001d52:	2000      	movs	r0, #0
 8001d54:	e7ee      	b.n	8001d34 <quorem+0xee>
	...

08001d58 <_dtoa_r>:
 8001d58:	e92d 4ff0 	stmdb	sp!, {r4, r5, r6, r7, r8, r9, sl, fp, lr}
 8001d5c:	4614      	mov	r4, r2
 8001d5e:	461d      	mov	r5, r3
 8001d60:	69c7      	ldr	r7, [r0, #28]
 8001d62:	b097      	sub	sp, #92	@ 0x5c
 8001d64:	4683      	mov	fp, r0
 8001d66:	e9cd 4502 	strd	r4, r5, [sp, #8]
 8001d6a:	9e23      	ldr	r6, [sp, #140]	@ 0x8c
 8001d6c:	b97f      	cbnz	r7, 8001d8e <_dtoa_r+0x36>
 8001d6e:	2010      	movs	r0, #16
 8001d70:	f000 fe02 	bl	8002978 <malloc>
 8001d74:	4602      	mov	r2, r0
 8001d76:	f8cb 001c 	str.w	r0, [fp, #28]
 8001d7a:	b920      	cbnz	r0, 8001d86 <_dtoa_r+0x2e>
 8001d7c:	21ef      	movs	r1, #239	@ 0xef
 8001d7e:	4ba8      	ldr	r3, [pc, #672]	@ (8002020 <_dtoa_r+0x2c8>)
 8001d80:	48a8      	ldr	r0, [pc, #672]	@ (8002024 <_dtoa_r+0x2cc>)
 8001d82:	f001 faf5 	bl	8003370 <__assert_func>
 8001d86:	e9c0 7701 	strd	r7, r7, [r0, #4]
 8001d8a:	6007      	str	r7, [r0, #0]
 8001d8c:	60c7      	str	r7, [r0, #12]
 8001d8e:	f8db 301c 	ldr.w	r3, [fp, #28]
 8001d92:	6819      	ldr	r1, [r3, #0]
 8001d94:	b159      	cbz	r1, 8001dae <_dtoa_r+0x56>
 8001d96:	685a      	ldr	r2, [r3, #4]
 8001d98:	2301      	movs	r3, #1
 8001d9a:	4093      	lsls	r3, r2
 8001d9c:	604a      	str	r2, [r1, #4]
 8001d9e:	608b      	str	r3, [r1, #8]
 8001da0:	4658      	mov	r0, fp
 8001da2:	f000 fedf 	bl	8002b64 <_Bfree>
 8001da6:	2200      	movs	r2, #0
 8001da8:	f8db 301c 	ldr.w	r3, [fp, #28]
 8001dac:	601a      	str	r2, [r3, #0]
 8001dae:	1e2b      	subs	r3, r5, #0
 8001db0:	bfaf      	iteee	ge
 8001db2:	2300      	movge	r3, #0
 8001db4:	2201      	movlt	r2, #1
 8001db6:	f023 4300 	biclt.w	r3, r3, #2147483648	@ 0x80000000
 8001dba:	9303      	strlt	r3, [sp, #12]
 8001dbc:	bfa8      	it	ge
 8001dbe:	6033      	strge	r3, [r6, #0]
 8001dc0:	f8dd 800c 	ldr.w	r8, [sp, #12]
 8001dc4:	4b98      	ldr	r3, [pc, #608]	@ (8002028 <_dtoa_r+0x2d0>)
 8001dc6:	bfb8      	it	lt
 8001dc8:	6032      	strlt	r2, [r6, #0]
 8001dca:	ea33 0308 	bics.w	r3, r3, r8
 8001dce:	d112      	bne.n	8001df6 <_dtoa_r+0x9e>
 8001dd0:	f242 730f 	movw	r3, #9999	@ 0x270f
 8001dd4:	9a22      	ldr	r2, [sp, #136]	@ 0x88
 8001dd6:	6013      	str	r3, [r2, #0]
 8001dd8:	f3c8 0313 	ubfx	r3, r8, #0, #20
 8001ddc:	4323      	orrs	r3, r4
 8001dde:	f000 8550 	beq.w	8002882 <_dtoa_r+0xb2a>
 8001de2:	9b24      	ldr	r3, [sp, #144]	@ 0x90
 8001de4:	f8df a244 	ldr.w	sl, [pc, #580]	@ 800202c <_dtoa_r+0x2d4>
 8001de8:	2b00      	cmp	r3, #0
 8001dea:	f000 8552 	beq.w	8002892 <_dtoa_r+0xb3a>
 8001dee:	f10a 0303 	add.w	r3, sl, #3
 8001df2:	f000 bd4c 	b.w	800288e <_dtoa_r+0xb36>
 8001df6:	e9dd 2302 	ldrd	r2, r3, [sp, #8]
 8001dfa:	e9cd 230c 	strd	r2, r3, [sp, #48]	@ 0x30
 8001dfe:	e9dd 010c 	ldrd	r0, r1, [sp, #48]	@ 0x30
 8001e02:	2200      	movs	r2, #0
 8001e04:	2300      	movs	r3, #0
 8001e06:	f7fe fddf 	bl	80009c8 <__aeabi_dcmpeq>
 8001e0a:	4607      	mov	r7, r0
 8001e0c:	b158      	cbz	r0, 8001e26 <_dtoa_r+0xce>
 8001e0e:	2301      	movs	r3, #1
 8001e10:	9a22      	ldr	r2, [sp, #136]	@ 0x88
 8001e12:	6013      	str	r3, [r2, #0]
 8001e14:	9b24      	ldr	r3, [sp, #144]	@ 0x90
 8001e16:	b113      	cbz	r3, 8001e1e <_dtoa_r+0xc6>
 8001e18:	4b85      	ldr	r3, [pc, #532]	@ (8002030 <_dtoa_r+0x2d8>)
 8001e1a:	9a24      	ldr	r2, [sp, #144]	@ 0x90
 8001e1c:	6013      	str	r3, [r2, #0]
 8001e1e:	f8df a214 	ldr.w	sl, [pc, #532]	@ 8002034 <_dtoa_r+0x2dc>
 8001e22:	f000 bd36 	b.w	8002892 <_dtoa_r+0xb3a>
 8001e26:	ab14      	add	r3, sp, #80	@ 0x50
 8001e28:	9301      	str	r3, [sp, #4]
 8001e2a:	ab15      	add	r3, sp, #84	@ 0x54
 8001e2c:	9300      	str	r3, [sp, #0]
 8001e2e:	4658      	mov	r0, fp
 8001e30:	e9dd 230c 	ldrd	r2, r3, [sp, #48]	@ 0x30
 8001e34:	f001 f97e 	bl	8003134 <__d2b>
 8001e38:	f3c8 560a 	ubfx	r6, r8, #20, #11
 8001e3c:	4681      	mov	r9, r0
 8001e3e:	2e00      	cmp	r6, #0
 8001e40:	d077      	beq.n	8001f32 <_dtoa_r+0x1da>
 8001e42:	e9dd 010c 	ldrd	r0, r1, [sp, #48]	@ 0x30
 8001e46:	9b0d      	ldr	r3, [sp, #52]	@ 0x34
 8001e48:	f2a6 36ff 	subw	r6, r6, #1023	@ 0x3ff
 8001e4c:	f3c3 0313 	ubfx	r3, r3, #0, #20
 8001e50:	f043 537f 	orr.w	r3, r3, #1069547520	@ 0x3fc00000
 8001e54:	f443 1340 	orr.w	r3, r3, #3145728	@ 0x300000
 8001e58:	9712      	str	r7, [sp, #72]	@ 0x48
 8001e5a:	4619      	mov	r1, r3
 8001e5c:	2200      	movs	r2, #0
 8001e5e:	4b76      	ldr	r3, [pc, #472]	@ (8002038 <_dtoa_r+0x2e0>)
 8001e60:	f7fe f992 	bl	8000188 <__aeabi_dsub>
 8001e64:	a368      	add	r3, pc, #416	@ (adr r3, 8002008 <_dtoa_r+0x2b0>)
 8001e66:	e9d3 2300 	ldrd	r2, r3, [r3]
 8001e6a:	f7fe fb45 	bl	80004f8 <__aeabi_dmul>
 8001e6e:	a368      	add	r3, pc, #416	@ (adr r3, 8002010 <_dtoa_r+0x2b8>)
 8001e70:	e9d3 2300 	ldrd	r2, r3, [r3]
 8001e74:	f7fe f98a 	bl	800018c <__adddf3>
 8001e78:	4604      	mov	r4, r0
 8001e7a:	4630      	mov	r0, r6
 8001e7c:	460d      	mov	r5, r1
 8001e7e:	f7fe fad1 	bl	8000424 <__aeabi_i2d>
 8001e82:	a365      	add	r3, pc, #404	@ (adr r3, 8002018 <_dtoa_r+0x2c0>)
 8001e84:	e9d3 2300 	ldrd	r2, r3, [r3]
 8001e88:	f7fe fb36 	bl	80004f8 <__aeabi_dmul>
 8001e8c:	4602      	mov	r2, r0
 8001e8e:	460b      	mov	r3, r1
 8001e90:	4620      	mov	r0, r4
 8001e92:	4629      	mov	r1, r5
 8001e94:	f7fe f97a 	bl	800018c <__adddf3>
 8001e98:	4604      	mov	r4, r0
 8001e9a:	460d      	mov	r5, r1
 8001e9c:	f7fe fddc 	bl	8000a58 <__aeabi_d2iz>
 8001ea0:	2200      	movs	r2, #0
 8001ea2:	4607      	mov	r7, r0
 8001ea4:	2300      	movs	r3, #0
 8001ea6:	4620      	mov	r0, r4
 8001ea8:	4629      	mov	r1, r5
 8001eaa:	f7fe fd97 	bl	80009dc <__aeabi_dcmplt>
 8001eae:	b140      	cbz	r0, 8001ec2 <_dtoa_r+0x16a>
 8001eb0:	4638      	mov	r0, r7
 8001eb2:	f7fe fab7 	bl	8000424 <__aeabi_i2d>
 8001eb6:	4622      	mov	r2, r4
 8001eb8:	462b      	mov	r3, r5
 8001eba:	f7fe fd85 	bl	80009c8 <__aeabi_dcmpeq>
 8001ebe:	b900      	cbnz	r0, 8001ec2 <_dtoa_r+0x16a>
 8001ec0:	3f01      	subs	r7, #1
 8001ec2:	2f16      	cmp	r7, #22
 8001ec4:	d853      	bhi.n	8001f6e <_dtoa_r+0x216>
 8001ec6:	e9dd 010c 	ldrd	r0, r1, [sp, #48]	@ 0x30
 8001eca:	4b5c      	ldr	r3, [pc, #368]	@ (800203c <_dtoa_r+0x2e4>)
 8001ecc:	eb03 03c7 	add.w	r3, r3, r7, lsl #3
 8001ed0:	e9d3 2300 	ldrd	r2, r3, [r3]
 8001ed4:	f7fe fd82 	bl	80009dc <__aeabi_dcmplt>
 8001ed8:	2800      	cmp	r0, #0
 8001eda:	d04a      	beq.n	8001f72 <_dtoa_r+0x21a>
 8001edc:	2300      	movs	r3, #0
 8001ede:	3f01      	subs	r7, #1
 8001ee0:	930f      	str	r3, [sp, #60]	@ 0x3c
 8001ee2:	9b14      	ldr	r3, [sp, #80]	@ 0x50
 8001ee4:	1b9b      	subs	r3, r3, r6
 8001ee6:	1e5a      	subs	r2, r3, #1
 8001ee8:	bf46      	itte	mi
 8001eea:	f1c3 0801 	rsbmi	r8, r3, #1
 8001eee:	2300      	movmi	r3, #0
 8001ef0:	f04f 0800 	movpl.w	r8, #0
 8001ef4:	9209      	str	r2, [sp, #36]	@ 0x24
 8001ef6:	bf48      	it	mi
 8001ef8:	9309      	strmi	r3, [sp, #36]	@ 0x24
 8001efa:	2f00      	cmp	r7, #0
 8001efc:	db3b      	blt.n	8001f76 <_dtoa_r+0x21e>
 8001efe:	9b09      	ldr	r3, [sp, #36]	@ 0x24
 8001f00:	970e      	str	r7, [sp, #56]	@ 0x38
 8001f02:	443b      	add	r3, r7
 8001f04:	9309      	str	r3, [sp, #36]	@ 0x24
 8001f06:	2300      	movs	r3, #0
 8001f08:	930a      	str	r3, [sp, #40]	@ 0x28
 8001f0a:	9b20      	ldr	r3, [sp, #128]	@ 0x80
 8001f0c:	2b09      	cmp	r3, #9
 8001f0e:	d866      	bhi.n	8001fde <_dtoa_r+0x286>
 8001f10:	2b05      	cmp	r3, #5
 8001f12:	bfc4      	itt	gt
 8001f14:	3b04      	subgt	r3, #4
 8001f16:	9320      	strgt	r3, [sp, #128]	@ 0x80
 8001f18:	9b20      	ldr	r3, [sp, #128]	@ 0x80
 8001f1a:	bfc8      	it	gt
 8001f1c:	2400      	movgt	r4, #0
 8001f1e:	f1a3 0302 	sub.w	r3, r3, #2
 8001f22:	bfd8      	it	le
 8001f24:	2401      	movle	r4, #1
 8001f26:	2b03      	cmp	r3, #3
 8001f28:	d864      	bhi.n	8001ff4 <_dtoa_r+0x29c>
 8001f2a:	e8df f003 	tbb	[pc, r3]
 8001f2e:	382b      	.short	0x382b
 8001f30:	5636      	.short	0x5636
 8001f32:	e9dd 6314 	ldrd	r6, r3, [sp, #80]	@ 0x50
 8001f36:	441e      	add	r6, r3
 8001f38:	f206 4332 	addw	r3, r6, #1074	@ 0x432
 8001f3c:	2b20      	cmp	r3, #32
 8001f3e:	bfc1      	itttt	gt
 8001f40:	f1c3 0340 	rsbgt	r3, r3, #64	@ 0x40
 8001f44:	fa08 f803 	lslgt.w	r8, r8, r3
 8001f48:	f206 4312 	addwgt	r3, r6, #1042	@ 0x412
 8001f4c:	fa24 f303 	lsrgt.w	r3, r4, r3
 8001f50:	bfd6      	itet	le
 8001f52:	f1c3 0320 	rsble	r3, r3, #32
 8001f56:	ea48 0003 	orrgt.w	r0, r8, r3
 8001f5a:	fa04 f003 	lslle.w	r0, r4, r3
 8001f5e:	f7fe fa51 	bl	8000404 <__aeabi_ui2d>
 8001f62:	2201      	movs	r2, #1
 8001f64:	f1a1 73f8 	sub.w	r3, r1, #32505856	@ 0x1f00000
 8001f68:	3e01      	subs	r6, #1
 8001f6a:	9212      	str	r2, [sp, #72]	@ 0x48
 8001f6c:	e775      	b.n	8001e5a <_dtoa_r+0x102>
 8001f6e:	2301      	movs	r3, #1
 8001f70:	e7b6      	b.n	8001ee0 <_dtoa_r+0x188>
 8001f72:	900f      	str	r0, [sp, #60]	@ 0x3c
 8001f74:	e7b5      	b.n	8001ee2 <_dtoa_r+0x18a>
 8001f76:	427b      	negs	r3, r7
 8001f78:	930a      	str	r3, [sp, #40]	@ 0x28
 8001f7a:	2300      	movs	r3, #0
 8001f7c:	eba8 0807 	sub.w	r8, r8, r7
 8001f80:	930e      	str	r3, [sp, #56]	@ 0x38
 8001f82:	e7c2      	b.n	8001f0a <_dtoa_r+0x1b2>
 8001f84:	2300      	movs	r3, #0
 8001f86:	930b      	str	r3, [sp, #44]	@ 0x2c
 8001f88:	9b21      	ldr	r3, [sp, #132]	@ 0x84
 8001f8a:	2b00      	cmp	r3, #0
 8001f8c:	dc35      	bgt.n	8001ffa <_dtoa_r+0x2a2>
 8001f8e:	2301      	movs	r3, #1
 8001f90:	461a      	mov	r2, r3
 8001f92:	e9cd 3307 	strd	r3, r3, [sp, #28]
 8001f96:	9221      	str	r2, [sp, #132]	@ 0x84
 8001f98:	e00b      	b.n	8001fb2 <_dtoa_r+0x25a>
 8001f9a:	2301      	movs	r3, #1
 8001f9c:	e7f3      	b.n	8001f86 <_dtoa_r+0x22e>
 8001f9e:	2300      	movs	r3, #0
 8001fa0:	930b      	str	r3, [sp, #44]	@ 0x2c
 8001fa2:	9b21      	ldr	r3, [sp, #132]	@ 0x84
 8001fa4:	18fb      	adds	r3, r7, r3
 8001fa6:	9308      	str	r3, [sp, #32]
 8001fa8:	3301      	adds	r3, #1
 8001faa:	2b01      	cmp	r3, #1
 8001fac:	9307      	str	r3, [sp, #28]
 8001fae:	bfb8      	it	lt
 8001fb0:	2301      	movlt	r3, #1
 8001fb2:	2100      	movs	r1, #0
 8001fb4:	2204      	movs	r2, #4
 8001fb6:	f8db 001c 	ldr.w	r0, [fp, #28]
 8001fba:	f102 0514 	add.w	r5, r2, #20
 8001fbe:	429d      	cmp	r5, r3
 8001fc0:	d91f      	bls.n	8002002 <_dtoa_r+0x2aa>
 8001fc2:	6041      	str	r1, [r0, #4]
 8001fc4:	4658      	mov	r0, fp
 8001fc6:	f000 fd8d 	bl	8002ae4 <_Balloc>
 8001fca:	4682      	mov	sl, r0
 8001fcc:	2800      	cmp	r0, #0
 8001fce:	d139      	bne.n	8002044 <_dtoa_r+0x2ec>
 8001fd0:	4602      	mov	r2, r0
 8001fd2:	f240 11af 	movw	r1, #431	@ 0x1af
 8001fd6:	4b1a      	ldr	r3, [pc, #104]	@ (8002040 <_dtoa_r+0x2e8>)
 8001fd8:	e6d2      	b.n	8001d80 <_dtoa_r+0x28>
 8001fda:	2301      	movs	r3, #1
 8001fdc:	e7e0      	b.n	8001fa0 <_dtoa_r+0x248>
 8001fde:	2401      	movs	r4, #1
 8001fe0:	2300      	movs	r3, #0
 8001fe2:	940b      	str	r4, [sp, #44]	@ 0x2c
 8001fe4:	9320      	str	r3, [sp, #128]	@ 0x80
 8001fe6:	f04f 33ff 	mov.w	r3, #4294967295
 8001fea:	2200      	movs	r2, #0
 8001fec:	e9cd 3307 	strd	r3, r3, [sp, #28]
 8001ff0:	2312      	movs	r3, #18
 8001ff2:	e7d0      	b.n	8001f96 <_dtoa_r+0x23e>
 8001ff4:	2301      	movs	r3, #1
 8001ff6:	930b      	str	r3, [sp, #44]	@ 0x2c
 8001ff8:	e7f5      	b.n	8001fe6 <_dtoa_r+0x28e>
 8001ffa:	9b21      	ldr	r3, [sp, #132]	@ 0x84
 8001ffc:	e9cd 3307 	strd	r3, r3, [sp, #28]
 8002000:	e7d7      	b.n	8001fb2 <_dtoa_r+0x25a>
 8002002:	3101      	adds	r1, #1
 8002004:	0052      	lsls	r2, r2, #1
 8002006:	e7d8      	b.n	8001fba <_dtoa_r+0x262>
 8002008:	636f4361 	.word	0x636f4361
 800200c:	3fd287a7 	.word	0x3fd287a7
 8002010:	8b60c8b3 	.word	0x8b60c8b3
 8002014:	3fc68a28 	.word	0x3fc68a28
 8002018:	509f79fb 	.word	0x509f79fb
 800201c:	3fd34413 	.word	0x3fd34413
 8002020:	080039d9 	.word	0x080039d9
 8002024:	080039f0 	.word	0x080039f0
 8002028:	7ff00000 	.word	0x7ff00000
 800202c:	080039d5 	.word	0x080039d5
 8002030:	080039a9 	.word	0x080039a9
 8002034:	080039a8 	.word	0x080039a8
 8002038:	3ff80000 	.word	0x3ff80000
 800203c:	08003ae8 	.word	0x08003ae8
 8002040:	08003a48 	.word	0x08003a48
 8002044:	f8db 301c 	ldr.w	r3, [fp, #28]
 8002048:	6018      	str	r0, [r3, #0]
 800204a:	9b07      	ldr	r3, [sp, #28]
 800204c:	2b0e      	cmp	r3, #14
 800204e:	f200 80a4 	bhi.w	800219a <_dtoa_r+0x442>
 8002052:	2c00      	cmp	r4, #0
 8002054:	f000 80a1 	beq.w	800219a <_dtoa_r+0x442>
 8002058:	2f00      	cmp	r7, #0
 800205a:	dd33      	ble.n	80020c4 <_dtoa_r+0x36c>
 800205c:	4b86      	ldr	r3, [pc, #536]	@ (8002278 <_dtoa_r+0x520>)
 800205e:	f007 020f 	and.w	r2, r7, #15
 8002062:	eb03 03c2 	add.w	r3, r3, r2, lsl #3
 8002066:	05f8      	lsls	r0, r7, #23
 8002068:	e9d3 3400 	ldrd	r3, r4, [r3]
 800206c:	e9cd 3404 	strd	r3, r4, [sp, #16]
 8002070:	ea4f 1427 	mov.w	r4, r7, asr #4
 8002074:	d516      	bpl.n	80020a4 <_dtoa_r+0x34c>
 8002076:	e9dd 010c 	ldrd	r0, r1, [sp, #48]	@ 0x30
 800207a:	4b80      	ldr	r3, [pc, #512]	@ (800227c <_dtoa_r+0x524>)
 800207c:	2603      	movs	r6, #3
 800207e:	e9d3 2308 	ldrd	r2, r3, [r3, #32]
 8002082:	f7fe fb63 	bl	800074c <__aeabi_ddiv>
 8002086:	e9cd 0102 	strd	r0, r1, [sp, #8]
 800208a:	f004 040f 	and.w	r4, r4, #15
 800208e:	4d7b      	ldr	r5, [pc, #492]	@ (800227c <_dtoa_r+0x524>)
 8002090:	b954      	cbnz	r4, 80020a8 <_dtoa_r+0x350>
 8002092:	e9dd 2304 	ldrd	r2, r3, [sp, #16]
 8002096:	e9dd 0102 	ldrd	r0, r1, [sp, #8]
 800209a:	f7fe fb57 	bl	800074c <__aeabi_ddiv>
 800209e:	e9cd 0102 	strd	r0, r1, [sp, #8]
 80020a2:	e028      	b.n	80020f6 <_dtoa_r+0x39e>
 80020a4:	2602      	movs	r6, #2
 80020a6:	e7f2      	b.n	800208e <_dtoa_r+0x336>
 80020a8:	07e1      	lsls	r1, r4, #31
 80020aa:	d508      	bpl.n	80020be <_dtoa_r+0x366>
 80020ac:	e9dd 0104 	ldrd	r0, r1, [sp, #16]
 80020b0:	e9d5 2300 	ldrd	r2, r3, [r5]
 80020b4:	f7fe fa20 	bl	80004f8 <__aeabi_dmul>
 80020b8:	e9cd 0104 	strd	r0, r1, [sp, #16]
 80020bc:	3601      	adds	r6, #1
 80020be:	1064      	asrs	r4, r4, #1
 80020c0:	3508      	adds	r5, #8
 80020c2:	e7e5      	b.n	8002090 <_dtoa_r+0x338>
 80020c4:	f000 80d2 	beq.w	800226c <_dtoa_r+0x514>
 80020c8:	e9dd 010c 	ldrd	r0, r1, [sp, #48]	@ 0x30
 80020cc:	427c      	negs	r4, r7
 80020ce:	4b6a      	ldr	r3, [pc, #424]	@ (8002278 <_dtoa_r+0x520>)
 80020d0:	f004 020f 	and.w	r2, r4, #15
 80020d4:	eb03 03c2 	add.w	r3, r3, r2, lsl #3
 80020d8:	e9d3 2300 	ldrd	r2, r3, [r3]
 80020dc:	f7fe fa0c 	bl	80004f8 <__aeabi_dmul>
 80020e0:	2602      	movs	r6, #2
 80020e2:	2300      	movs	r3, #0
 80020e4:	e9cd 0102 	strd	r0, r1, [sp, #8]
 80020e8:	4d64      	ldr	r5, [pc, #400]	@ (800227c <_dtoa_r+0x524>)
 80020ea:	1124      	asrs	r4, r4, #4
 80020ec:	2c00      	cmp	r4, #0
 80020ee:	f040 80b2 	bne.w	8002256 <_dtoa_r+0x4fe>
 80020f2:	2b00      	cmp	r3, #0
 80020f4:	d1d3      	bne.n	800209e <_dtoa_r+0x346>
 80020f6:	e9dd 4502 	ldrd	r4, r5, [sp, #8]
 80020fa:	9b0f      	ldr	r3, [sp, #60]	@ 0x3c
 80020fc:	2b00      	cmp	r3, #0
 80020fe:	f000 80b7 	beq.w	8002270 <_dtoa_r+0x518>
 8002102:	2200      	movs	r2, #0
 8002104:	4620      	mov	r0, r4
 8002106:	4629      	mov	r1, r5
 8002108:	4b5d      	ldr	r3, [pc, #372]	@ (8002280 <_dtoa_r+0x528>)
 800210a:	f7fe fc67 	bl	80009dc <__aeabi_dcmplt>
 800210e:	2800      	cmp	r0, #0
 8002110:	f000 80ae 	beq.w	8002270 <_dtoa_r+0x518>
 8002114:	9b07      	ldr	r3, [sp, #28]
 8002116:	2b00      	cmp	r3, #0
 8002118:	f000 80aa 	beq.w	8002270 <_dtoa_r+0x518>
 800211c:	9b08      	ldr	r3, [sp, #32]
 800211e:	2b00      	cmp	r3, #0
 8002120:	dd37      	ble.n	8002192 <_dtoa_r+0x43a>
 8002122:	1e7b      	subs	r3, r7, #1
 8002124:	4620      	mov	r0, r4
 8002126:	9304      	str	r3, [sp, #16]
 8002128:	2200      	movs	r2, #0
 800212a:	4629      	mov	r1, r5
 800212c:	4b55      	ldr	r3, [pc, #340]	@ (8002284 <_dtoa_r+0x52c>)
 800212e:	f7fe f9e3 	bl	80004f8 <__aeabi_dmul>
 8002132:	e9cd 0102 	strd	r0, r1, [sp, #8]
 8002136:	9c08      	ldr	r4, [sp, #32]
 8002138:	3601      	adds	r6, #1
 800213a:	4630      	mov	r0, r6
 800213c:	f7fe f972 	bl	8000424 <__aeabi_i2d>
 8002140:	e9dd 2302 	ldrd	r2, r3, [sp, #8]
 8002144:	f7fe f9d8 	bl	80004f8 <__aeabi_dmul>
 8002148:	2200      	movs	r2, #0
 800214a:	4b4f      	ldr	r3, [pc, #316]	@ (8002288 <_dtoa_r+0x530>)
 800214c:	f7fe f81e 	bl	800018c <__adddf3>
 8002150:	4605      	mov	r5, r0
 8002152:	f1a1 7650 	sub.w	r6, r1, #54525952	@ 0x3400000
 8002156:	2c00      	cmp	r4, #0
 8002158:	f040 809a 	bne.w	8002290 <_dtoa_r+0x538>
 800215c:	e9dd 0102 	ldrd	r0, r1, [sp, #8]
 8002160:	2200      	movs	r2, #0
 8002162:	4b4a      	ldr	r3, [pc, #296]	@ (800228c <_dtoa_r+0x534>)
 8002164:	f7fe f810 	bl	8000188 <__aeabi_dsub>
 8002168:	4602      	mov	r2, r0
 800216a:	460b      	mov	r3, r1
 800216c:	e9cd 2302 	strd	r2, r3, [sp, #8]
 8002170:	462a      	mov	r2, r5
 8002172:	4633      	mov	r3, r6
 8002174:	f7fe fc50 	bl	8000a18 <__aeabi_dcmpgt>
 8002178:	2800      	cmp	r0, #0
 800217a:	f040 828e 	bne.w	800269a <_dtoa_r+0x942>
 800217e:	e9dd 0102 	ldrd	r0, r1, [sp, #8]
 8002182:	462a      	mov	r2, r5
 8002184:	f106 4300 	add.w	r3, r6, #2147483648	@ 0x80000000
 8002188:	f7fe fc28 	bl	80009dc <__aeabi_dcmplt>
 800218c:	2800      	cmp	r0, #0
 800218e:	f040 8127 	bne.w	80023e0 <_dtoa_r+0x688>
 8002192:	e9dd 340c 	ldrd	r3, r4, [sp, #48]	@ 0x30
 8002196:	e9cd 3402 	strd	r3, r4, [sp, #8]
 800219a:	9b15      	ldr	r3, [sp, #84]	@ 0x54
 800219c:	2b00      	cmp	r3, #0
 800219e:	f2c0 8163 	blt.w	8002468 <_dtoa_r+0x710>
 80021a2:	2f0e      	cmp	r7, #14
 80021a4:	f300 8160 	bgt.w	8002468 <_dtoa_r+0x710>
 80021a8:	4b33      	ldr	r3, [pc, #204]	@ (8002278 <_dtoa_r+0x520>)
 80021aa:	eb03 03c7 	add.w	r3, r3, r7, lsl #3
 80021ae:	e9d3 3400 	ldrd	r3, r4, [r3]
 80021b2:	e9cd 3404 	strd	r3, r4, [sp, #16]
 80021b6:	9b21      	ldr	r3, [sp, #132]	@ 0x84
 80021b8:	2b00      	cmp	r3, #0
 80021ba:	da03      	bge.n	80021c4 <_dtoa_r+0x46c>
 80021bc:	9b07      	ldr	r3, [sp, #28]
 80021be:	2b00      	cmp	r3, #0
 80021c0:	f340 8100 	ble.w	80023c4 <_dtoa_r+0x66c>
 80021c4:	e9dd 4502 	ldrd	r4, r5, [sp, #8]
 80021c8:	4656      	mov	r6, sl
 80021ca:	e9dd 2304 	ldrd	r2, r3, [sp, #16]
 80021ce:	4620      	mov	r0, r4
 80021d0:	4629      	mov	r1, r5
 80021d2:	f7fe fabb 	bl	800074c <__aeabi_ddiv>
 80021d6:	f7fe fc3f 	bl	8000a58 <__aeabi_d2iz>
 80021da:	4680      	mov	r8, r0
 80021dc:	f7fe f922 	bl	8000424 <__aeabi_i2d>
 80021e0:	e9dd 2304 	ldrd	r2, r3, [sp, #16]
 80021e4:	f7fe f988 	bl	80004f8 <__aeabi_dmul>
 80021e8:	4602      	mov	r2, r0
 80021ea:	460b      	mov	r3, r1
 80021ec:	4620      	mov	r0, r4
 80021ee:	4629      	mov	r1, r5
 80021f0:	f7fd ffca 	bl	8000188 <__aeabi_dsub>
 80021f4:	f108 0430 	add.w	r4, r8, #48	@ 0x30
 80021f8:	9d07      	ldr	r5, [sp, #28]
 80021fa:	f806 4b01 	strb.w	r4, [r6], #1
 80021fe:	eba6 040a 	sub.w	r4, r6, sl
 8002202:	42a5      	cmp	r5, r4
 8002204:	4602      	mov	r2, r0
 8002206:	460b      	mov	r3, r1
 8002208:	f040 8116 	bne.w	8002438 <_dtoa_r+0x6e0>
 800220c:	f7fd ffbe 	bl	800018c <__adddf3>
 8002210:	e9dd 2304 	ldrd	r2, r3, [sp, #16]
 8002214:	4604      	mov	r4, r0
 8002216:	460d      	mov	r5, r1
 8002218:	f7fe fbfe 	bl	8000a18 <__aeabi_dcmpgt>
 800221c:	2800      	cmp	r0, #0
 800221e:	f040 80f8 	bne.w	8002412 <_dtoa_r+0x6ba>
 8002222:	e9dd 2304 	ldrd	r2, r3, [sp, #16]
 8002226:	4620      	mov	r0, r4
 8002228:	4629      	mov	r1, r5
 800222a:	f7fe fbcd 	bl	80009c8 <__aeabi_dcmpeq>
 800222e:	b118      	cbz	r0, 8002238 <_dtoa_r+0x4e0>
 8002230:	f018 0f01 	tst.w	r8, #1
 8002234:	f040 80ed 	bne.w	8002412 <_dtoa_r+0x6ba>
 8002238:	4649      	mov	r1, r9
 800223a:	4658      	mov	r0, fp
 800223c:	f000 fc92 	bl	8002b64 <_Bfree>
 8002240:	2300      	movs	r3, #0
 8002242:	7033      	strb	r3, [r6, #0]
 8002244:	9b22      	ldr	r3, [sp, #136]	@ 0x88
 8002246:	3701      	adds	r7, #1
 8002248:	601f      	str	r7, [r3, #0]
 800224a:	9b24      	ldr	r3, [sp, #144]	@ 0x90
 800224c:	2b00      	cmp	r3, #0
 800224e:	f000 8320 	beq.w	8002892 <_dtoa_r+0xb3a>
 8002252:	601e      	str	r6, [r3, #0]
 8002254:	e31d      	b.n	8002892 <_dtoa_r+0xb3a>
 8002256:	07e2      	lsls	r2, r4, #31
 8002258:	d505      	bpl.n	8002266 <_dtoa_r+0x50e>
 800225a:	e9d5 2300 	ldrd	r2, r3, [r5]
 800225e:	f7fe f94b 	bl	80004f8 <__aeabi_dmul>
 8002262:	2301      	movs	r3, #1
 8002264:	3601      	adds	r6, #1
 8002266:	1064      	asrs	r4, r4, #1
 8002268:	3508      	adds	r5, #8
 800226a:	e73f      	b.n	80020ec <_dtoa_r+0x394>
 800226c:	2602      	movs	r6, #2
 800226e:	e742      	b.n	80020f6 <_dtoa_r+0x39e>
 8002270:	9c07      	ldr	r4, [sp, #28]
 8002272:	9704      	str	r7, [sp, #16]
 8002274:	e761      	b.n	800213a <_dtoa_r+0x3e2>
 8002276:	bf00      	nop
 8002278:	08003ae8 	.word	0x08003ae8
 800227c:	08003ac0 	.word	0x08003ac0
 8002280:	3ff00000 	.word	0x3ff00000
 8002284:	40240000 	.word	0x40240000
 8002288:	401c0000 	.word	0x401c0000
 800228c:	40140000 	.word	0x40140000
 8002290:	4b70      	ldr	r3, [pc, #448]	@ (8002454 <_dtoa_r+0x6fc>)
 8002292:	990b      	ldr	r1, [sp, #44]	@ 0x2c
 8002294:	eb03 03c4 	add.w	r3, r3, r4, lsl #3
 8002298:	e953 2302 	ldrd	r2, r3, [r3, #-8]
 800229c:	4454      	add	r4, sl
 800229e:	2900      	cmp	r1, #0
 80022a0:	d045      	beq.n	800232e <_dtoa_r+0x5d6>
 80022a2:	2000      	movs	r0, #0
 80022a4:	496c      	ldr	r1, [pc, #432]	@ (8002458 <_dtoa_r+0x700>)
 80022a6:	f7fe fa51 	bl	800074c <__aeabi_ddiv>
 80022aa:	4633      	mov	r3, r6
 80022ac:	462a      	mov	r2, r5
 80022ae:	f7fd ff6b 	bl	8000188 <__aeabi_dsub>
 80022b2:	4656      	mov	r6, sl
 80022b4:	e9cd 0110 	strd	r0, r1, [sp, #64]	@ 0x40
 80022b8:	e9dd 0102 	ldrd	r0, r1, [sp, #8]
 80022bc:	f7fe fbcc 	bl	8000a58 <__aeabi_d2iz>
 80022c0:	4605      	mov	r5, r0
 80022c2:	f7fe f8af 	bl	8000424 <__aeabi_i2d>
 80022c6:	4602      	mov	r2, r0
 80022c8:	460b      	mov	r3, r1
 80022ca:	e9dd 0102 	ldrd	r0, r1, [sp, #8]
 80022ce:	f7fd ff5b 	bl	8000188 <__aeabi_dsub>
 80022d2:	4602      	mov	r2, r0
 80022d4:	460b      	mov	r3, r1
 80022d6:	3530      	adds	r5, #48	@ 0x30
 80022d8:	e9cd 2302 	strd	r2, r3, [sp, #8]
 80022dc:	e9dd 2310 	ldrd	r2, r3, [sp, #64]	@ 0x40
 80022e0:	f806 5b01 	strb.w	r5, [r6], #1
 80022e4:	f7fe fb7a 	bl	80009dc <__aeabi_dcmplt>
 80022e8:	2800      	cmp	r0, #0
 80022ea:	d163      	bne.n	80023b4 <_dtoa_r+0x65c>
 80022ec:	e9dd 2302 	ldrd	r2, r3, [sp, #8]
 80022f0:	2000      	movs	r0, #0
 80022f2:	495a      	ldr	r1, [pc, #360]	@ (800245c <_dtoa_r+0x704>)
 80022f4:	f7fd ff48 	bl	8000188 <__aeabi_dsub>
 80022f8:	e9dd 2310 	ldrd	r2, r3, [sp, #64]	@ 0x40
 80022fc:	f7fe fb6e 	bl	80009dc <__aeabi_dcmplt>
 8002300:	2800      	cmp	r0, #0
 8002302:	f040 8087 	bne.w	8002414 <_dtoa_r+0x6bc>
 8002306:	42a6      	cmp	r6, r4
 8002308:	f43f af43 	beq.w	8002192 <_dtoa_r+0x43a>
 800230c:	e9dd 0110 	ldrd	r0, r1, [sp, #64]	@ 0x40
 8002310:	2200      	movs	r2, #0
 8002312:	4b53      	ldr	r3, [pc, #332]	@ (8002460 <_dtoa_r+0x708>)
 8002314:	f7fe f8f0 	bl	80004f8 <__aeabi_dmul>
 8002318:	2200      	movs	r2, #0
 800231a:	e9cd 0110 	strd	r0, r1, [sp, #64]	@ 0x40
 800231e:	e9dd 0102 	ldrd	r0, r1, [sp, #8]
 8002322:	4b4f      	ldr	r3, [pc, #316]	@ (8002460 <_dtoa_r+0x708>)
 8002324:	f7fe f8e8 	bl	80004f8 <__aeabi_dmul>
 8002328:	e9cd 0102 	strd	r0, r1, [sp, #8]
 800232c:	e7c4      	b.n	80022b8 <_dtoa_r+0x560>
 800232e:	4631      	mov	r1, r6
 8002330:	4628      	mov	r0, r5
 8002332:	f7fe f8e1 	bl	80004f8 <__aeabi_dmul>
 8002336:	4656      	mov	r6, sl
 8002338:	e9cd 0110 	strd	r0, r1, [sp, #64]	@ 0x40
 800233c:	9413      	str	r4, [sp, #76]	@ 0x4c
 800233e:	e9dd 0102 	ldrd	r0, r1, [sp, #8]
 8002342:	f7fe fb89 	bl	8000a58 <__aeabi_d2iz>
 8002346:	4605      	mov	r5, r0
 8002348:	f7fe f86c 	bl	8000424 <__aeabi_i2d>
 800234c:	4602      	mov	r2, r0
 800234e:	460b      	mov	r3, r1
 8002350:	e9dd 0102 	ldrd	r0, r1, [sp, #8]
 8002354:	f7fd ff18 	bl	8000188 <__aeabi_dsub>
 8002358:	4602      	mov	r2, r0
 800235a:	460b      	mov	r3, r1
 800235c:	3530      	adds	r5, #48	@ 0x30
 800235e:	f806 5b01 	strb.w	r5, [r6], #1
 8002362:	42a6      	cmp	r6, r4
 8002364:	e9cd 2302 	strd	r2, r3, [sp, #8]
 8002368:	f04f 0200 	mov.w	r2, #0
 800236c:	d124      	bne.n	80023b8 <_dtoa_r+0x660>
 800236e:	e9dd 0110 	ldrd	r0, r1, [sp, #64]	@ 0x40
 8002372:	4b39      	ldr	r3, [pc, #228]	@ (8002458 <_dtoa_r+0x700>)
 8002374:	f7fd ff0a 	bl	800018c <__adddf3>
 8002378:	4602      	mov	r2, r0
 800237a:	460b      	mov	r3, r1
 800237c:	e9dd 0102 	ldrd	r0, r1, [sp, #8]
 8002380:	f7fe fb4a 	bl	8000a18 <__aeabi_dcmpgt>
 8002384:	2800      	cmp	r0, #0
 8002386:	d145      	bne.n	8002414 <_dtoa_r+0x6bc>
 8002388:	e9dd 2310 	ldrd	r2, r3, [sp, #64]	@ 0x40
 800238c:	2000      	movs	r0, #0
 800238e:	4932      	ldr	r1, [pc, #200]	@ (8002458 <_dtoa_r+0x700>)
 8002390:	f7fd fefa 	bl	8000188 <__aeabi_dsub>
 8002394:	4602      	mov	r2, r0
 8002396:	460b      	mov	r3, r1
 8002398:	e9dd 0102 	ldrd	r0, r1, [sp, #8]
 800239c:	f7fe fb1e 	bl	80009dc <__aeabi_dcmplt>
 80023a0:	2800      	cmp	r0, #0
 80023a2:	f43f aef6 	beq.w	8002192 <_dtoa_r+0x43a>
 80023a6:	9e13      	ldr	r6, [sp, #76]	@ 0x4c
 80023a8:	1e73      	subs	r3, r6, #1
 80023aa:	9313      	str	r3, [sp, #76]	@ 0x4c
 80023ac:	f816 3c01 	ldrb.w	r3, [r6, #-1]
 80023b0:	2b30      	cmp	r3, #48	@ 0x30
 80023b2:	d0f8      	beq.n	80023a6 <_dtoa_r+0x64e>
 80023b4:	9f04      	ldr	r7, [sp, #16]
 80023b6:	e73f      	b.n	8002238 <_dtoa_r+0x4e0>
 80023b8:	4b29      	ldr	r3, [pc, #164]	@ (8002460 <_dtoa_r+0x708>)
 80023ba:	f7fe f89d 	bl	80004f8 <__aeabi_dmul>
 80023be:	e9cd 0102 	strd	r0, r1, [sp, #8]
 80023c2:	e7bc      	b.n	800233e <_dtoa_r+0x5e6>
 80023c4:	d10c      	bne.n	80023e0 <_dtoa_r+0x688>
 80023c6:	e9dd 0104 	ldrd	r0, r1, [sp, #16]
 80023ca:	2200      	movs	r2, #0
 80023cc:	4b25      	ldr	r3, [pc, #148]	@ (8002464 <_dtoa_r+0x70c>)
 80023ce:	f7fe f893 	bl	80004f8 <__aeabi_dmul>
 80023d2:	e9dd 2302 	ldrd	r2, r3, [sp, #8]
 80023d6:	f7fe fb15 	bl	8000a04 <__aeabi_dcmpge>
 80023da:	2800      	cmp	r0, #0
 80023dc:	f000 815b 	beq.w	8002696 <_dtoa_r+0x93e>
 80023e0:	2400      	movs	r4, #0
 80023e2:	4625      	mov	r5, r4
 80023e4:	9b21      	ldr	r3, [sp, #132]	@ 0x84
 80023e6:	4656      	mov	r6, sl
 80023e8:	43db      	mvns	r3, r3
 80023ea:	9304      	str	r3, [sp, #16]
 80023ec:	2700      	movs	r7, #0
 80023ee:	4621      	mov	r1, r4
 80023f0:	4658      	mov	r0, fp
 80023f2:	f000 fbb7 	bl	8002b64 <_Bfree>
 80023f6:	2d00      	cmp	r5, #0
 80023f8:	d0dc      	beq.n	80023b4 <_dtoa_r+0x65c>
 80023fa:	b12f      	cbz	r7, 8002408 <_dtoa_r+0x6b0>
 80023fc:	42af      	cmp	r7, r5
 80023fe:	d003      	beq.n	8002408 <_dtoa_r+0x6b0>
 8002400:	4639      	mov	r1, r7
 8002402:	4658      	mov	r0, fp
 8002404:	f000 fbae 	bl	8002b64 <_Bfree>
 8002408:	4629      	mov	r1, r5
 800240a:	4658      	mov	r0, fp
 800240c:	f000 fbaa 	bl	8002b64 <_Bfree>
 8002410:	e7d0      	b.n	80023b4 <_dtoa_r+0x65c>
 8002412:	9704      	str	r7, [sp, #16]
 8002414:	4633      	mov	r3, r6
 8002416:	461e      	mov	r6, r3
 8002418:	f813 2d01 	ldrb.w	r2, [r3, #-1]!
 800241c:	2a39      	cmp	r2, #57	@ 0x39
 800241e:	d107      	bne.n	8002430 <_dtoa_r+0x6d8>
 8002420:	459a      	cmp	sl, r3
 8002422:	d1f8      	bne.n	8002416 <_dtoa_r+0x6be>
 8002424:	9a04      	ldr	r2, [sp, #16]
 8002426:	3201      	adds	r2, #1
 8002428:	9204      	str	r2, [sp, #16]
 800242a:	2230      	movs	r2, #48	@ 0x30
 800242c:	f88a 2000 	strb.w	r2, [sl]
 8002430:	781a      	ldrb	r2, [r3, #0]
 8002432:	3201      	adds	r2, #1
 8002434:	701a      	strb	r2, [r3, #0]
 8002436:	e7bd      	b.n	80023b4 <_dtoa_r+0x65c>
 8002438:	2200      	movs	r2, #0
 800243a:	4b09      	ldr	r3, [pc, #36]	@ (8002460 <_dtoa_r+0x708>)
 800243c:	f7fe f85c 	bl	80004f8 <__aeabi_dmul>
 8002440:	2200      	movs	r2, #0
 8002442:	2300      	movs	r3, #0
 8002444:	4604      	mov	r4, r0
 8002446:	460d      	mov	r5, r1
 8002448:	f7fe fabe 	bl	80009c8 <__aeabi_dcmpeq>
 800244c:	2800      	cmp	r0, #0
 800244e:	f43f aebc 	beq.w	80021ca <_dtoa_r+0x472>
 8002452:	e6f1      	b.n	8002238 <_dtoa_r+0x4e0>
 8002454:	08003ae8 	.word	0x08003ae8
 8002458:	3fe00000 	.word	0x3fe00000
 800245c:	3ff00000 	.word	0x3ff00000
 8002460:	40240000 	.word	0x40240000
 8002464:	40140000 	.word	0x40140000
 8002468:	9a0b      	ldr	r2, [sp, #44]	@ 0x2c
 800246a:	2a00      	cmp	r2, #0
 800246c:	f000 80db 	beq.w	8002626 <_dtoa_r+0x8ce>
 8002470:	9a20      	ldr	r2, [sp, #128]	@ 0x80
 8002472:	2a01      	cmp	r2, #1
 8002474:	f300 80bf 	bgt.w	80025f6 <_dtoa_r+0x89e>
 8002478:	9a12      	ldr	r2, [sp, #72]	@ 0x48
 800247a:	2a00      	cmp	r2, #0
 800247c:	f000 80b7 	beq.w	80025ee <_dtoa_r+0x896>
 8002480:	f203 4333 	addw	r3, r3, #1075	@ 0x433
 8002484:	4646      	mov	r6, r8
 8002486:	9c0a      	ldr	r4, [sp, #40]	@ 0x28
 8002488:	9a09      	ldr	r2, [sp, #36]	@ 0x24
 800248a:	2101      	movs	r1, #1
 800248c:	441a      	add	r2, r3
 800248e:	4658      	mov	r0, fp
 8002490:	4498      	add	r8, r3
 8002492:	9209      	str	r2, [sp, #36]	@ 0x24
 8002494:	f000 fc1a 	bl	8002ccc <__i2b>
 8002498:	4605      	mov	r5, r0
 800249a:	b15e      	cbz	r6, 80024b4 <_dtoa_r+0x75c>
 800249c:	9b09      	ldr	r3, [sp, #36]	@ 0x24
 800249e:	2b00      	cmp	r3, #0
 80024a0:	dd08      	ble.n	80024b4 <_dtoa_r+0x75c>
 80024a2:	42b3      	cmp	r3, r6
 80024a4:	bfa8      	it	ge
 80024a6:	4633      	movge	r3, r6
 80024a8:	9a09      	ldr	r2, [sp, #36]	@ 0x24
 80024aa:	eba8 0803 	sub.w	r8, r8, r3
 80024ae:	1af6      	subs	r6, r6, r3
 80024b0:	1ad3      	subs	r3, r2, r3
 80024b2:	9309      	str	r3, [sp, #36]	@ 0x24
 80024b4:	9b0a      	ldr	r3, [sp, #40]	@ 0x28
 80024b6:	b1f3      	cbz	r3, 80024f6 <_dtoa_r+0x79e>
 80024b8:	9b0b      	ldr	r3, [sp, #44]	@ 0x2c
 80024ba:	2b00      	cmp	r3, #0
 80024bc:	f000 80b7 	beq.w	800262e <_dtoa_r+0x8d6>
 80024c0:	b18c      	cbz	r4, 80024e6 <_dtoa_r+0x78e>
 80024c2:	4629      	mov	r1, r5
 80024c4:	4622      	mov	r2, r4
 80024c6:	4658      	mov	r0, fp
 80024c8:	f000 fcbe 	bl	8002e48 <__pow5mult>
 80024cc:	464a      	mov	r2, r9
 80024ce:	4601      	mov	r1, r0
 80024d0:	4605      	mov	r5, r0
 80024d2:	4658      	mov	r0, fp
 80024d4:	f000 fc10 	bl	8002cf8 <__multiply>
 80024d8:	4649      	mov	r1, r9
 80024da:	9004      	str	r0, [sp, #16]
 80024dc:	4658      	mov	r0, fp
 80024de:	f000 fb41 	bl	8002b64 <_Bfree>
 80024e2:	9b04      	ldr	r3, [sp, #16]
 80024e4:	4699      	mov	r9, r3
 80024e6:	9b0a      	ldr	r3, [sp, #40]	@ 0x28
 80024e8:	1b1a      	subs	r2, r3, r4
 80024ea:	d004      	beq.n	80024f6 <_dtoa_r+0x79e>
 80024ec:	4649      	mov	r1, r9
 80024ee:	4658      	mov	r0, fp
 80024f0:	f000 fcaa 	bl	8002e48 <__pow5mult>
 80024f4:	4681      	mov	r9, r0
 80024f6:	2101      	movs	r1, #1
 80024f8:	4658      	mov	r0, fp
 80024fa:	f000 fbe7 	bl	8002ccc <__i2b>
 80024fe:	9b0e      	ldr	r3, [sp, #56]	@ 0x38
 8002500:	4604      	mov	r4, r0
 8002502:	2b00      	cmp	r3, #0
 8002504:	f000 81c9 	beq.w	800289a <_dtoa_r+0xb42>
 8002508:	461a      	mov	r2, r3
 800250a:	4601      	mov	r1, r0
 800250c:	4658      	mov	r0, fp
 800250e:	f000 fc9b 	bl	8002e48 <__pow5mult>
 8002512:	9b20      	ldr	r3, [sp, #128]	@ 0x80
 8002514:	4604      	mov	r4, r0
 8002516:	2b01      	cmp	r3, #1
 8002518:	f300 808f 	bgt.w	800263a <_dtoa_r+0x8e2>
 800251c:	9b02      	ldr	r3, [sp, #8]
 800251e:	2b00      	cmp	r3, #0
 8002520:	f040 8087 	bne.w	8002632 <_dtoa_r+0x8da>
 8002524:	9b03      	ldr	r3, [sp, #12]
 8002526:	f3c3 0313 	ubfx	r3, r3, #0, #20
 800252a:	2b00      	cmp	r3, #0
 800252c:	f040 8083 	bne.w	8002636 <_dtoa_r+0x8de>
 8002530:	9b03      	ldr	r3, [sp, #12]
 8002532:	f023 4300 	bic.w	r3, r3, #2147483648	@ 0x80000000
 8002536:	0d1b      	lsrs	r3, r3, #20
 8002538:	051b      	lsls	r3, r3, #20
 800253a:	b12b      	cbz	r3, 8002548 <_dtoa_r+0x7f0>
 800253c:	9b09      	ldr	r3, [sp, #36]	@ 0x24
 800253e:	f108 0801 	add.w	r8, r8, #1
 8002542:	3301      	adds	r3, #1
 8002544:	9309      	str	r3, [sp, #36]	@ 0x24
 8002546:	2301      	movs	r3, #1
 8002548:	930a      	str	r3, [sp, #40]	@ 0x28
 800254a:	9b0e      	ldr	r3, [sp, #56]	@ 0x38
 800254c:	2b00      	cmp	r3, #0
 800254e:	f000 81aa 	beq.w	80028a6 <_dtoa_r+0xb4e>
 8002552:	6923      	ldr	r3, [r4, #16]
 8002554:	eb04 0383 	add.w	r3, r4, r3, lsl #2
 8002558:	6918      	ldr	r0, [r3, #16]
 800255a:	f000 fb6b 	bl	8002c34 <__hi0bits>
 800255e:	f1c0 0020 	rsb	r0, r0, #32
 8002562:	9b09      	ldr	r3, [sp, #36]	@ 0x24
 8002564:	4418      	add	r0, r3
 8002566:	f010 001f 	ands.w	r0, r0, #31
 800256a:	d071      	beq.n	8002650 <_dtoa_r+0x8f8>
 800256c:	f1c0 0320 	rsb	r3, r0, #32
 8002570:	2b04      	cmp	r3, #4
 8002572:	dd65      	ble.n	8002640 <_dtoa_r+0x8e8>
 8002574:	9b09      	ldr	r3, [sp, #36]	@ 0x24
 8002576:	f1c0 001c 	rsb	r0, r0, #28
 800257a:	4403      	add	r3, r0
 800257c:	4480      	add	r8, r0
 800257e:	4406      	add	r6, r0
 8002580:	9309      	str	r3, [sp, #36]	@ 0x24
 8002582:	f1b8 0f00 	cmp.w	r8, #0
 8002586:	dd05      	ble.n	8002594 <_dtoa_r+0x83c>
 8002588:	4649      	mov	r1, r9
 800258a:	4642      	mov	r2, r8
 800258c:	4658      	mov	r0, fp
 800258e:	f000 fcb5 	bl	8002efc <__lshift>
 8002592:	4681      	mov	r9, r0
 8002594:	9b09      	ldr	r3, [sp, #36]	@ 0x24
 8002596:	2b00      	cmp	r3, #0
 8002598:	dd05      	ble.n	80025a6 <_dtoa_r+0x84e>
 800259a:	4621      	mov	r1, r4
 800259c:	461a      	mov	r2, r3
 800259e:	4658      	mov	r0, fp
 80025a0:	f000 fcac 	bl	8002efc <__lshift>
 80025a4:	4604      	mov	r4, r0
 80025a6:	9b0f      	ldr	r3, [sp, #60]	@ 0x3c
 80025a8:	2b00      	cmp	r3, #0
 80025aa:	d053      	beq.n	8002654 <_dtoa_r+0x8fc>
 80025ac:	4621      	mov	r1, r4
 80025ae:	4648      	mov	r0, r9
 80025b0:	f000 fd10 	bl	8002fd4 <__mcmp>
 80025b4:	2800      	cmp	r0, #0
 80025b6:	da4d      	bge.n	8002654 <_dtoa_r+0x8fc>
 80025b8:	1e7b      	subs	r3, r7, #1
 80025ba:	4649      	mov	r1, r9
 80025bc:	9304      	str	r3, [sp, #16]
 80025be:	220a      	movs	r2, #10
 80025c0:	2300      	movs	r3, #0
 80025c2:	4658      	mov	r0, fp
 80025c4:	f000 faf0 	bl	8002ba8 <__multadd>
 80025c8:	9b0b      	ldr	r3, [sp, #44]	@ 0x2c
 80025ca:	4681      	mov	r9, r0
 80025cc:	2b00      	cmp	r3, #0
 80025ce:	f000 816c 	beq.w	80028aa <_dtoa_r+0xb52>
 80025d2:	2300      	movs	r3, #0
 80025d4:	4629      	mov	r1, r5
 80025d6:	220a      	movs	r2, #10
 80025d8:	4658      	mov	r0, fp
 80025da:	f000 fae5 	bl	8002ba8 <__multadd>
 80025de:	9b08      	ldr	r3, [sp, #32]
 80025e0:	4605      	mov	r5, r0
 80025e2:	2b00      	cmp	r3, #0
 80025e4:	dc61      	bgt.n	80026aa <_dtoa_r+0x952>
 80025e6:	9b20      	ldr	r3, [sp, #128]	@ 0x80
 80025e8:	2b02      	cmp	r3, #2
 80025ea:	dc3b      	bgt.n	8002664 <_dtoa_r+0x90c>
 80025ec:	e05d      	b.n	80026aa <_dtoa_r+0x952>
 80025ee:	9b14      	ldr	r3, [sp, #80]	@ 0x50
 80025f0:	f1c3 0336 	rsb	r3, r3, #54	@ 0x36
 80025f4:	e746      	b.n	8002484 <_dtoa_r+0x72c>
 80025f6:	9b07      	ldr	r3, [sp, #28]
 80025f8:	1e5c      	subs	r4, r3, #1
 80025fa:	9b0a      	ldr	r3, [sp, #40]	@ 0x28
 80025fc:	42a3      	cmp	r3, r4
 80025fe:	bfbf      	itttt	lt
 8002600:	9b0a      	ldrlt	r3, [sp, #40]	@ 0x28
 8002602:	9a0e      	ldrlt	r2, [sp, #56]	@ 0x38
 8002604:	1ae3      	sublt	r3, r4, r3
 8002606:	18d2      	addlt	r2, r2, r3
 8002608:	bfa8      	it	ge
 800260a:	1b1c      	subge	r4, r3, r4
 800260c:	9b07      	ldr	r3, [sp, #28]
 800260e:	bfbe      	ittt	lt
 8002610:	940a      	strlt	r4, [sp, #40]	@ 0x28
 8002612:	920e      	strlt	r2, [sp, #56]	@ 0x38
 8002614:	2400      	movlt	r4, #0
 8002616:	2b00      	cmp	r3, #0
 8002618:	bfb5      	itete	lt
 800261a:	eba8 0603 	sublt.w	r6, r8, r3
 800261e:	4646      	movge	r6, r8
 8002620:	2300      	movlt	r3, #0
 8002622:	9b07      	ldrge	r3, [sp, #28]
 8002624:	e730      	b.n	8002488 <_dtoa_r+0x730>
 8002626:	4646      	mov	r6, r8
 8002628:	9c0a      	ldr	r4, [sp, #40]	@ 0x28
 800262a:	9d0b      	ldr	r5, [sp, #44]	@ 0x2c
 800262c:	e735      	b.n	800249a <_dtoa_r+0x742>
 800262e:	9a0a      	ldr	r2, [sp, #40]	@ 0x28
 8002630:	e75c      	b.n	80024ec <_dtoa_r+0x794>
 8002632:	2300      	movs	r3, #0
 8002634:	e788      	b.n	8002548 <_dtoa_r+0x7f0>
 8002636:	9b02      	ldr	r3, [sp, #8]
 8002638:	e786      	b.n	8002548 <_dtoa_r+0x7f0>
 800263a:	2300      	movs	r3, #0
 800263c:	930a      	str	r3, [sp, #40]	@ 0x28
 800263e:	e788      	b.n	8002552 <_dtoa_r+0x7fa>
 8002640:	d09f      	beq.n	8002582 <_dtoa_r+0x82a>
 8002642:	9a09      	ldr	r2, [sp, #36]	@ 0x24
 8002644:	331c      	adds	r3, #28
 8002646:	441a      	add	r2, r3
 8002648:	4498      	add	r8, r3
 800264a:	441e      	add	r6, r3
 800264c:	9209      	str	r2, [sp, #36]	@ 0x24
 800264e:	e798      	b.n	8002582 <_dtoa_r+0x82a>
 8002650:	4603      	mov	r3, r0
 8002652:	e7f6      	b.n	8002642 <_dtoa_r+0x8ea>
 8002654:	9b07      	ldr	r3, [sp, #28]
 8002656:	9704      	str	r7, [sp, #16]
 8002658:	2b00      	cmp	r3, #0
 800265a:	dc20      	bgt.n	800269e <_dtoa_r+0x946>
 800265c:	9308      	str	r3, [sp, #32]
 800265e:	9b20      	ldr	r3, [sp, #128]	@ 0x80
 8002660:	2b02      	cmp	r3, #2
 8002662:	dd1e      	ble.n	80026a2 <_dtoa_r+0x94a>
 8002664:	9b08      	ldr	r3, [sp, #32]
 8002666:	2b00      	cmp	r3, #0
 8002668:	f47f aebc 	bne.w	80023e4 <_dtoa_r+0x68c>
 800266c:	4621      	mov	r1, r4
 800266e:	2205      	movs	r2, #5
 8002670:	4658      	mov	r0, fp
 8002672:	f000 fa99 	bl	8002ba8 <__multadd>
 8002676:	4601      	mov	r1, r0
 8002678:	4604      	mov	r4, r0
 800267a:	4648      	mov	r0, r9
 800267c:	f000 fcaa 	bl	8002fd4 <__mcmp>
 8002680:	2800      	cmp	r0, #0
 8002682:	f77f aeaf 	ble.w	80023e4 <_dtoa_r+0x68c>
 8002686:	2331      	movs	r3, #49	@ 0x31
 8002688:	4656      	mov	r6, sl
 800268a:	f806 3b01 	strb.w	r3, [r6], #1
 800268e:	9b04      	ldr	r3, [sp, #16]
 8002690:	3301      	adds	r3, #1
 8002692:	9304      	str	r3, [sp, #16]
 8002694:	e6aa      	b.n	80023ec <_dtoa_r+0x694>
 8002696:	9c07      	ldr	r4, [sp, #28]
 8002698:	9704      	str	r7, [sp, #16]
 800269a:	4625      	mov	r5, r4
 800269c:	e7f3      	b.n	8002686 <_dtoa_r+0x92e>
 800269e:	9b07      	ldr	r3, [sp, #28]
 80026a0:	9308      	str	r3, [sp, #32]
 80026a2:	9b0b      	ldr	r3, [sp, #44]	@ 0x2c
 80026a4:	2b00      	cmp	r3, #0
 80026a6:	f000 8104 	beq.w	80028b2 <_dtoa_r+0xb5a>
 80026aa:	2e00      	cmp	r6, #0
 80026ac:	dd05      	ble.n	80026ba <_dtoa_r+0x962>
 80026ae:	4629      	mov	r1, r5
 80026b0:	4632      	mov	r2, r6
 80026b2:	4658      	mov	r0, fp
 80026b4:	f000 fc22 	bl	8002efc <__lshift>
 80026b8:	4605      	mov	r5, r0
 80026ba:	9b0a      	ldr	r3, [sp, #40]	@ 0x28
 80026bc:	2b00      	cmp	r3, #0
 80026be:	d05a      	beq.n	8002776 <_dtoa_r+0xa1e>
 80026c0:	4658      	mov	r0, fp
 80026c2:	6869      	ldr	r1, [r5, #4]
 80026c4:	f000 fa0e 	bl	8002ae4 <_Balloc>
 80026c8:	4606      	mov	r6, r0
 80026ca:	b928      	cbnz	r0, 80026d8 <_dtoa_r+0x980>
 80026cc:	4602      	mov	r2, r0
 80026ce:	f240 21ef 	movw	r1, #751	@ 0x2ef
 80026d2:	4b83      	ldr	r3, [pc, #524]	@ (80028e0 <_dtoa_r+0xb88>)
 80026d4:	f7ff bb54 	b.w	8001d80 <_dtoa_r+0x28>
 80026d8:	692a      	ldr	r2, [r5, #16]
 80026da:	f105 010c 	add.w	r1, r5, #12
 80026de:	3202      	adds	r2, #2
 80026e0:	0092      	lsls	r2, r2, #2
 80026e2:	300c      	adds	r0, #12
 80026e4:	f000 fe36 	bl	8003354 <memcpy>
 80026e8:	2201      	movs	r2, #1
 80026ea:	4631      	mov	r1, r6
 80026ec:	4658      	mov	r0, fp
 80026ee:	f000 fc05 	bl	8002efc <__lshift>
 80026f2:	462f      	mov	r7, r5
 80026f4:	4605      	mov	r5, r0
 80026f6:	f10a 0301 	add.w	r3, sl, #1
 80026fa:	9307      	str	r3, [sp, #28]
 80026fc:	9b08      	ldr	r3, [sp, #32]
 80026fe:	4453      	add	r3, sl
 8002700:	930b      	str	r3, [sp, #44]	@ 0x2c
 8002702:	9b02      	ldr	r3, [sp, #8]
 8002704:	f003 0301 	and.w	r3, r3, #1
 8002708:	930a      	str	r3, [sp, #40]	@ 0x28
 800270a:	9b07      	ldr	r3, [sp, #28]
 800270c:	4621      	mov	r1, r4
 800270e:	3b01      	subs	r3, #1
 8002710:	4648      	mov	r0, r9
 8002712:	9302      	str	r3, [sp, #8]
 8002714:	f7ff fa97 	bl	8001c46 <quorem>
 8002718:	4639      	mov	r1, r7
 800271a:	9008      	str	r0, [sp, #32]
 800271c:	f100 0830 	add.w	r8, r0, #48	@ 0x30
 8002720:	4648      	mov	r0, r9
 8002722:	f000 fc57 	bl	8002fd4 <__mcmp>
 8002726:	462a      	mov	r2, r5
 8002728:	9009      	str	r0, [sp, #36]	@ 0x24
 800272a:	4621      	mov	r1, r4
 800272c:	4658      	mov	r0, fp
 800272e:	f000 fc6d 	bl	800300c <__mdiff>
 8002732:	68c2      	ldr	r2, [r0, #12]
 8002734:	4606      	mov	r6, r0
 8002736:	bb02      	cbnz	r2, 800277a <_dtoa_r+0xa22>
 8002738:	4601      	mov	r1, r0
 800273a:	4648      	mov	r0, r9
 800273c:	f000 fc4a 	bl	8002fd4 <__mcmp>
 8002740:	4602      	mov	r2, r0
 8002742:	4631      	mov	r1, r6
 8002744:	4658      	mov	r0, fp
 8002746:	920c      	str	r2, [sp, #48]	@ 0x30
 8002748:	f000 fa0c 	bl	8002b64 <_Bfree>
 800274c:	9b20      	ldr	r3, [sp, #128]	@ 0x80
 800274e:	9a0c      	ldr	r2, [sp, #48]	@ 0x30
 8002750:	9e07      	ldr	r6, [sp, #28]
 8002752:	ea43 0102 	orr.w	r1, r3, r2
 8002756:	9b0a      	ldr	r3, [sp, #40]	@ 0x28
 8002758:	4319      	orrs	r1, r3
 800275a:	d110      	bne.n	800277e <_dtoa_r+0xa26>
 800275c:	f1b8 0f39 	cmp.w	r8, #57	@ 0x39
 8002760:	d029      	beq.n	80027b6 <_dtoa_r+0xa5e>
 8002762:	9b09      	ldr	r3, [sp, #36]	@ 0x24
 8002764:	2b00      	cmp	r3, #0
 8002766:	dd02      	ble.n	800276e <_dtoa_r+0xa16>
 8002768:	9b08      	ldr	r3, [sp, #32]
 800276a:	f103 0831 	add.w	r8, r3, #49	@ 0x31
 800276e:	9b02      	ldr	r3, [sp, #8]
 8002770:	f883 8000 	strb.w	r8, [r3]
 8002774:	e63b      	b.n	80023ee <_dtoa_r+0x696>
 8002776:	4628      	mov	r0, r5
 8002778:	e7bb      	b.n	80026f2 <_dtoa_r+0x99a>
 800277a:	2201      	movs	r2, #1
 800277c:	e7e1      	b.n	8002742 <_dtoa_r+0x9ea>
 800277e:	9b09      	ldr	r3, [sp, #36]	@ 0x24
 8002780:	2b00      	cmp	r3, #0
 8002782:	db04      	blt.n	800278e <_dtoa_r+0xa36>
 8002784:	9920      	ldr	r1, [sp, #128]	@ 0x80
 8002786:	430b      	orrs	r3, r1
 8002788:	990a      	ldr	r1, [sp, #40]	@ 0x28
 800278a:	430b      	orrs	r3, r1
 800278c:	d120      	bne.n	80027d0 <_dtoa_r+0xa78>
 800278e:	2a00      	cmp	r2, #0
 8002790:	dded      	ble.n	800276e <_dtoa_r+0xa16>
 8002792:	4649      	mov	r1, r9
 8002794:	2201      	movs	r2, #1
 8002796:	4658      	mov	r0, fp
 8002798:	f000 fbb0 	bl	8002efc <__lshift>
 800279c:	4621      	mov	r1, r4
 800279e:	4681      	mov	r9, r0
 80027a0:	f000 fc18 	bl	8002fd4 <__mcmp>
 80027a4:	2800      	cmp	r0, #0
 80027a6:	dc03      	bgt.n	80027b0 <_dtoa_r+0xa58>
 80027a8:	d1e1      	bne.n	800276e <_dtoa_r+0xa16>
 80027aa:	f018 0f01 	tst.w	r8, #1
 80027ae:	d0de      	beq.n	800276e <_dtoa_r+0xa16>
 80027b0:	f1b8 0f39 	cmp.w	r8, #57	@ 0x39
 80027b4:	d1d8      	bne.n	8002768 <_dtoa_r+0xa10>
 80027b6:	2339      	movs	r3, #57	@ 0x39
 80027b8:	9a02      	ldr	r2, [sp, #8]
 80027ba:	7013      	strb	r3, [r2, #0]
 80027bc:	4633      	mov	r3, r6
 80027be:	461e      	mov	r6, r3
 80027c0:	f816 2c01 	ldrb.w	r2, [r6, #-1]
 80027c4:	3b01      	subs	r3, #1
 80027c6:	2a39      	cmp	r2, #57	@ 0x39
 80027c8:	d052      	beq.n	8002870 <_dtoa_r+0xb18>
 80027ca:	3201      	adds	r2, #1
 80027cc:	701a      	strb	r2, [r3, #0]
 80027ce:	e60e      	b.n	80023ee <_dtoa_r+0x696>
 80027d0:	2a00      	cmp	r2, #0
 80027d2:	dd07      	ble.n	80027e4 <_dtoa_r+0xa8c>
 80027d4:	f1b8 0f39 	cmp.w	r8, #57	@ 0x39
 80027d8:	d0ed      	beq.n	80027b6 <_dtoa_r+0xa5e>
 80027da:	9a02      	ldr	r2, [sp, #8]
 80027dc:	f108 0301 	add.w	r3, r8, #1
 80027e0:	7013      	strb	r3, [r2, #0]
 80027e2:	e604      	b.n	80023ee <_dtoa_r+0x696>
 80027e4:	9b07      	ldr	r3, [sp, #28]
 80027e6:	9a07      	ldr	r2, [sp, #28]
 80027e8:	f803 8c01 	strb.w	r8, [r3, #-1]
 80027ec:	9b0b      	ldr	r3, [sp, #44]	@ 0x2c
 80027ee:	4293      	cmp	r3, r2
 80027f0:	d028      	beq.n	8002844 <_dtoa_r+0xaec>
 80027f2:	4649      	mov	r1, r9
 80027f4:	2300      	movs	r3, #0
 80027f6:	220a      	movs	r2, #10
 80027f8:	4658      	mov	r0, fp
 80027fa:	f000 f9d5 	bl	8002ba8 <__multadd>
 80027fe:	42af      	cmp	r7, r5
 8002800:	4681      	mov	r9, r0
 8002802:	f04f 0300 	mov.w	r3, #0
 8002806:	f04f 020a 	mov.w	r2, #10
 800280a:	4639      	mov	r1, r7
 800280c:	4658      	mov	r0, fp
 800280e:	d107      	bne.n	8002820 <_dtoa_r+0xac8>
 8002810:	f000 f9ca 	bl	8002ba8 <__multadd>
 8002814:	4607      	mov	r7, r0
 8002816:	4605      	mov	r5, r0
 8002818:	9b07      	ldr	r3, [sp, #28]
 800281a:	3301      	adds	r3, #1
 800281c:	9307      	str	r3, [sp, #28]
 800281e:	e774      	b.n	800270a <_dtoa_r+0x9b2>
 8002820:	f000 f9c2 	bl	8002ba8 <__multadd>
 8002824:	4629      	mov	r1, r5
 8002826:	4607      	mov	r7, r0
 8002828:	2300      	movs	r3, #0
 800282a:	220a      	movs	r2, #10
 800282c:	4658      	mov	r0, fp
 800282e:	f000 f9bb 	bl	8002ba8 <__multadd>
 8002832:	4605      	mov	r5, r0
 8002834:	e7f0      	b.n	8002818 <_dtoa_r+0xac0>
 8002836:	9b08      	ldr	r3, [sp, #32]
 8002838:	2700      	movs	r7, #0
 800283a:	2b00      	cmp	r3, #0
 800283c:	bfcc      	ite	gt
 800283e:	461e      	movgt	r6, r3
 8002840:	2601      	movle	r6, #1
 8002842:	4456      	add	r6, sl
 8002844:	4649      	mov	r1, r9
 8002846:	2201      	movs	r2, #1
 8002848:	4658      	mov	r0, fp
 800284a:	f000 fb57 	bl	8002efc <__lshift>
 800284e:	4621      	mov	r1, r4
 8002850:	4681      	mov	r9, r0
 8002852:	f000 fbbf 	bl	8002fd4 <__mcmp>
 8002856:	2800      	cmp	r0, #0
 8002858:	dcb0      	bgt.n	80027bc <_dtoa_r+0xa64>
 800285a:	d102      	bne.n	8002862 <_dtoa_r+0xb0a>
 800285c:	f018 0f01 	tst.w	r8, #1
 8002860:	d1ac      	bne.n	80027bc <_dtoa_r+0xa64>
 8002862:	4633      	mov	r3, r6
 8002864:	461e      	mov	r6, r3
 8002866:	f813 2d01 	ldrb.w	r2, [r3, #-1]!
 800286a:	2a30      	cmp	r2, #48	@ 0x30
 800286c:	d0fa      	beq.n	8002864 <_dtoa_r+0xb0c>
 800286e:	e5be      	b.n	80023ee <_dtoa_r+0x696>
 8002870:	459a      	cmp	sl, r3
 8002872:	d1a4      	bne.n	80027be <_dtoa_r+0xa66>
 8002874:	9b04      	ldr	r3, [sp, #16]
 8002876:	3301      	adds	r3, #1
 8002878:	9304      	str	r3, [sp, #16]
 800287a:	2331      	movs	r3, #49	@ 0x31
 800287c:	f88a 3000 	strb.w	r3, [sl]
 8002880:	e5b5      	b.n	80023ee <_dtoa_r+0x696>
 8002882:	9b24      	ldr	r3, [sp, #144]	@ 0x90
 8002884:	f8df a05c 	ldr.w	sl, [pc, #92]	@ 80028e4 <_dtoa_r+0xb8c>
 8002888:	b11b      	cbz	r3, 8002892 <_dtoa_r+0xb3a>
 800288a:	f10a 0308 	add.w	r3, sl, #8
 800288e:	9a24      	ldr	r2, [sp, #144]	@ 0x90
 8002890:	6013      	str	r3, [r2, #0]
 8002892:	4650      	mov	r0, sl
 8002894:	b017      	add	sp, #92	@ 0x5c
 8002896:	e8bd 8ff0 	ldmia.w	sp!, {r4, r5, r6, r7, r8, r9, sl, fp, pc}
 800289a:	9b20      	ldr	r3, [sp, #128]	@ 0x80
 800289c:	2b01      	cmp	r3, #1
 800289e:	f77f ae3d 	ble.w	800251c <_dtoa_r+0x7c4>
 80028a2:	9b0e      	ldr	r3, [sp, #56]	@ 0x38
 80028a4:	930a      	str	r3, [sp, #40]	@ 0x28
 80028a6:	2001      	movs	r0, #1
 80028a8:	e65b      	b.n	8002562 <_dtoa_r+0x80a>
 80028aa:	9b08      	ldr	r3, [sp, #32]
 80028ac:	2b00      	cmp	r3, #0
 80028ae:	f77f aed6 	ble.w	800265e <_dtoa_r+0x906>
 80028b2:	4656      	mov	r6, sl
 80028b4:	4621      	mov	r1, r4
 80028b6:	4648      	mov	r0, r9
 80028b8:	f7ff f9c5 	bl	8001c46 <quorem>
 80028bc:	f100 0830 	add.w	r8, r0, #48	@ 0x30
 80028c0:	9b08      	ldr	r3, [sp, #32]
 80028c2:	f806 8b01 	strb.w	r8, [r6], #1
 80028c6:	eba6 020a 	sub.w	r2, r6, sl
 80028ca:	4293      	cmp	r3, r2
 80028cc:	ddb3      	ble.n	8002836 <_dtoa_r+0xade>
 80028ce:	4649      	mov	r1, r9
 80028d0:	2300      	movs	r3, #0
 80028d2:	220a      	movs	r2, #10
 80028d4:	4658      	mov	r0, fp
 80028d6:	f000 f967 	bl	8002ba8 <__multadd>
 80028da:	4681      	mov	r9, r0
 80028dc:	e7ea      	b.n	80028b4 <_dtoa_r+0xb5c>
 80028de:	bf00      	nop
 80028e0:	08003a48 	.word	0x08003a48
 80028e4:	080039cc 	.word	0x080039cc

080028e8 <_free_r>:
 80028e8:	b538      	push	{r3, r4, r5, lr}
 80028ea:	4605      	mov	r5, r0
 80028ec:	2900      	cmp	r1, #0
 80028ee:	d040      	beq.n	8002972 <_free_r+0x8a>
 80028f0:	f851 3c04 	ldr.w	r3, [r1, #-4]
 80028f4:	1f0c      	subs	r4, r1, #4
 80028f6:	2b00      	cmp	r3, #0
 80028f8:	bfb8      	it	lt
 80028fa:	18e4      	addlt	r4, r4, r3
 80028fc:	f000 f8e6 	bl	8002acc <__malloc_lock>
 8002900:	4a1c      	ldr	r2, [pc, #112]	@ (8002974 <_free_r+0x8c>)
 8002902:	6813      	ldr	r3, [r2, #0]
 8002904:	b933      	cbnz	r3, 8002914 <_free_r+0x2c>
 8002906:	6063      	str	r3, [r4, #4]
 8002908:	6014      	str	r4, [r2, #0]
 800290a:	4628      	mov	r0, r5
 800290c:	e8bd 4038 	ldmia.w	sp!, {r3, r4, r5, lr}
 8002910:	f000 b8e2 	b.w	8002ad8 <__malloc_unlock>
 8002914:	42a3      	cmp	r3, r4
 8002916:	d908      	bls.n	800292a <_free_r+0x42>
 8002918:	6820      	ldr	r0, [r4, #0]
 800291a:	1821      	adds	r1, r4, r0
 800291c:	428b      	cmp	r3, r1
 800291e:	bf01      	itttt	eq
 8002920:	6819      	ldreq	r1, [r3, #0]
 8002922:	685b      	ldreq	r3, [r3, #4]
 8002924:	1809      	addeq	r1, r1, r0
 8002926:	6021      	streq	r1, [r4, #0]
 8002928:	e7ed      	b.n	8002906 <_free_r+0x1e>
 800292a:	461a      	mov	r2, r3
 800292c:	685b      	ldr	r3, [r3, #4]
 800292e:	b10b      	cbz	r3, 8002934 <_free_r+0x4c>
 8002930:	42a3      	cmp	r3, r4
 8002932:	d9fa      	bls.n	800292a <_free_r+0x42>
 8002934:	6811      	ldr	r1, [r2, #0]
 8002936:	1850      	adds	r0, r2, r1
 8002938:	42a0      	cmp	r0, r4
 800293a:	d10b      	bne.n	8002954 <_free_r+0x6c>
 800293c:	6820      	ldr	r0, [r4, #0]
 800293e:	4401      	add	r1, r0
 8002940:	1850      	adds	r0, r2, r1
 8002942:	4283      	cmp	r3, r0
 8002944:	6011      	str	r1, [r2, #0]
 8002946:	d1e0      	bne.n	800290a <_free_r+0x22>
 8002948:	6818      	ldr	r0, [r3, #0]
 800294a:	685b      	ldr	r3, [r3, #4]
 800294c:	4408      	add	r0, r1
 800294e:	6010      	str	r0, [r2, #0]
 8002950:	6053      	str	r3, [r2, #4]
 8002952:	e7da      	b.n	800290a <_free_r+0x22>
 8002954:	d902      	bls.n	800295c <_free_r+0x74>
 8002956:	230c      	movs	r3, #12
 8002958:	602b      	str	r3, [r5, #0]
 800295a:	e7d6      	b.n	800290a <_free_r+0x22>
 800295c:	6820      	ldr	r0, [r4, #0]
 800295e:	1821      	adds	r1, r4, r0
 8002960:	428b      	cmp	r3, r1
 8002962:	bf01      	itttt	eq
 8002964:	6819      	ldreq	r1, [r3, #0]
 8002966:	685b      	ldreq	r3, [r3, #4]
 8002968:	1809      	addeq	r1, r1, r0
 800296a:	6021      	streq	r1, [r4, #0]
 800296c:	6063      	str	r3, [r4, #4]
 800296e:	6054      	str	r4, [r2, #4]
 8002970:	e7cb      	b.n	800290a <_free_r+0x22>
 8002972:	bd38      	pop	{r3, r4, r5, pc}
 8002974:	20000544 	.word	0x20000544

08002978 <malloc>:
 8002978:	4b02      	ldr	r3, [pc, #8]	@ (8002984 <malloc+0xc>)
 800297a:	4601      	mov	r1, r0
 800297c:	6818      	ldr	r0, [r3, #0]
 800297e:	f000 b825 	b.w	80029cc <_malloc_r>
 8002982:	bf00      	nop
 8002984:	20000018 	.word	0x20000018

08002988 <sbrk_aligned>:
 8002988:	b570      	push	{r4, r5, r6, lr}
 800298a:	4e0f      	ldr	r6, [pc, #60]	@ (80029c8 <sbrk_aligned+0x40>)
 800298c:	460c      	mov	r4, r1
 800298e:	6831      	ldr	r1, [r6, #0]
 8002990:	4605      	mov	r5, r0
 8002992:	b911      	cbnz	r1, 800299a <sbrk_aligned+0x12>
 8002994:	f000 fcce 	bl	8003334 <_sbrk_r>
 8002998:	6030      	str	r0, [r6, #0]
 800299a:	4621      	mov	r1, r4
 800299c:	4628      	mov	r0, r5
 800299e:	f000 fcc9 	bl	8003334 <_sbrk_r>
 80029a2:	1c43      	adds	r3, r0, #1
 80029a4:	d103      	bne.n	80029ae <sbrk_aligned+0x26>
 80029a6:	f04f 34ff 	mov.w	r4, #4294967295
 80029aa:	4620      	mov	r0, r4
 80029ac:	bd70      	pop	{r4, r5, r6, pc}
 80029ae:	1cc4      	adds	r4, r0, #3
 80029b0:	f024 0403 	bic.w	r4, r4, #3
 80029b4:	42a0      	cmp	r0, r4
 80029b6:	d0f8      	beq.n	80029aa <sbrk_aligned+0x22>
 80029b8:	1a21      	subs	r1, r4, r0
 80029ba:	4628      	mov	r0, r5
 80029bc:	f000 fcba 	bl	8003334 <_sbrk_r>
 80029c0:	3001      	adds	r0, #1
 80029c2:	d1f2      	bne.n	80029aa <sbrk_aligned+0x22>
 80029c4:	e7ef      	b.n	80029a6 <sbrk_aligned+0x1e>
 80029c6:	bf00      	nop
 80029c8:	20000540 	.word	0x20000540

080029cc <_malloc_r>:
 80029cc:	e92d 43f8 	stmdb	sp!, {r3, r4, r5, r6, r7, r8, r9, lr}
 80029d0:	1ccd      	adds	r5, r1, #3
 80029d2:	f025 0503 	bic.w	r5, r5, #3
 80029d6:	3508      	adds	r5, #8
 80029d8:	2d0c      	cmp	r5, #12
 80029da:	bf38      	it	cc
 80029dc:	250c      	movcc	r5, #12
 80029de:	2d00      	cmp	r5, #0
 80029e0:	4606      	mov	r6, r0
 80029e2:	db01      	blt.n	80029e8 <_malloc_r+0x1c>
 80029e4:	42a9      	cmp	r1, r5
 80029e6:	d904      	bls.n	80029f2 <_malloc_r+0x26>
 80029e8:	230c      	movs	r3, #12
 80029ea:	6033      	str	r3, [r6, #0]
 80029ec:	2000      	movs	r0, #0
 80029ee:	e8bd 83f8 	ldmia.w	sp!, {r3, r4, r5, r6, r7, r8, r9, pc}
 80029f2:	f8df 80d4 	ldr.w	r8, [pc, #212]	@ 8002ac8 <_malloc_r+0xfc>
 80029f6:	f000 f869 	bl	8002acc <__malloc_lock>
 80029fa:	f8d8 3000 	ldr.w	r3, [r8]
 80029fe:	461c      	mov	r4, r3
 8002a00:	bb44      	cbnz	r4, 8002a54 <_malloc_r+0x88>
 8002a02:	4629      	mov	r1, r5
 8002a04:	4630      	mov	r0, r6
 8002a06:	f7ff ffbf 	bl	8002988 <sbrk_aligned>
 8002a0a:	1c43      	adds	r3, r0, #1
 8002a0c:	4604      	mov	r4, r0
 8002a0e:	d158      	bne.n	8002ac2 <_malloc_r+0xf6>
 8002a10:	f8d8 4000 	ldr.w	r4, [r8]
 8002a14:	4627      	mov	r7, r4
 8002a16:	2f00      	cmp	r7, #0
 8002a18:	d143      	bne.n	8002aa2 <_malloc_r+0xd6>
 8002a1a:	2c00      	cmp	r4, #0
 8002a1c:	d04b      	beq.n	8002ab6 <_malloc_r+0xea>
 8002a1e:	6823      	ldr	r3, [r4, #0]
 8002a20:	4639      	mov	r1, r7
 8002a22:	4630      	mov	r0, r6
 8002a24:	eb04 0903 	add.w	r9, r4, r3
 8002a28:	f000 fc84 	bl	8003334 <_sbrk_r>
 8002a2c:	4581      	cmp	r9, r0
 8002a2e:	d142      	bne.n	8002ab6 <_malloc_r+0xea>
 8002a30:	6821      	ldr	r1, [r4, #0]
 8002a32:	4630      	mov	r0, r6
 8002a34:	1a6d      	subs	r5, r5, r1
 8002a36:	4629      	mov	r1, r5
 8002a38:	f7ff ffa6 	bl	8002988 <sbrk_aligned>
 8002a3c:	3001      	adds	r0, #1
 8002a3e:	d03a      	beq.n	8002ab6 <_malloc_r+0xea>
 8002a40:	6823      	ldr	r3, [r4, #0]
 8002a42:	442b      	add	r3, r5
 8002a44:	6023      	str	r3, [r4, #0]
 8002a46:	f8d8 3000 	ldr.w	r3, [r8]
 8002a4a:	685a      	ldr	r2, [r3, #4]
 8002a4c:	bb62      	cbnz	r2, 8002aa8 <_malloc_r+0xdc>
 8002a4e:	f8c8 7000 	str.w	r7, [r8]
 8002a52:	e00f      	b.n	8002a74 <_malloc_r+0xa8>
 8002a54:	6822      	ldr	r2, [r4, #0]
 8002a56:	1b52      	subs	r2, r2, r5
 8002a58:	d420      	bmi.n	8002a9c <_malloc_r+0xd0>
 8002a5a:	2a0b      	cmp	r2, #11
 8002a5c:	d917      	bls.n	8002a8e <_malloc_r+0xc2>
 8002a5e:	1961      	adds	r1, r4, r5
 8002a60:	42a3      	cmp	r3, r4
 8002a62:	6025      	str	r5, [r4, #0]
 8002a64:	bf18      	it	ne
 8002a66:	6059      	strne	r1, [r3, #4]
 8002a68:	6863      	ldr	r3, [r4, #4]
 8002a6a:	bf08      	it	eq
 8002a6c:	f8c8 1000 	streq.w	r1, [r8]
 8002a70:	5162      	str	r2, [r4, r5]
 8002a72:	604b      	str	r3, [r1, #4]
 8002a74:	4630      	mov	r0, r6
 8002a76:	f000 f82f 	bl	8002ad8 <__malloc_unlock>
 8002a7a:	f104 000b 	add.w	r0, r4, #11
 8002a7e:	1d23      	adds	r3, r4, #4
 8002a80:	f020 0007 	bic.w	r0, r0, #7
 8002a84:	1ac2      	subs	r2, r0, r3
 8002a86:	bf1c      	itt	ne
 8002a88:	1a1b      	subne	r3, r3, r0
 8002a8a:	50a3      	strne	r3, [r4, r2]
 8002a8c:	e7af      	b.n	80029ee <_malloc_r+0x22>
 8002a8e:	6862      	ldr	r2, [r4, #4]
 8002a90:	42a3      	cmp	r3, r4
 8002a92:	bf0c      	ite	eq
 8002a94:	f8c8 2000 	streq.w	r2, [r8]
 8002a98:	605a      	strne	r2, [r3, #4]
 8002a9a:	e7eb      	b.n	8002a74 <_malloc_r+0xa8>
 8002a9c:	4623      	mov	r3, r4
 8002a9e:	6864      	ldr	r4, [r4, #4]
 8002aa0:	e7ae      	b.n	8002a00 <_malloc_r+0x34>
 8002aa2:	463c      	mov	r4, r7
 8002aa4:	687f      	ldr	r7, [r7, #4]
 8002aa6:	e7b6      	b.n	8002a16 <_malloc_r+0x4a>
 8002aa8:	461a      	mov	r2, r3
 8002aaa:	685b      	ldr	r3, [r3, #4]
 8002aac:	42a3      	cmp	r3, r4
 8002aae:	d1fb      	bne.n	8002aa8 <_malloc_r+0xdc>
 8002ab0:	2300      	movs	r3, #0
 8002ab2:	6053      	str	r3, [r2, #4]
 8002ab4:	e7de      	b.n	8002a74 <_malloc_r+0xa8>
 8002ab6:	230c      	movs	r3, #12
 8002ab8:	4630      	mov	r0, r6
 8002aba:	6033      	str	r3, [r6, #0]
 8002abc:	f000 f80c 	bl	8002ad8 <__malloc_unlock>
 8002ac0:	e794      	b.n	80029ec <_malloc_r+0x20>
 8002ac2:	6005      	str	r5, [r0, #0]
 8002ac4:	e7d6      	b.n	8002a74 <_malloc_r+0xa8>
 8002ac6:	bf00      	nop
 8002ac8:	20000544 	.word	0x20000544

08002acc <__malloc_lock>:
 8002acc:	4801      	ldr	r0, [pc, #4]	@ (8002ad4 <__malloc_lock+0x8>)
 8002ace:	f7ff b8aa 	b.w	8001c26 <__retarget_lock_acquire_recursive>
 8002ad2:	bf00      	nop
 8002ad4:	2000053c 	.word	0x2000053c

08002ad8 <__malloc_unlock>:
 8002ad8:	4801      	ldr	r0, [pc, #4]	@ (8002ae0 <__malloc_unlock+0x8>)
 8002ada:	f7ff b8a5 	b.w	8001c28 <__retarget_lock_release_recursive>
 8002ade:	bf00      	nop
 8002ae0:	2000053c 	.word	0x2000053c

08002ae4 <_Balloc>:
 8002ae4:	b570      	push	{r4, r5, r6, lr}
 8002ae6:	69c6      	ldr	r6, [r0, #28]
 8002ae8:	4604      	mov	r4, r0
 8002aea:	460d      	mov	r5, r1
 8002aec:	b976      	cbnz	r6, 8002b0c <_Balloc+0x28>
 8002aee:	2010      	movs	r0, #16
 8002af0:	f7ff ff42 	bl	8002978 <malloc>
 8002af4:	4602      	mov	r2, r0
 8002af6:	61e0      	str	r0, [r4, #28]
 8002af8:	b920      	cbnz	r0, 8002b04 <_Balloc+0x20>
 8002afa:	216b      	movs	r1, #107	@ 0x6b
 8002afc:	4b17      	ldr	r3, [pc, #92]	@ (8002b5c <_Balloc+0x78>)
 8002afe:	4818      	ldr	r0, [pc, #96]	@ (8002b60 <_Balloc+0x7c>)
 8002b00:	f000 fc36 	bl	8003370 <__assert_func>
 8002b04:	e9c0 6601 	strd	r6, r6, [r0, #4]
 8002b08:	6006      	str	r6, [r0, #0]
 8002b0a:	60c6      	str	r6, [r0, #12]
 8002b0c:	69e6      	ldr	r6, [r4, #28]
 8002b0e:	68f3      	ldr	r3, [r6, #12]
 8002b10:	b183      	cbz	r3, 8002b34 <_Balloc+0x50>
 8002b12:	69e3      	ldr	r3, [r4, #28]
 8002b14:	68db      	ldr	r3, [r3, #12]
 8002b16:	f853 0025 	ldr.w	r0, [r3, r5, lsl #2]
 8002b1a:	b9b8      	cbnz	r0, 8002b4c <_Balloc+0x68>
 8002b1c:	2101      	movs	r1, #1
 8002b1e:	fa01 f605 	lsl.w	r6, r1, r5
 8002b22:	1d72      	adds	r2, r6, #5
 8002b24:	4620      	mov	r0, r4
 8002b26:	0092      	lsls	r2, r2, #2
 8002b28:	f000 fc40 	bl	80033ac <_calloc_r>
 8002b2c:	b160      	cbz	r0, 8002b48 <_Balloc+0x64>
 8002b2e:	e9c0 5601 	strd	r5, r6, [r0, #4]
 8002b32:	e00e      	b.n	8002b52 <_Balloc+0x6e>
 8002b34:	2221      	movs	r2, #33	@ 0x21
 8002b36:	2104      	movs	r1, #4
 8002b38:	4620      	mov	r0, r4
 8002b3a:	f000 fc37 	bl	80033ac <_calloc_r>
 8002b3e:	69e3      	ldr	r3, [r4, #28]
 8002b40:	60f0      	str	r0, [r6, #12]
 8002b42:	68db      	ldr	r3, [r3, #12]
 8002b44:	2b00      	cmp	r3, #0
 8002b46:	d1e4      	bne.n	8002b12 <_Balloc+0x2e>
 8002b48:	2000      	movs	r0, #0
 8002b4a:	bd70      	pop	{r4, r5, r6, pc}
 8002b4c:	6802      	ldr	r2, [r0, #0]
 8002b4e:	f843 2025 	str.w	r2, [r3, r5, lsl #2]
 8002b52:	2300      	movs	r3, #0
 8002b54:	e9c0 3303 	strd	r3, r3, [r0, #12]
 8002b58:	e7f7      	b.n	8002b4a <_Balloc+0x66>
 8002b5a:	bf00      	nop
 8002b5c:	080039d9 	.word	0x080039d9
 8002b60:	08003a59 	.word	0x08003a59

08002b64 <_Bfree>:
 8002b64:	b570      	push	{r4, r5, r6, lr}
 8002b66:	69c6      	ldr	r6, [r0, #28]
 8002b68:	4605      	mov	r5, r0
 8002b6a:	460c      	mov	r4, r1
 8002b6c:	b976      	cbnz	r6, 8002b8c <_Bfree+0x28>
 8002b6e:	2010      	movs	r0, #16
 8002b70:	f7ff ff02 	bl	8002978 <malloc>
 8002b74:	4602      	mov	r2, r0
 8002b76:	61e8      	str	r0, [r5, #28]
 8002b78:	b920      	cbnz	r0, 8002b84 <_Bfree+0x20>
 8002b7a:	218f      	movs	r1, #143	@ 0x8f
 8002b7c:	4b08      	ldr	r3, [pc, #32]	@ (8002ba0 <_Bfree+0x3c>)
 8002b7e:	4809      	ldr	r0, [pc, #36]	@ (8002ba4 <_Bfree+0x40>)
 8002b80:	f000 fbf6 	bl	8003370 <__assert_func>
 8002b84:	e9c0 6601 	strd	r6, r6, [r0, #4]
 8002b88:	6006      	str	r6, [r0, #0]
 8002b8a:	60c6      	str	r6, [r0, #12]
 8002b8c:	b13c      	cbz	r4, 8002b9e <_Bfree+0x3a>
 8002b8e:	69eb      	ldr	r3, [r5, #28]
 8002b90:	6862      	ldr	r2, [r4, #4]
 8002b92:	68db      	ldr	r3, [r3, #12]
 8002b94:	f853 1022 	ldr.w	r1, [r3, r2, lsl #2]
 8002b98:	6021      	str	r1, [r4, #0]
 8002b9a:	f843 4022 	str.w	r4, [r3, r2, lsl #2]
 8002b9e:	bd70      	pop	{r4, r5, r6, pc}
 8002ba0:	080039d9 	.word	0x080039d9
 8002ba4:	08003a59 	.word	0x08003a59

08002ba8 <__multadd>:
 8002ba8:	e92d 41f0 	stmdb	sp!, {r4, r5, r6, r7, r8, lr}
 8002bac:	4607      	mov	r7, r0
 8002bae:	460c      	mov	r4, r1
 8002bb0:	461e      	mov	r6, r3
 8002bb2:	2000      	movs	r0, #0
 8002bb4:	690d      	ldr	r5, [r1, #16]
 8002bb6:	f101 0c14 	add.w	ip, r1, #20
 8002bba:	f8dc 3000 	ldr.w	r3, [ip]
 8002bbe:	3001      	adds	r0, #1
 8002bc0:	b299      	uxth	r1, r3
 8002bc2:	fb02 6101 	mla	r1, r2, r1, r6
 8002bc6:	0c1e      	lsrs	r6, r3, #16
 8002bc8:	0c0b      	lsrs	r3, r1, #16
 8002bca:	fb02 3306 	mla	r3, r2, r6, r3
 8002bce:	b289      	uxth	r1, r1
 8002bd0:	eb01 4103 	add.w	r1, r1, r3, lsl #16
 8002bd4:	4285      	cmp	r5, r0
 8002bd6:	ea4f 4613 	mov.w	r6, r3, lsr #16
 8002bda:	f84c 1b04 	str.w	r1, [ip], #4
 8002bde:	dcec      	bgt.n	8002bba <__multadd+0x12>
 8002be0:	b30e      	cbz	r6, 8002c26 <__multadd+0x7e>
 8002be2:	68a3      	ldr	r3, [r4, #8]
 8002be4:	42ab      	cmp	r3, r5
 8002be6:	dc19      	bgt.n	8002c1c <__multadd+0x74>
 8002be8:	6861      	ldr	r1, [r4, #4]
 8002bea:	4638      	mov	r0, r7
 8002bec:	3101      	adds	r1, #1
 8002bee:	f7ff ff79 	bl	8002ae4 <_Balloc>
 8002bf2:	4680      	mov	r8, r0
 8002bf4:	b928      	cbnz	r0, 8002c02 <__multadd+0x5a>
 8002bf6:	4602      	mov	r2, r0
 8002bf8:	21ba      	movs	r1, #186	@ 0xba
 8002bfa:	4b0c      	ldr	r3, [pc, #48]	@ (8002c2c <__multadd+0x84>)
 8002bfc:	480c      	ldr	r0, [pc, #48]	@ (8002c30 <__multadd+0x88>)
 8002bfe:	f000 fbb7 	bl	8003370 <__assert_func>
 8002c02:	6922      	ldr	r2, [r4, #16]
 8002c04:	f104 010c 	add.w	r1, r4, #12
 8002c08:	3202      	adds	r2, #2
 8002c0a:	0092      	lsls	r2, r2, #2
 8002c0c:	300c      	adds	r0, #12
 8002c0e:	f000 fba1 	bl	8003354 <memcpy>
 8002c12:	4621      	mov	r1, r4
 8002c14:	4638      	mov	r0, r7
 8002c16:	f7ff ffa5 	bl	8002b64 <_Bfree>
 8002c1a:	4644      	mov	r4, r8
 8002c1c:	eb04 0385 	add.w	r3, r4, r5, lsl #2
 8002c20:	3501      	adds	r5, #1
 8002c22:	615e      	str	r6, [r3, #20]
 8002c24:	6125      	str	r5, [r4, #16]
 8002c26:	4620      	mov	r0, r4
 8002c28:	e8bd 81f0 	ldmia.w	sp!, {r4, r5, r6, r7, r8, pc}
 8002c2c:	08003a48 	.word	0x08003a48
 8002c30:	08003a59 	.word	0x08003a59

08002c34 <__hi0bits>:
 8002c34:	4603      	mov	r3, r0
 8002c36:	f5b0 3f80 	cmp.w	r0, #65536	@ 0x10000
 8002c3a:	bf3a      	itte	cc
 8002c3c:	0403      	lslcc	r3, r0, #16
 8002c3e:	2010      	movcc	r0, #16
 8002c40:	2000      	movcs	r0, #0
 8002c42:	f1b3 7f80 	cmp.w	r3, #16777216	@ 0x1000000
 8002c46:	bf3c      	itt	cc
 8002c48:	021b      	lslcc	r3, r3, #8
 8002c4a:	3008      	addcc	r0, #8
 8002c4c:	f1b3 5f80 	cmp.w	r3, #268435456	@ 0x10000000
 8002c50:	bf3c      	itt	cc
 8002c52:	011b      	lslcc	r3, r3, #4
 8002c54:	3004      	addcc	r0, #4
 8002c56:	f1b3 4f80 	cmp.w	r3, #1073741824	@ 0x40000000
 8002c5a:	bf3c      	itt	cc
 8002c5c:	009b      	lslcc	r3, r3, #2
 8002c5e:	3002      	addcc	r0, #2
 8002c60:	2b00      	cmp	r3, #0
 8002c62:	db05      	blt.n	8002c70 <__hi0bits+0x3c>
 8002c64:	f013 4f80 	tst.w	r3, #1073741824	@ 0x40000000
 8002c68:	f100 0001 	add.w	r0, r0, #1
 8002c6c:	bf08      	it	eq
 8002c6e:	2020      	moveq	r0, #32
 8002c70:	4770      	bx	lr

08002c72 <__lo0bits>:
 8002c72:	6803      	ldr	r3, [r0, #0]
 8002c74:	4602      	mov	r2, r0
 8002c76:	f013 0007 	ands.w	r0, r3, #7
 8002c7a:	d00b      	beq.n	8002c94 <__lo0bits+0x22>
 8002c7c:	07d9      	lsls	r1, r3, #31
 8002c7e:	d421      	bmi.n	8002cc4 <__lo0bits+0x52>
 8002c80:	0798      	lsls	r0, r3, #30
 8002c82:	bf49      	itett	mi
 8002c84:	085b      	lsrmi	r3, r3, #1
 8002c86:	089b      	lsrpl	r3, r3, #2
 8002c88:	2001      	movmi	r0, #1
 8002c8a:	6013      	strmi	r3, [r2, #0]
 8002c8c:	bf5c      	itt	pl
 8002c8e:	2002      	movpl	r0, #2
 8002c90:	6013      	strpl	r3, [r2, #0]
 8002c92:	4770      	bx	lr
 8002c94:	b299      	uxth	r1, r3
 8002c96:	b909      	cbnz	r1, 8002c9c <__lo0bits+0x2a>
 8002c98:	2010      	movs	r0, #16
 8002c9a:	0c1b      	lsrs	r3, r3, #16
 8002c9c:	b2d9      	uxtb	r1, r3
 8002c9e:	b909      	cbnz	r1, 8002ca4 <__lo0bits+0x32>
 8002ca0:	3008      	adds	r0, #8
 8002ca2:	0a1b      	lsrs	r3, r3, #8
 8002ca4:	0719      	lsls	r1, r3, #28
 8002ca6:	bf04      	itt	eq
 8002ca8:	091b      	lsreq	r3, r3, #4
 8002caa:	3004      	addeq	r0, #4
 8002cac:	0799      	lsls	r1, r3, #30
 8002cae:	bf04      	itt	eq
 8002cb0:	089b      	lsreq	r3, r3, #2
 8002cb2:	3002      	addeq	r0, #2
 8002cb4:	07d9      	lsls	r1, r3, #31
 8002cb6:	d403      	bmi.n	8002cc0 <__lo0bits+0x4e>
 8002cb8:	085b      	lsrs	r3, r3, #1
 8002cba:	f100 0001 	add.w	r0, r0, #1
 8002cbe:	d003      	beq.n	8002cc8 <__lo0bits+0x56>
 8002cc0:	6013      	str	r3, [r2, #0]
 8002cc2:	4770      	bx	lr
 8002cc4:	2000      	movs	r0, #0
 8002cc6:	4770      	bx	lr
 8002cc8:	2020      	movs	r0, #32
 8002cca:	4770      	bx	lr

08002ccc <__i2b>:
 8002ccc:	b510      	push	{r4, lr}
 8002cce:	460c      	mov	r4, r1
 8002cd0:	2101      	movs	r1, #1
 8002cd2:	f7ff ff07 	bl	8002ae4 <_Balloc>
 8002cd6:	4602      	mov	r2, r0
 8002cd8:	b928      	cbnz	r0, 8002ce6 <__i2b+0x1a>
 8002cda:	f240 1145 	movw	r1, #325	@ 0x145
 8002cde:	4b04      	ldr	r3, [pc, #16]	@ (8002cf0 <__i2b+0x24>)
 8002ce0:	4804      	ldr	r0, [pc, #16]	@ (8002cf4 <__i2b+0x28>)
 8002ce2:	f000 fb45 	bl	8003370 <__assert_func>
 8002ce6:	2301      	movs	r3, #1
 8002ce8:	6144      	str	r4, [r0, #20]
 8002cea:	6103      	str	r3, [r0, #16]
 8002cec:	bd10      	pop	{r4, pc}
 8002cee:	bf00      	nop
 8002cf0:	08003a48 	.word	0x08003a48
 8002cf4:	08003a59 	.word	0x08003a59

08002cf8 <__multiply>:
 8002cf8:	e92d 4ff0 	stmdb	sp!, {r4, r5, r6, r7, r8, r9, sl, fp, lr}
 8002cfc:	4614      	mov	r4, r2
 8002cfe:	690a      	ldr	r2, [r1, #16]
 8002d00:	6923      	ldr	r3, [r4, #16]
 8002d02:	460f      	mov	r7, r1
 8002d04:	429a      	cmp	r2, r3
 8002d06:	bfa2      	ittt	ge
 8002d08:	4623      	movge	r3, r4
 8002d0a:	460c      	movge	r4, r1
 8002d0c:	461f      	movge	r7, r3
 8002d0e:	f8d4 a010 	ldr.w	sl, [r4, #16]
 8002d12:	f8d7 9010 	ldr.w	r9, [r7, #16]
 8002d16:	68a3      	ldr	r3, [r4, #8]
 8002d18:	6861      	ldr	r1, [r4, #4]
 8002d1a:	eb0a 0609 	add.w	r6, sl, r9
 8002d1e:	42b3      	cmp	r3, r6
 8002d20:	b085      	sub	sp, #20
 8002d22:	bfb8      	it	lt
 8002d24:	3101      	addlt	r1, #1
 8002d26:	f7ff fedd 	bl	8002ae4 <_Balloc>
 8002d2a:	b930      	cbnz	r0, 8002d3a <__multiply+0x42>
 8002d2c:	4602      	mov	r2, r0
 8002d2e:	f44f 71b1 	mov.w	r1, #354	@ 0x162
 8002d32:	4b43      	ldr	r3, [pc, #268]	@ (8002e40 <__multiply+0x148>)
 8002d34:	4843      	ldr	r0, [pc, #268]	@ (8002e44 <__multiply+0x14c>)
 8002d36:	f000 fb1b 	bl	8003370 <__assert_func>
 8002d3a:	f100 0514 	add.w	r5, r0, #20
 8002d3e:	462b      	mov	r3, r5
 8002d40:	2200      	movs	r2, #0
 8002d42:	eb05 0886 	add.w	r8, r5, r6, lsl #2
 8002d46:	4543      	cmp	r3, r8
 8002d48:	d321      	bcc.n	8002d8e <__multiply+0x96>
 8002d4a:	f107 0114 	add.w	r1, r7, #20
 8002d4e:	f104 0214 	add.w	r2, r4, #20
 8002d52:	eb02 028a 	add.w	r2, r2, sl, lsl #2
 8002d56:	eb01 0389 	add.w	r3, r1, r9, lsl #2
 8002d5a:	9302      	str	r3, [sp, #8]
 8002d5c:	1b13      	subs	r3, r2, r4
 8002d5e:	3b15      	subs	r3, #21
 8002d60:	f023 0303 	bic.w	r3, r3, #3
 8002d64:	3304      	adds	r3, #4
 8002d66:	f104 0715 	add.w	r7, r4, #21
 8002d6a:	42ba      	cmp	r2, r7
 8002d6c:	bf38      	it	cc
 8002d6e:	2304      	movcc	r3, #4
 8002d70:	9301      	str	r3, [sp, #4]
 8002d72:	9b02      	ldr	r3, [sp, #8]
 8002d74:	9103      	str	r1, [sp, #12]
 8002d76:	428b      	cmp	r3, r1
 8002d78:	d80c      	bhi.n	8002d94 <__multiply+0x9c>
 8002d7a:	2e00      	cmp	r6, #0
 8002d7c:	dd03      	ble.n	8002d86 <__multiply+0x8e>
 8002d7e:	f858 3d04 	ldr.w	r3, [r8, #-4]!
 8002d82:	2b00      	cmp	r3, #0
 8002d84:	d05a      	beq.n	8002e3c <__multiply+0x144>
 8002d86:	6106      	str	r6, [r0, #16]
 8002d88:	b005      	add	sp, #20
 8002d8a:	e8bd 8ff0 	ldmia.w	sp!, {r4, r5, r6, r7, r8, r9, sl, fp, pc}
 8002d8e:	f843 2b04 	str.w	r2, [r3], #4
 8002d92:	e7d8      	b.n	8002d46 <__multiply+0x4e>
 8002d94:	f8b1 a000 	ldrh.w	sl, [r1]
 8002d98:	f1ba 0f00 	cmp.w	sl, #0
 8002d9c:	d023      	beq.n	8002de6 <__multiply+0xee>
 8002d9e:	46a9      	mov	r9, r5
 8002da0:	f04f 0c00 	mov.w	ip, #0
 8002da4:	f104 0e14 	add.w	lr, r4, #20
 8002da8:	f85e 7b04 	ldr.w	r7, [lr], #4
 8002dac:	f8d9 3000 	ldr.w	r3, [r9]
 8002db0:	fa1f fb87 	uxth.w	fp, r7
 8002db4:	b29b      	uxth	r3, r3
 8002db6:	fb0a 330b 	mla	r3, sl, fp, r3
 8002dba:	4463      	add	r3, ip
 8002dbc:	f8d9 c000 	ldr.w	ip, [r9]
 8002dc0:	0c3f      	lsrs	r7, r7, #16
 8002dc2:	ea4f 4c1c 	mov.w	ip, ip, lsr #16
 8002dc6:	fb0a c707 	mla	r7, sl, r7, ip
 8002dca:	eb07 4713 	add.w	r7, r7, r3, lsr #16
 8002dce:	b29b      	uxth	r3, r3
 8002dd0:	ea43 4307 	orr.w	r3, r3, r7, lsl #16
 8002dd4:	4572      	cmp	r2, lr
 8002dd6:	ea4f 4c17 	mov.w	ip, r7, lsr #16
 8002dda:	f849 3b04 	str.w	r3, [r9], #4
 8002dde:	d8e3      	bhi.n	8002da8 <__multiply+0xb0>
 8002de0:	9b01      	ldr	r3, [sp, #4]
 8002de2:	f845 c003 	str.w	ip, [r5, r3]
 8002de6:	9b03      	ldr	r3, [sp, #12]
 8002de8:	3104      	adds	r1, #4
 8002dea:	f8b3 9002 	ldrh.w	r9, [r3, #2]
 8002dee:	f1b9 0f00 	cmp.w	r9, #0
 8002df2:	d021      	beq.n	8002e38 <__multiply+0x140>
 8002df4:	46ae      	mov	lr, r5
 8002df6:	f04f 0a00 	mov.w	sl, #0
 8002dfa:	682b      	ldr	r3, [r5, #0]
 8002dfc:	f104 0c14 	add.w	ip, r4, #20
 8002e00:	f8bc b000 	ldrh.w	fp, [ip]
 8002e04:	f8be 7002 	ldrh.w	r7, [lr, #2]
 8002e08:	b29b      	uxth	r3, r3
 8002e0a:	fb09 770b 	mla	r7, r9, fp, r7
 8002e0e:	4457      	add	r7, sl
 8002e10:	ea43 4307 	orr.w	r3, r3, r7, lsl #16
 8002e14:	f84e 3b04 	str.w	r3, [lr], #4
 8002e18:	f85c 3b04 	ldr.w	r3, [ip], #4
 8002e1c:	ea4f 4a13 	mov.w	sl, r3, lsr #16
 8002e20:	f8be 3000 	ldrh.w	r3, [lr]
 8002e24:	4562      	cmp	r2, ip
 8002e26:	fb09 330a 	mla	r3, r9, sl, r3
 8002e2a:	eb03 4317 	add.w	r3, r3, r7, lsr #16
 8002e2e:	ea4f 4a13 	mov.w	sl, r3, lsr #16
 8002e32:	d8e5      	bhi.n	8002e00 <__multiply+0x108>
 8002e34:	9f01      	ldr	r7, [sp, #4]
 8002e36:	51eb      	str	r3, [r5, r7]
 8002e38:	3504      	adds	r5, #4
 8002e3a:	e79a      	b.n	8002d72 <__multiply+0x7a>
 8002e3c:	3e01      	subs	r6, #1
 8002e3e:	e79c      	b.n	8002d7a <__multiply+0x82>
 8002e40:	08003a48 	.word	0x08003a48
 8002e44:	08003a59 	.word	0x08003a59

08002e48 <__pow5mult>:
 8002e48:	e92d 43f8 	stmdb	sp!, {r3, r4, r5, r6, r7, r8, r9, lr}
 8002e4c:	4615      	mov	r5, r2
 8002e4e:	f012 0203 	ands.w	r2, r2, #3
 8002e52:	4607      	mov	r7, r0
 8002e54:	460e      	mov	r6, r1
 8002e56:	d007      	beq.n	8002e68 <__pow5mult+0x20>
 8002e58:	4c25      	ldr	r4, [pc, #148]	@ (8002ef0 <__pow5mult+0xa8>)
 8002e5a:	3a01      	subs	r2, #1
 8002e5c:	2300      	movs	r3, #0
 8002e5e:	f854 2022 	ldr.w	r2, [r4, r2, lsl #2]
 8002e62:	f7ff fea1 	bl	8002ba8 <__multadd>
 8002e66:	4606      	mov	r6, r0
 8002e68:	10ad      	asrs	r5, r5, #2
 8002e6a:	d03d      	beq.n	8002ee8 <__pow5mult+0xa0>
 8002e6c:	69fc      	ldr	r4, [r7, #28]
 8002e6e:	b97c      	cbnz	r4, 8002e90 <__pow5mult+0x48>
 8002e70:	2010      	movs	r0, #16
 8002e72:	f7ff fd81 	bl	8002978 <malloc>
 8002e76:	4602      	mov	r2, r0
 8002e78:	61f8      	str	r0, [r7, #28]
 8002e7a:	b928      	cbnz	r0, 8002e88 <__pow5mult+0x40>
 8002e7c:	f240 11b3 	movw	r1, #435	@ 0x1b3
 8002e80:	4b1c      	ldr	r3, [pc, #112]	@ (8002ef4 <__pow5mult+0xac>)
 8002e82:	481d      	ldr	r0, [pc, #116]	@ (8002ef8 <__pow5mult+0xb0>)
 8002e84:	f000 fa74 	bl	8003370 <__assert_func>
 8002e88:	e9c0 4401 	strd	r4, r4, [r0, #4]
 8002e8c:	6004      	str	r4, [r0, #0]
 8002e8e:	60c4      	str	r4, [r0, #12]
 8002e90:	f8d7 801c 	ldr.w	r8, [r7, #28]
 8002e94:	f8d8 4008 	ldr.w	r4, [r8, #8]
 8002e98:	b94c      	cbnz	r4, 8002eae <__pow5mult+0x66>
 8002e9a:	f240 2171 	movw	r1, #625	@ 0x271
 8002e9e:	4638      	mov	r0, r7
 8002ea0:	f7ff ff14 	bl	8002ccc <__i2b>
 8002ea4:	2300      	movs	r3, #0
 8002ea6:	4604      	mov	r4, r0
 8002ea8:	f8c8 0008 	str.w	r0, [r8, #8]
 8002eac:	6003      	str	r3, [r0, #0]
 8002eae:	f04f 0900 	mov.w	r9, #0
 8002eb2:	07eb      	lsls	r3, r5, #31
 8002eb4:	d50a      	bpl.n	8002ecc <__pow5mult+0x84>
 8002eb6:	4631      	mov	r1, r6
 8002eb8:	4622      	mov	r2, r4
 8002eba:	4638      	mov	r0, r7
 8002ebc:	f7ff ff1c 	bl	8002cf8 <__multiply>
 8002ec0:	4680      	mov	r8, r0
 8002ec2:	4631      	mov	r1, r6
 8002ec4:	4638      	mov	r0, r7
 8002ec6:	f7ff fe4d 	bl	8002b64 <_Bfree>
 8002eca:	4646      	mov	r6, r8
 8002ecc:	106d      	asrs	r5, r5, #1
 8002ece:	d00b      	beq.n	8002ee8 <__pow5mult+0xa0>
 8002ed0:	6820      	ldr	r0, [r4, #0]
 8002ed2:	b938      	cbnz	r0, 8002ee4 <__pow5mult+0x9c>
 8002ed4:	4622      	mov	r2, r4
 8002ed6:	4621      	mov	r1, r4
 8002ed8:	4638      	mov	r0, r7
 8002eda:	f7ff ff0d 	bl	8002cf8 <__multiply>
 8002ede:	6020      	str	r0, [r4, #0]
 8002ee0:	f8c0 9000 	str.w	r9, [r0]
 8002ee4:	4604      	mov	r4, r0
 8002ee6:	e7e4      	b.n	8002eb2 <__pow5mult+0x6a>
 8002ee8:	4630      	mov	r0, r6
 8002eea:	e8bd 83f8 	ldmia.w	sp!, {r3, r4, r5, r6, r7, r8, r9, pc}
 8002eee:	bf00      	nop
 8002ef0:	08003ab4 	.word	0x08003ab4
 8002ef4:	080039d9 	.word	0x080039d9
 8002ef8:	08003a59 	.word	0x08003a59

08002efc <__lshift>:
 8002efc:	e92d 47f0 	stmdb	sp!, {r4, r5, r6, r7, r8, r9, sl, lr}
 8002f00:	460c      	mov	r4, r1
 8002f02:	4607      	mov	r7, r0
 8002f04:	4691      	mov	r9, r2
 8002f06:	6923      	ldr	r3, [r4, #16]
 8002f08:	6849      	ldr	r1, [r1, #4]
 8002f0a:	eb03 1862 	add.w	r8, r3, r2, asr #5
 8002f0e:	68a3      	ldr	r3, [r4, #8]
 8002f10:	ea4f 1a62 	mov.w	sl, r2, asr #5
 8002f14:	f108 0601 	add.w	r6, r8, #1
 8002f18:	42b3      	cmp	r3, r6
 8002f1a:	db0b      	blt.n	8002f34 <__lshift+0x38>
 8002f1c:	4638      	mov	r0, r7
 8002f1e:	f7ff fde1 	bl	8002ae4 <_Balloc>
 8002f22:	4605      	mov	r5, r0
 8002f24:	b948      	cbnz	r0, 8002f3a <__lshift+0x3e>
 8002f26:	4602      	mov	r2, r0
 8002f28:	f44f 71ef 	mov.w	r1, #478	@ 0x1de
 8002f2c:	4b27      	ldr	r3, [pc, #156]	@ (8002fcc <__lshift+0xd0>)
 8002f2e:	4828      	ldr	r0, [pc, #160]	@ (8002fd0 <__lshift+0xd4>)
 8002f30:	f000 fa1e 	bl	8003370 <__assert_func>
 8002f34:	3101      	adds	r1, #1
 8002f36:	005b      	lsls	r3, r3, #1
 8002f38:	e7ee      	b.n	8002f18 <__lshift+0x1c>
 8002f3a:	2300      	movs	r3, #0
 8002f3c:	f100 0114 	add.w	r1, r0, #20
 8002f40:	f100 0210 	add.w	r2, r0, #16
 8002f44:	4618      	mov	r0, r3
 8002f46:	4553      	cmp	r3, sl
 8002f48:	db33      	blt.n	8002fb2 <__lshift+0xb6>
 8002f4a:	6920      	ldr	r0, [r4, #16]
 8002f4c:	ea2a 7aea 	bic.w	sl, sl, sl, asr #31
 8002f50:	f104 0314 	add.w	r3, r4, #20
 8002f54:	f019 091f 	ands.w	r9, r9, #31
 8002f58:	eb01 018a 	add.w	r1, r1, sl, lsl #2
 8002f5c:	eb03 0c80 	add.w	ip, r3, r0, lsl #2
 8002f60:	d02b      	beq.n	8002fba <__lshift+0xbe>
 8002f62:	468a      	mov	sl, r1
 8002f64:	2200      	movs	r2, #0
 8002f66:	f1c9 0e20 	rsb	lr, r9, #32
 8002f6a:	6818      	ldr	r0, [r3, #0]
 8002f6c:	fa00 f009 	lsl.w	r0, r0, r9
 8002f70:	4310      	orrs	r0, r2
 8002f72:	f84a 0b04 	str.w	r0, [sl], #4
 8002f76:	f853 2b04 	ldr.w	r2, [r3], #4
 8002f7a:	459c      	cmp	ip, r3
 8002f7c:	fa22 f20e 	lsr.w	r2, r2, lr
 8002f80:	d8f3      	bhi.n	8002f6a <__lshift+0x6e>
 8002f82:	ebac 0304 	sub.w	r3, ip, r4
 8002f86:	3b15      	subs	r3, #21
 8002f88:	f023 0303 	bic.w	r3, r3, #3
 8002f8c:	3304      	adds	r3, #4
 8002f8e:	f104 0015 	add.w	r0, r4, #21
 8002f92:	4584      	cmp	ip, r0
 8002f94:	bf38      	it	cc
 8002f96:	2304      	movcc	r3, #4
 8002f98:	50ca      	str	r2, [r1, r3]
 8002f9a:	b10a      	cbz	r2, 8002fa0 <__lshift+0xa4>
 8002f9c:	f108 0602 	add.w	r6, r8, #2
 8002fa0:	3e01      	subs	r6, #1
 8002fa2:	4638      	mov	r0, r7
 8002fa4:	4621      	mov	r1, r4
 8002fa6:	612e      	str	r6, [r5, #16]
 8002fa8:	f7ff fddc 	bl	8002b64 <_Bfree>
 8002fac:	4628      	mov	r0, r5
 8002fae:	e8bd 87f0 	ldmia.w	sp!, {r4, r5, r6, r7, r8, r9, sl, pc}
 8002fb2:	f842 0f04 	str.w	r0, [r2, #4]!
 8002fb6:	3301      	adds	r3, #1
 8002fb8:	e7c5      	b.n	8002f46 <__lshift+0x4a>
 8002fba:	3904      	subs	r1, #4
 8002fbc:	f853 2b04 	ldr.w	r2, [r3], #4
 8002fc0:	459c      	cmp	ip, r3
 8002fc2:	f841 2f04 	str.w	r2, [r1, #4]!
 8002fc6:	d8f9      	bhi.n	8002fbc <__lshift+0xc0>
 8002fc8:	e7ea      	b.n	8002fa0 <__lshift+0xa4>
 8002fca:	bf00      	nop
 8002fcc:	08003a48 	.word	0x08003a48
 8002fd0:	08003a59 	.word	0x08003a59

08002fd4 <__mcmp>:
 8002fd4:	4603      	mov	r3, r0
 8002fd6:	690a      	ldr	r2, [r1, #16]
 8002fd8:	6900      	ldr	r0, [r0, #16]
 8002fda:	b530      	push	{r4, r5, lr}
 8002fdc:	1a80      	subs	r0, r0, r2
 8002fde:	d10e      	bne.n	8002ffe <__mcmp+0x2a>
 8002fe0:	3314      	adds	r3, #20
 8002fe2:	3114      	adds	r1, #20
 8002fe4:	eb03 0482 	add.w	r4, r3, r2, lsl #2
 8002fe8:	eb01 0182 	add.w	r1, r1, r2, lsl #2
 8002fec:	f854 5d04 	ldr.w	r5, [r4, #-4]!
 8002ff0:	f851 2d04 	ldr.w	r2, [r1, #-4]!
 8002ff4:	4295      	cmp	r5, r2
 8002ff6:	d003      	beq.n	8003000 <__mcmp+0x2c>
 8002ff8:	d205      	bcs.n	8003006 <__mcmp+0x32>
 8002ffa:	f04f 30ff 	mov.w	r0, #4294967295
 8002ffe:	bd30      	pop	{r4, r5, pc}
 8003000:	42a3      	cmp	r3, r4
 8003002:	d3f3      	bcc.n	8002fec <__mcmp+0x18>
 8003004:	e7fb      	b.n	8002ffe <__mcmp+0x2a>
 8003006:	2001      	movs	r0, #1
 8003008:	e7f9      	b.n	8002ffe <__mcmp+0x2a>
	...

0800300c <__mdiff>:
 800300c:	e92d 4ff7 	stmdb	sp!, {r0, r1, r2, r4, r5, r6, r7, r8, r9, sl, fp, lr}
 8003010:	4689      	mov	r9, r1
 8003012:	4606      	mov	r6, r0
 8003014:	4611      	mov	r1, r2
 8003016:	4648      	mov	r0, r9
 8003018:	4614      	mov	r4, r2
 800301a:	f7ff ffdb 	bl	8002fd4 <__mcmp>
 800301e:	1e05      	subs	r5, r0, #0
 8003020:	d112      	bne.n	8003048 <__mdiff+0x3c>
 8003022:	4629      	mov	r1, r5
 8003024:	4630      	mov	r0, r6
 8003026:	f7ff fd5d 	bl	8002ae4 <_Balloc>
 800302a:	4602      	mov	r2, r0
 800302c:	b928      	cbnz	r0, 800303a <__mdiff+0x2e>
 800302e:	f240 2137 	movw	r1, #567	@ 0x237
 8003032:	4b3e      	ldr	r3, [pc, #248]	@ (800312c <__mdiff+0x120>)
 8003034:	483e      	ldr	r0, [pc, #248]	@ (8003130 <__mdiff+0x124>)
 8003036:	f000 f99b 	bl	8003370 <__assert_func>
 800303a:	2301      	movs	r3, #1
 800303c:	e9c0 3504 	strd	r3, r5, [r0, #16]
 8003040:	4610      	mov	r0, r2
 8003042:	b003      	add	sp, #12
 8003044:	e8bd 8ff0 	ldmia.w	sp!, {r4, r5, r6, r7, r8, r9, sl, fp, pc}
 8003048:	bfbc      	itt	lt
 800304a:	464b      	movlt	r3, r9
 800304c:	46a1      	movlt	r9, r4
 800304e:	4630      	mov	r0, r6
 8003050:	f8d9 1004 	ldr.w	r1, [r9, #4]
 8003054:	bfba      	itte	lt
 8003056:	461c      	movlt	r4, r3
 8003058:	2501      	movlt	r5, #1
 800305a:	2500      	movge	r5, #0
 800305c:	f7ff fd42 	bl	8002ae4 <_Balloc>
 8003060:	4602      	mov	r2, r0
 8003062:	b918      	cbnz	r0, 800306c <__mdiff+0x60>
 8003064:	f240 2145 	movw	r1, #581	@ 0x245
 8003068:	4b30      	ldr	r3, [pc, #192]	@ (800312c <__mdiff+0x120>)
 800306a:	e7e3      	b.n	8003034 <__mdiff+0x28>
 800306c:	f100 0b14 	add.w	fp, r0, #20
 8003070:	f8d9 7010 	ldr.w	r7, [r9, #16]
 8003074:	f109 0310 	add.w	r3, r9, #16
 8003078:	60c5      	str	r5, [r0, #12]
 800307a:	f04f 0c00 	mov.w	ip, #0
 800307e:	f109 0514 	add.w	r5, r9, #20
 8003082:	46d9      	mov	r9, fp
 8003084:	6926      	ldr	r6, [r4, #16]
 8003086:	f104 0e14 	add.w	lr, r4, #20
 800308a:	eb05 0887 	add.w	r8, r5, r7, lsl #2
 800308e:	eb0e 0686 	add.w	r6, lr, r6, lsl #2
 8003092:	9301      	str	r3, [sp, #4]
 8003094:	9b01      	ldr	r3, [sp, #4]
 8003096:	f85e 0b04 	ldr.w	r0, [lr], #4
 800309a:	f853 af04 	ldr.w	sl, [r3, #4]!
 800309e:	b281      	uxth	r1, r0
 80030a0:	9301      	str	r3, [sp, #4]
 80030a2:	fa1f f38a 	uxth.w	r3, sl
 80030a6:	1a5b      	subs	r3, r3, r1
 80030a8:	0c00      	lsrs	r0, r0, #16
 80030aa:	4463      	add	r3, ip
 80030ac:	ebc0 401a 	rsb	r0, r0, sl, lsr #16
 80030b0:	eb00 4023 	add.w	r0, r0, r3, asr #16
 80030b4:	b29b      	uxth	r3, r3
 80030b6:	ea43 4300 	orr.w	r3, r3, r0, lsl #16
 80030ba:	4576      	cmp	r6, lr
 80030bc:	ea4f 4c20 	mov.w	ip, r0, asr #16
 80030c0:	f849 3b04 	str.w	r3, [r9], #4
 80030c4:	d8e6      	bhi.n	8003094 <__mdiff+0x88>
 80030c6:	1b33      	subs	r3, r6, r4
 80030c8:	3b15      	subs	r3, #21
 80030ca:	f023 0303 	bic.w	r3, r3, #3
 80030ce:	3415      	adds	r4, #21
 80030d0:	3304      	adds	r3, #4
 80030d2:	42a6      	cmp	r6, r4
 80030d4:	bf38      	it	cc
 80030d6:	2304      	movcc	r3, #4
 80030d8:	441d      	add	r5, r3
 80030da:	445b      	add	r3, fp
 80030dc:	461e      	mov	r6, r3
 80030de:	462c      	mov	r4, r5
 80030e0:	4544      	cmp	r4, r8
 80030e2:	d30e      	bcc.n	8003102 <__mdiff+0xf6>
 80030e4:	f108 0103 	add.w	r1, r8, #3
 80030e8:	1b49      	subs	r1, r1, r5
 80030ea:	f021 0103 	bic.w	r1, r1, #3
 80030ee:	3d03      	subs	r5, #3
 80030f0:	45a8      	cmp	r8, r5
 80030f2:	bf38      	it	cc
 80030f4:	2100      	movcc	r1, #0
 80030f6:	440b      	add	r3, r1
 80030f8:	f853 1d04 	ldr.w	r1, [r3, #-4]!
 80030fc:	b199      	cbz	r1, 8003126 <__mdiff+0x11a>
 80030fe:	6117      	str	r7, [r2, #16]
 8003100:	e79e      	b.n	8003040 <__mdiff+0x34>
 8003102:	46e6      	mov	lr, ip
 8003104:	f854 1b04 	ldr.w	r1, [r4], #4
 8003108:	fa1f fc81 	uxth.w	ip, r1
 800310c:	44f4      	add	ip, lr
 800310e:	0c08      	lsrs	r0, r1, #16
 8003110:	4471      	add	r1, lr
 8003112:	eb00 402c 	add.w	r0, r0, ip, asr #16
 8003116:	b289      	uxth	r1, r1
 8003118:	ea41 4100 	orr.w	r1, r1, r0, lsl #16
 800311c:	ea4f 4c20 	mov.w	ip, r0, asr #16
 8003120:	f846 1b04 	str.w	r1, [r6], #4
 8003124:	e7dc      	b.n	80030e0 <__mdiff+0xd4>
 8003126:	3f01      	subs	r7, #1
 8003128:	e7e6      	b.n	80030f8 <__mdiff+0xec>
 800312a:	bf00      	nop
 800312c:	08003a48 	.word	0x08003a48
 8003130:	08003a59 	.word	0x08003a59

08003134 <__d2b>:
 8003134:	e92d 4373 	stmdb	sp!, {r0, r1, r4, r5, r6, r8, r9, lr}
 8003138:	2101      	movs	r1, #1
 800313a:	4690      	mov	r8, r2
 800313c:	4699      	mov	r9, r3
 800313e:	9e08      	ldr	r6, [sp, #32]
 8003140:	f7ff fcd0 	bl	8002ae4 <_Balloc>
 8003144:	4604      	mov	r4, r0
 8003146:	b930      	cbnz	r0, 8003156 <__d2b+0x22>
 8003148:	4602      	mov	r2, r0
 800314a:	f240 310f 	movw	r1, #783	@ 0x30f
 800314e:	4b23      	ldr	r3, [pc, #140]	@ (80031dc <__d2b+0xa8>)
 8003150:	4823      	ldr	r0, [pc, #140]	@ (80031e0 <__d2b+0xac>)
 8003152:	f000 f90d 	bl	8003370 <__assert_func>
 8003156:	f3c9 550a 	ubfx	r5, r9, #20, #11
 800315a:	f3c9 0313 	ubfx	r3, r9, #0, #20
 800315e:	b10d      	cbz	r5, 8003164 <__d2b+0x30>
 8003160:	f443 1380 	orr.w	r3, r3, #1048576	@ 0x100000
 8003164:	9301      	str	r3, [sp, #4]
 8003166:	f1b8 0300 	subs.w	r3, r8, #0
 800316a:	d024      	beq.n	80031b6 <__d2b+0x82>
 800316c:	4668      	mov	r0, sp
 800316e:	9300      	str	r3, [sp, #0]
 8003170:	f7ff fd7f 	bl	8002c72 <__lo0bits>
 8003174:	e9dd 1200 	ldrd	r1, r2, [sp]
 8003178:	b1d8      	cbz	r0, 80031b2 <__d2b+0x7e>
 800317a:	f1c0 0320 	rsb	r3, r0, #32
 800317e:	fa02 f303 	lsl.w	r3, r2, r3
 8003182:	430b      	orrs	r3, r1
 8003184:	40c2      	lsrs	r2, r0
 8003186:	6163      	str	r3, [r4, #20]
 8003188:	9201      	str	r2, [sp, #4]
 800318a:	9b01      	ldr	r3, [sp, #4]
 800318c:	2b00      	cmp	r3, #0
 800318e:	bf0c      	ite	eq
 8003190:	2201      	moveq	r2, #1
 8003192:	2202      	movne	r2, #2
 8003194:	61a3      	str	r3, [r4, #24]
 8003196:	6122      	str	r2, [r4, #16]
 8003198:	b1ad      	cbz	r5, 80031c6 <__d2b+0x92>
 800319a:	f2a5 4533 	subw	r5, r5, #1075	@ 0x433
 800319e:	4405      	add	r5, r0
 80031a0:	6035      	str	r5, [r6, #0]
 80031a2:	f1c0 0035 	rsb	r0, r0, #53	@ 0x35
 80031a6:	9b09      	ldr	r3, [sp, #36]	@ 0x24
 80031a8:	6018      	str	r0, [r3, #0]
 80031aa:	4620      	mov	r0, r4
 80031ac:	b002      	add	sp, #8
 80031ae:	e8bd 8370 	ldmia.w	sp!, {r4, r5, r6, r8, r9, pc}
 80031b2:	6161      	str	r1, [r4, #20]
 80031b4:	e7e9      	b.n	800318a <__d2b+0x56>
 80031b6:	a801      	add	r0, sp, #4
 80031b8:	f7ff fd5b 	bl	8002c72 <__lo0bits>
 80031bc:	9b01      	ldr	r3, [sp, #4]
 80031be:	2201      	movs	r2, #1
 80031c0:	6163      	str	r3, [r4, #20]
 80031c2:	3020      	adds	r0, #32
 80031c4:	e7e7      	b.n	8003196 <__d2b+0x62>
 80031c6:	f2a0 4032 	subw	r0, r0, #1074	@ 0x432
 80031ca:	eb04 0382 	add.w	r3, r4, r2, lsl #2
 80031ce:	6030      	str	r0, [r6, #0]
 80031d0:	6918      	ldr	r0, [r3, #16]
 80031d2:	f7ff fd2f 	bl	8002c34 <__hi0bits>
 80031d6:	ebc0 1042 	rsb	r0, r0, r2, lsl #5
 80031da:	e7e4      	b.n	80031a6 <__d2b+0x72>
 80031dc:	08003a48 	.word	0x08003a48
 80031e0:	08003a59 	.word	0x08003a59

080031e4 <__sflush_r>:
 80031e4:	f9b1 200c 	ldrsh.w	r2, [r1, #12]
 80031e8:	b5f8      	push	{r3, r4, r5, r6, r7, lr}
 80031ea:	0716      	lsls	r6, r2, #28
 80031ec:	4605      	mov	r5, r0
 80031ee:	460c      	mov	r4, r1
 80031f0:	d454      	bmi.n	800329c <__sflush_r+0xb8>
 80031f2:	684b      	ldr	r3, [r1, #4]
 80031f4:	2b00      	cmp	r3, #0
 80031f6:	dc02      	bgt.n	80031fe <__sflush_r+0x1a>
 80031f8:	6c0b      	ldr	r3, [r1, #64]	@ 0x40
 80031fa:	2b00      	cmp	r3, #0
 80031fc:	dd48      	ble.n	8003290 <__sflush_r+0xac>
 80031fe:	6ae6      	ldr	r6, [r4, #44]	@ 0x2c
 8003200:	2e00      	cmp	r6, #0
 8003202:	d045      	beq.n	8003290 <__sflush_r+0xac>
 8003204:	2300      	movs	r3, #0
 8003206:	f412 5280 	ands.w	r2, r2, #4096	@ 0x1000
 800320a:	682f      	ldr	r7, [r5, #0]
 800320c:	6a21      	ldr	r1, [r4, #32]
 800320e:	602b      	str	r3, [r5, #0]
 8003210:	d030      	beq.n	8003274 <__sflush_r+0x90>
 8003212:	6d62      	ldr	r2, [r4, #84]	@ 0x54
 8003214:	89a3      	ldrh	r3, [r4, #12]
 8003216:	0759      	lsls	r1, r3, #29
 8003218:	d505      	bpl.n	8003226 <__sflush_r+0x42>
 800321a:	6863      	ldr	r3, [r4, #4]
 800321c:	1ad2      	subs	r2, r2, r3
 800321e:	6b63      	ldr	r3, [r4, #52]	@ 0x34
 8003220:	b10b      	cbz	r3, 8003226 <__sflush_r+0x42>
 8003222:	6c23      	ldr	r3, [r4, #64]	@ 0x40
 8003224:	1ad2      	subs	r2, r2, r3
 8003226:	2300      	movs	r3, #0
 8003228:	4628      	mov	r0, r5
 800322a:	6ae6      	ldr	r6, [r4, #44]	@ 0x2c
 800322c:	6a21      	ldr	r1, [r4, #32]
 800322e:	47b0      	blx	r6
 8003230:	1c43      	adds	r3, r0, #1
 8003232:	89a3      	ldrh	r3, [r4, #12]
 8003234:	d106      	bne.n	8003244 <__sflush_r+0x60>
 8003236:	6829      	ldr	r1, [r5, #0]
 8003238:	291d      	cmp	r1, #29
 800323a:	d82b      	bhi.n	8003294 <__sflush_r+0xb0>
 800323c:	4a28      	ldr	r2, [pc, #160]	@ (80032e0 <__sflush_r+0xfc>)
 800323e:	410a      	asrs	r2, r1
 8003240:	07d6      	lsls	r6, r2, #31
 8003242:	d427      	bmi.n	8003294 <__sflush_r+0xb0>
 8003244:	2200      	movs	r2, #0
 8003246:	6062      	str	r2, [r4, #4]
 8003248:	6922      	ldr	r2, [r4, #16]
 800324a:	04d9      	lsls	r1, r3, #19
 800324c:	6022      	str	r2, [r4, #0]
 800324e:	d504      	bpl.n	800325a <__sflush_r+0x76>
 8003250:	1c42      	adds	r2, r0, #1
 8003252:	d101      	bne.n	8003258 <__sflush_r+0x74>
 8003254:	682b      	ldr	r3, [r5, #0]
 8003256:	b903      	cbnz	r3, 800325a <__sflush_r+0x76>
 8003258:	6560      	str	r0, [r4, #84]	@ 0x54
 800325a:	6b61      	ldr	r1, [r4, #52]	@ 0x34
 800325c:	602f      	str	r7, [r5, #0]
 800325e:	b1b9      	cbz	r1, 8003290 <__sflush_r+0xac>
 8003260:	f104 0344 	add.w	r3, r4, #68	@ 0x44
 8003264:	4299      	cmp	r1, r3
 8003266:	d002      	beq.n	800326e <__sflush_r+0x8a>
 8003268:	4628      	mov	r0, r5
 800326a:	f7ff fb3d 	bl	80028e8 <_free_r>
 800326e:	2300      	movs	r3, #0
 8003270:	6363      	str	r3, [r4, #52]	@ 0x34
 8003272:	e00d      	b.n	8003290 <__sflush_r+0xac>
 8003274:	2301      	movs	r3, #1
 8003276:	4628      	mov	r0, r5
 8003278:	47b0      	blx	r6
 800327a:	4602      	mov	r2, r0
 800327c:	1c50      	adds	r0, r2, #1
 800327e:	d1c9      	bne.n	8003214 <__sflush_r+0x30>
 8003280:	682b      	ldr	r3, [r5, #0]
 8003282:	2b00      	cmp	r3, #0
 8003284:	d0c6      	beq.n	8003214 <__sflush_r+0x30>
 8003286:	2b1d      	cmp	r3, #29
 8003288:	d001      	beq.n	800328e <__sflush_r+0xaa>
 800328a:	2b16      	cmp	r3, #22
 800328c:	d11d      	bne.n	80032ca <__sflush_r+0xe6>
 800328e:	602f      	str	r7, [r5, #0]
 8003290:	2000      	movs	r0, #0
 8003292:	e021      	b.n	80032d8 <__sflush_r+0xf4>
 8003294:	f043 0340 	orr.w	r3, r3, #64	@ 0x40
 8003298:	b21b      	sxth	r3, r3
 800329a:	e01a      	b.n	80032d2 <__sflush_r+0xee>
 800329c:	690f      	ldr	r7, [r1, #16]
 800329e:	2f00      	cmp	r7, #0
 80032a0:	d0f6      	beq.n	8003290 <__sflush_r+0xac>
 80032a2:	0793      	lsls	r3, r2, #30
 80032a4:	bf18      	it	ne
 80032a6:	2300      	movne	r3, #0
 80032a8:	680e      	ldr	r6, [r1, #0]
 80032aa:	bf08      	it	eq
 80032ac:	694b      	ldreq	r3, [r1, #20]
 80032ae:	1bf6      	subs	r6, r6, r7
 80032b0:	600f      	str	r7, [r1, #0]
 80032b2:	608b      	str	r3, [r1, #8]
 80032b4:	2e00      	cmp	r6, #0
 80032b6:	ddeb      	ble.n	8003290 <__sflush_r+0xac>
 80032b8:	4633      	mov	r3, r6
 80032ba:	463a      	mov	r2, r7
 80032bc:	4628      	mov	r0, r5
 80032be:	6a21      	ldr	r1, [r4, #32]
 80032c0:	f8d4 c028 	ldr.w	ip, [r4, #40]	@ 0x28
 80032c4:	47e0      	blx	ip
 80032c6:	2800      	cmp	r0, #0
 80032c8:	dc07      	bgt.n	80032da <__sflush_r+0xf6>
 80032ca:	f9b4 300c 	ldrsh.w	r3, [r4, #12]
 80032ce:	f043 0340 	orr.w	r3, r3, #64	@ 0x40
 80032d2:	f04f 30ff 	mov.w	r0, #4294967295
 80032d6:	81a3      	strh	r3, [r4, #12]
 80032d8:	bdf8      	pop	{r3, r4, r5, r6, r7, pc}
 80032da:	4407      	add	r7, r0
 80032dc:	1a36      	subs	r6, r6, r0
 80032de:	e7e9      	b.n	80032b4 <__sflush_r+0xd0>
 80032e0:	dfbffffe 	.word	0xdfbffffe

080032e4 <_fflush_r>:
 80032e4:	b538      	push	{r3, r4, r5, lr}
 80032e6:	690b      	ldr	r3, [r1, #16]
 80032e8:	4605      	mov	r5, r0
 80032ea:	460c      	mov	r4, r1
 80032ec:	b913      	cbnz	r3, 80032f4 <_fflush_r+0x10>
 80032ee:	2500      	movs	r5, #0
 80032f0:	4628      	mov	r0, r5
 80032f2:	bd38      	pop	{r3, r4, r5, pc}
 80032f4:	b118      	cbz	r0, 80032fe <_fflush_r+0x1a>
 80032f6:	6a03      	ldr	r3, [r0, #32]
 80032f8:	b90b      	cbnz	r3, 80032fe <_fflush_r+0x1a>
 80032fa:	f7fe fb9d 	bl	8001a38 <__sinit>
 80032fe:	f9b4 300c 	ldrsh.w	r3, [r4, #12]
 8003302:	2b00      	cmp	r3, #0
 8003304:	d0f3      	beq.n	80032ee <_fflush_r+0xa>
 8003306:	6e62      	ldr	r2, [r4, #100]	@ 0x64
 8003308:	07d0      	lsls	r0, r2, #31
 800330a:	d404      	bmi.n	8003316 <_fflush_r+0x32>
 800330c:	0599      	lsls	r1, r3, #22
 800330e:	d402      	bmi.n	8003316 <_fflush_r+0x32>
 8003310:	6da0      	ldr	r0, [r4, #88]	@ 0x58
 8003312:	f7fe fc88 	bl	8001c26 <__retarget_lock_acquire_recursive>
 8003316:	4628      	mov	r0, r5
 8003318:	4621      	mov	r1, r4
 800331a:	f7ff ff63 	bl	80031e4 <__sflush_r>
 800331e:	6e63      	ldr	r3, [r4, #100]	@ 0x64
 8003320:	4605      	mov	r5, r0
 8003322:	07da      	lsls	r2, r3, #31
 8003324:	d4e4      	bmi.n	80032f0 <_fflush_r+0xc>
 8003326:	89a3      	ldrh	r3, [r4, #12]
 8003328:	059b      	lsls	r3, r3, #22
 800332a:	d4e1      	bmi.n	80032f0 <_fflush_r+0xc>
 800332c:	6da0      	ldr	r0, [r4, #88]	@ 0x58
 800332e:	f7fe fc7b 	bl	8001c28 <__retarget_lock_release_recursive>
 8003332:	e7dd      	b.n	80032f0 <_fflush_r+0xc>

08003334 <_sbrk_r>:
 8003334:	b538      	push	{r3, r4, r5, lr}
 8003336:	2300      	movs	r3, #0
 8003338:	4d05      	ldr	r5, [pc, #20]	@ (8003350 <_sbrk_r+0x1c>)
 800333a:	4604      	mov	r4, r0
 800333c:	4608      	mov	r0, r1
 800333e:	602b      	str	r3, [r5, #0]
 8003340:	f7fd fe32 	bl	8000fa8 <_sbrk>
 8003344:	1c43      	adds	r3, r0, #1
 8003346:	d102      	bne.n	800334e <_sbrk_r+0x1a>
 8003348:	682b      	ldr	r3, [r5, #0]
 800334a:	b103      	cbz	r3, 800334e <_sbrk_r+0x1a>
 800334c:	6023      	str	r3, [r4, #0]
 800334e:	bd38      	pop	{r3, r4, r5, pc}
 8003350:	20000538 	.word	0x20000538

08003354 <memcpy>:
 8003354:	440a      	add	r2, r1
 8003356:	4291      	cmp	r1, r2
 8003358:	f100 33ff 	add.w	r3, r0, #4294967295
 800335c:	d100      	bne.n	8003360 <memcpy+0xc>
 800335e:	4770      	bx	lr
 8003360:	b510      	push	{r4, lr}
 8003362:	f811 4b01 	ldrb.w	r4, [r1], #1
 8003366:	4291      	cmp	r1, r2
 8003368:	f803 4f01 	strb.w	r4, [r3, #1]!
 800336c:	d1f9      	bne.n	8003362 <memcpy+0xe>
 800336e:	bd10      	pop	{r4, pc}

08003370 <__assert_func>:
 8003370:	b51f      	push	{r0, r1, r2, r3, r4, lr}
 8003372:	4614      	mov	r4, r2
 8003374:	461a      	mov	r2, r3
 8003376:	4b09      	ldr	r3, [pc, #36]	@ (800339c <__assert_func+0x2c>)
 8003378:	4605      	mov	r5, r0
 800337a:	681b      	ldr	r3, [r3, #0]
 800337c:	68d8      	ldr	r0, [r3, #12]
 800337e:	b954      	cbnz	r4, 8003396 <__assert_func+0x26>
 8003380:	4b07      	ldr	r3, [pc, #28]	@ (80033a0 <__assert_func+0x30>)
 8003382:	461c      	mov	r4, r3
 8003384:	e9cd 3401 	strd	r3, r4, [sp, #4]
 8003388:	9100      	str	r1, [sp, #0]
 800338a:	462b      	mov	r3, r5
 800338c:	4905      	ldr	r1, [pc, #20]	@ (80033a4 <__assert_func+0x34>)
 800338e:	f000 f841 	bl	8003414 <fiprintf>
 8003392:	f000 f851 	bl	8003438 <abort>
 8003396:	4b04      	ldr	r3, [pc, #16]	@ (80033a8 <__assert_func+0x38>)
 8003398:	e7f4      	b.n	8003384 <__assert_func+0x14>
 800339a:	bf00      	nop
 800339c:	20000018 	.word	0x20000018
 80033a0:	08003bf5 	.word	0x08003bf5
 80033a4:	08003bc7 	.word	0x08003bc7
 80033a8:	08003bba 	.word	0x08003bba

080033ac <_calloc_r>:
 80033ac:	b570      	push	{r4, r5, r6, lr}
 80033ae:	fba1 5402 	umull	r5, r4, r1, r2
 80033b2:	b93c      	cbnz	r4, 80033c4 <_calloc_r+0x18>
 80033b4:	4629      	mov	r1, r5
 80033b6:	f7ff fb09 	bl	80029cc <_malloc_r>
 80033ba:	4606      	mov	r6, r0
 80033bc:	b928      	cbnz	r0, 80033ca <_calloc_r+0x1e>
 80033be:	2600      	movs	r6, #0
 80033c0:	4630      	mov	r0, r6
 80033c2:	bd70      	pop	{r4, r5, r6, pc}
 80033c4:	220c      	movs	r2, #12
 80033c6:	6002      	str	r2, [r0, #0]
 80033c8:	e7f9      	b.n	80033be <_calloc_r+0x12>
 80033ca:	462a      	mov	r2, r5
 80033cc:	4621      	mov	r1, r4
 80033ce:	f7fe fbac 	bl	8001b2a <memset>
 80033d2:	e7f5      	b.n	80033c0 <_calloc_r+0x14>

080033d4 <__ascii_mbtowc>:
 80033d4:	b082      	sub	sp, #8
 80033d6:	b901      	cbnz	r1, 80033da <__ascii_mbtowc+0x6>
 80033d8:	a901      	add	r1, sp, #4
 80033da:	b142      	cbz	r2, 80033ee <__ascii_mbtowc+0x1a>
 80033dc:	b14b      	cbz	r3, 80033f2 <__ascii_mbtowc+0x1e>
 80033de:	7813      	ldrb	r3, [r2, #0]
 80033e0:	600b      	str	r3, [r1, #0]
 80033e2:	7812      	ldrb	r2, [r2, #0]
 80033e4:	1e10      	subs	r0, r2, #0
 80033e6:	bf18      	it	ne
 80033e8:	2001      	movne	r0, #1
 80033ea:	b002      	add	sp, #8
 80033ec:	4770      	bx	lr
 80033ee:	4610      	mov	r0, r2
 80033f0:	e7fb      	b.n	80033ea <__ascii_mbtowc+0x16>
 80033f2:	f06f 0001 	mvn.w	r0, #1
 80033f6:	e7f8      	b.n	80033ea <__ascii_mbtowc+0x16>

080033f8 <__ascii_wctomb>:
 80033f8:	4603      	mov	r3, r0
 80033fa:	4608      	mov	r0, r1
 80033fc:	b141      	cbz	r1, 8003410 <__ascii_wctomb+0x18>
 80033fe:	2aff      	cmp	r2, #255	@ 0xff
 8003400:	d904      	bls.n	800340c <__ascii_wctomb+0x14>
 8003402:	228a      	movs	r2, #138	@ 0x8a
 8003404:	f04f 30ff 	mov.w	r0, #4294967295
 8003408:	601a      	str	r2, [r3, #0]
 800340a:	4770      	bx	lr
 800340c:	2001      	movs	r0, #1
 800340e:	700a      	strb	r2, [r1, #0]
 8003410:	4770      	bx	lr
	...

08003414 <fiprintf>:
 8003414:	b40e      	push	{r1, r2, r3}
 8003416:	b503      	push	{r0, r1, lr}
 8003418:	4601      	mov	r1, r0
 800341a:	ab03      	add	r3, sp, #12
 800341c:	4805      	ldr	r0, [pc, #20]	@ (8003434 <fiprintf+0x20>)
 800341e:	f853 2b04 	ldr.w	r2, [r3], #4
 8003422:	6800      	ldr	r0, [r0, #0]
 8003424:	9301      	str	r3, [sp, #4]
 8003426:	f000 f835 	bl	8003494 <_vfiprintf_r>
 800342a:	b002      	add	sp, #8
 800342c:	f85d eb04 	ldr.w	lr, [sp], #4
 8003430:	b003      	add	sp, #12
 8003432:	4770      	bx	lr
 8003434:	20000018 	.word	0x20000018

08003438 <abort>:
 8003438:	2006      	movs	r0, #6
 800343a:	b508      	push	{r3, lr}
 800343c:	f000 f9fe 	bl	800383c <raise>
 8003440:	2001      	movs	r0, #1
 8003442:	f7fd fd3d 	bl	8000ec0 <_exit>

08003446 <__sfputc_r>:
 8003446:	6893      	ldr	r3, [r2, #8]
 8003448:	b410      	push	{r4}
 800344a:	3b01      	subs	r3, #1
 800344c:	2b00      	cmp	r3, #0
 800344e:	6093      	str	r3, [r2, #8]
 8003450:	da07      	bge.n	8003462 <__sfputc_r+0x1c>
 8003452:	6994      	ldr	r4, [r2, #24]
 8003454:	42a3      	cmp	r3, r4
 8003456:	db01      	blt.n	800345c <__sfputc_r+0x16>
 8003458:	290a      	cmp	r1, #10
 800345a:	d102      	bne.n	8003462 <__sfputc_r+0x1c>
 800345c:	bc10      	pop	{r4}
 800345e:	f000 b931 	b.w	80036c4 <__swbuf_r>
 8003462:	6813      	ldr	r3, [r2, #0]
 8003464:	1c58      	adds	r0, r3, #1
 8003466:	6010      	str	r0, [r2, #0]
 8003468:	7019      	strb	r1, [r3, #0]
 800346a:	4608      	mov	r0, r1
 800346c:	bc10      	pop	{r4}
 800346e:	4770      	bx	lr

08003470 <__sfputs_r>:
 8003470:	b5f8      	push	{r3, r4, r5, r6, r7, lr}
 8003472:	4606      	mov	r6, r0
 8003474:	460f      	mov	r7, r1
 8003476:	4614      	mov	r4, r2
 8003478:	18d5      	adds	r5, r2, r3
 800347a:	42ac      	cmp	r4, r5
 800347c:	d101      	bne.n	8003482 <__sfputs_r+0x12>
 800347e:	2000      	movs	r0, #0
 8003480:	e007      	b.n	8003492 <__sfputs_r+0x22>
 8003482:	463a      	mov	r2, r7
 8003484:	4630      	mov	r0, r6
 8003486:	f814 1b01 	ldrb.w	r1, [r4], #1
 800348a:	f7ff ffdc 	bl	8003446 <__sfputc_r>
 800348e:	1c43      	adds	r3, r0, #1
 8003490:	d1f3      	bne.n	800347a <__sfputs_r+0xa>
 8003492:	bdf8      	pop	{r3, r4, r5, r6, r7, pc}

08003494 <_vfiprintf_r>:
 8003494:	e92d 4ff0 	stmdb	sp!, {r4, r5, r6, r7, r8, r9, sl, fp, lr}
 8003498:	460d      	mov	r5, r1
 800349a:	4614      	mov	r4, r2
 800349c:	4698      	mov	r8, r3
 800349e:	4606      	mov	r6, r0
 80034a0:	b09d      	sub	sp, #116	@ 0x74
 80034a2:	b118      	cbz	r0, 80034ac <_vfiprintf_r+0x18>
 80034a4:	6a03      	ldr	r3, [r0, #32]
 80034a6:	b90b      	cbnz	r3, 80034ac <_vfiprintf_r+0x18>
 80034a8:	f7fe fac6 	bl	8001a38 <__sinit>
 80034ac:	6e6b      	ldr	r3, [r5, #100]	@ 0x64
 80034ae:	07d9      	lsls	r1, r3, #31
 80034b0:	d405      	bmi.n	80034be <_vfiprintf_r+0x2a>
 80034b2:	89ab      	ldrh	r3, [r5, #12]
 80034b4:	059a      	lsls	r2, r3, #22
 80034b6:	d402      	bmi.n	80034be <_vfiprintf_r+0x2a>
 80034b8:	6da8      	ldr	r0, [r5, #88]	@ 0x58
 80034ba:	f7fe fbb4 	bl	8001c26 <__retarget_lock_acquire_recursive>
 80034be:	89ab      	ldrh	r3, [r5, #12]
 80034c0:	071b      	lsls	r3, r3, #28
 80034c2:	d501      	bpl.n	80034c8 <_vfiprintf_r+0x34>
 80034c4:	692b      	ldr	r3, [r5, #16]
 80034c6:	b99b      	cbnz	r3, 80034f0 <_vfiprintf_r+0x5c>
 80034c8:	4629      	mov	r1, r5
 80034ca:	4630      	mov	r0, r6
 80034cc:	f000 f938 	bl	8003740 <__swsetup_r>
 80034d0:	b170      	cbz	r0, 80034f0 <_vfiprintf_r+0x5c>
 80034d2:	6e6b      	ldr	r3, [r5, #100]	@ 0x64
 80034d4:	07dc      	lsls	r4, r3, #31
 80034d6:	d504      	bpl.n	80034e2 <_vfiprintf_r+0x4e>
 80034d8:	f04f 30ff 	mov.w	r0, #4294967295
 80034dc:	b01d      	add	sp, #116	@ 0x74
 80034de:	e8bd 8ff0 	ldmia.w	sp!, {r4, r5, r6, r7, r8, r9, sl, fp, pc}
 80034e2:	89ab      	ldrh	r3, [r5, #12]
 80034e4:	0598      	lsls	r0, r3, #22
 80034e6:	d4f7      	bmi.n	80034d8 <_vfiprintf_r+0x44>
 80034e8:	6da8      	ldr	r0, [r5, #88]	@ 0x58
 80034ea:	f7fe fb9d 	bl	8001c28 <__retarget_lock_release_recursive>
 80034ee:	e7f3      	b.n	80034d8 <_vfiprintf_r+0x44>
 80034f0:	2300      	movs	r3, #0
 80034f2:	9309      	str	r3, [sp, #36]	@ 0x24
 80034f4:	2320      	movs	r3, #32
 80034f6:	f88d 3029 	strb.w	r3, [sp, #41]	@ 0x29
 80034fa:	2330      	movs	r3, #48	@ 0x30
 80034fc:	f04f 0901 	mov.w	r9, #1
 8003500:	f8cd 800c 	str.w	r8, [sp, #12]
 8003504:	f8df 81a8 	ldr.w	r8, [pc, #424]	@ 80036b0 <_vfiprintf_r+0x21c>
 8003508:	f88d 302a 	strb.w	r3, [sp, #42]	@ 0x2a
 800350c:	4623      	mov	r3, r4
 800350e:	469a      	mov	sl, r3
 8003510:	f813 2b01 	ldrb.w	r2, [r3], #1
 8003514:	b10a      	cbz	r2, 800351a <_vfiprintf_r+0x86>
 8003516:	2a25      	cmp	r2, #37	@ 0x25
 8003518:	d1f9      	bne.n	800350e <_vfiprintf_r+0x7a>
 800351a:	ebba 0b04 	subs.w	fp, sl, r4
 800351e:	d00b      	beq.n	8003538 <_vfiprintf_r+0xa4>
 8003520:	465b      	mov	r3, fp
 8003522:	4622      	mov	r2, r4
 8003524:	4629      	mov	r1, r5
 8003526:	4630      	mov	r0, r6
 8003528:	f7ff ffa2 	bl	8003470 <__sfputs_r>
 800352c:	3001      	adds	r0, #1
 800352e:	f000 80a7 	beq.w	8003680 <_vfiprintf_r+0x1ec>
 8003532:	9a09      	ldr	r2, [sp, #36]	@ 0x24
 8003534:	445a      	add	r2, fp
 8003536:	9209      	str	r2, [sp, #36]	@ 0x24
 8003538:	f89a 3000 	ldrb.w	r3, [sl]
 800353c:	2b00      	cmp	r3, #0
 800353e:	f000 809f 	beq.w	8003680 <_vfiprintf_r+0x1ec>
 8003542:	2300      	movs	r3, #0
 8003544:	f04f 32ff 	mov.w	r2, #4294967295
 8003548:	e9cd 2305 	strd	r2, r3, [sp, #20]
 800354c:	f10a 0a01 	add.w	sl, sl, #1
 8003550:	9304      	str	r3, [sp, #16]
 8003552:	9307      	str	r3, [sp, #28]
 8003554:	f88d 3053 	strb.w	r3, [sp, #83]	@ 0x53
 8003558:	931a      	str	r3, [sp, #104]	@ 0x68
 800355a:	4654      	mov	r4, sl
 800355c:	2205      	movs	r2, #5
 800355e:	f814 1b01 	ldrb.w	r1, [r4], #1
 8003562:	4853      	ldr	r0, [pc, #332]	@ (80036b0 <_vfiprintf_r+0x21c>)
 8003564:	f7fe fb61 	bl	8001c2a <memchr>
 8003568:	9a04      	ldr	r2, [sp, #16]
 800356a:	b9d8      	cbnz	r0, 80035a4 <_vfiprintf_r+0x110>
 800356c:	06d1      	lsls	r1, r2, #27
 800356e:	bf44      	itt	mi
 8003570:	2320      	movmi	r3, #32
 8003572:	f88d 3053 	strbmi.w	r3, [sp, #83]	@ 0x53
 8003576:	0713      	lsls	r3, r2, #28
 8003578:	bf44      	itt	mi
 800357a:	232b      	movmi	r3, #43	@ 0x2b
 800357c:	f88d 3053 	strbmi.w	r3, [sp, #83]	@ 0x53
 8003580:	f89a 3000 	ldrb.w	r3, [sl]
 8003584:	2b2a      	cmp	r3, #42	@ 0x2a
 8003586:	d015      	beq.n	80035b4 <_vfiprintf_r+0x120>
 8003588:	4654      	mov	r4, sl
 800358a:	2000      	movs	r0, #0
 800358c:	f04f 0c0a 	mov.w	ip, #10
 8003590:	9a07      	ldr	r2, [sp, #28]
 8003592:	4621      	mov	r1, r4
 8003594:	f811 3b01 	ldrb.w	r3, [r1], #1
 8003598:	3b30      	subs	r3, #48	@ 0x30
 800359a:	2b09      	cmp	r3, #9
 800359c:	d94b      	bls.n	8003636 <_vfiprintf_r+0x1a2>
 800359e:	b1b0      	cbz	r0, 80035ce <_vfiprintf_r+0x13a>
 80035a0:	9207      	str	r2, [sp, #28]
 80035a2:	e014      	b.n	80035ce <_vfiprintf_r+0x13a>
 80035a4:	eba0 0308 	sub.w	r3, r0, r8
 80035a8:	fa09 f303 	lsl.w	r3, r9, r3
 80035ac:	4313      	orrs	r3, r2
 80035ae:	46a2      	mov	sl, r4
 80035b0:	9304      	str	r3, [sp, #16]
 80035b2:	e7d2      	b.n	800355a <_vfiprintf_r+0xc6>
 80035b4:	9b03      	ldr	r3, [sp, #12]
 80035b6:	1d19      	adds	r1, r3, #4
 80035b8:	681b      	ldr	r3, [r3, #0]
 80035ba:	9103      	str	r1, [sp, #12]
 80035bc:	2b00      	cmp	r3, #0
 80035be:	bfbb      	ittet	lt
 80035c0:	425b      	neglt	r3, r3
 80035c2:	f042 0202 	orrlt.w	r2, r2, #2
 80035c6:	9307      	strge	r3, [sp, #28]
 80035c8:	9307      	strlt	r3, [sp, #28]
 80035ca:	bfb8      	it	lt
 80035cc:	9204      	strlt	r2, [sp, #16]
 80035ce:	7823      	ldrb	r3, [r4, #0]
 80035d0:	2b2e      	cmp	r3, #46	@ 0x2e
 80035d2:	d10a      	bne.n	80035ea <_vfiprintf_r+0x156>
 80035d4:	7863      	ldrb	r3, [r4, #1]
 80035d6:	2b2a      	cmp	r3, #42	@ 0x2a
 80035d8:	d132      	bne.n	8003640 <_vfiprintf_r+0x1ac>
 80035da:	9b03      	ldr	r3, [sp, #12]
 80035dc:	3402      	adds	r4, #2
 80035de:	1d1a      	adds	r2, r3, #4
 80035e0:	681b      	ldr	r3, [r3, #0]
 80035e2:	9203      	str	r2, [sp, #12]
 80035e4:	ea43 73e3 	orr.w	r3, r3, r3, asr #31
 80035e8:	9305      	str	r3, [sp, #20]
 80035ea:	f8df a0c8 	ldr.w	sl, [pc, #200]	@ 80036b4 <_vfiprintf_r+0x220>
 80035ee:	2203      	movs	r2, #3
 80035f0:	4650      	mov	r0, sl
 80035f2:	7821      	ldrb	r1, [r4, #0]
 80035f4:	f7fe fb19 	bl	8001c2a <memchr>
 80035f8:	b138      	cbz	r0, 800360a <_vfiprintf_r+0x176>
 80035fa:	2240      	movs	r2, #64	@ 0x40
 80035fc:	9b04      	ldr	r3, [sp, #16]
 80035fe:	eba0 000a 	sub.w	r0, r0, sl
 8003602:	4082      	lsls	r2, r0
 8003604:	4313      	orrs	r3, r2
 8003606:	3401      	adds	r4, #1
 8003608:	9304      	str	r3, [sp, #16]
 800360a:	f814 1b01 	ldrb.w	r1, [r4], #1
 800360e:	2206      	movs	r2, #6
 8003610:	4829      	ldr	r0, [pc, #164]	@ (80036b8 <_vfiprintf_r+0x224>)
 8003612:	f88d 1028 	strb.w	r1, [sp, #40]	@ 0x28
 8003616:	f7fe fb08 	bl	8001c2a <memchr>
 800361a:	2800      	cmp	r0, #0
 800361c:	d03f      	beq.n	800369e <_vfiprintf_r+0x20a>
 800361e:	4b27      	ldr	r3, [pc, #156]	@ (80036bc <_vfiprintf_r+0x228>)
 8003620:	bb1b      	cbnz	r3, 800366a <_vfiprintf_r+0x1d6>
 8003622:	9b03      	ldr	r3, [sp, #12]
 8003624:	3307      	adds	r3, #7
 8003626:	f023 0307 	bic.w	r3, r3, #7
 800362a:	3308      	adds	r3, #8
 800362c:	9303      	str	r3, [sp, #12]
 800362e:	9b09      	ldr	r3, [sp, #36]	@ 0x24
 8003630:	443b      	add	r3, r7
 8003632:	9309      	str	r3, [sp, #36]	@ 0x24
 8003634:	e76a      	b.n	800350c <_vfiprintf_r+0x78>
 8003636:	460c      	mov	r4, r1
 8003638:	2001      	movs	r0, #1
 800363a:	fb0c 3202 	mla	r2, ip, r2, r3
 800363e:	e7a8      	b.n	8003592 <_vfiprintf_r+0xfe>
 8003640:	2300      	movs	r3, #0
 8003642:	f04f 0c0a 	mov.w	ip, #10
 8003646:	4619      	mov	r1, r3
 8003648:	3401      	adds	r4, #1
 800364a:	9305      	str	r3, [sp, #20]
 800364c:	4620      	mov	r0, r4
 800364e:	f810 2b01 	ldrb.w	r2, [r0], #1
 8003652:	3a30      	subs	r2, #48	@ 0x30
 8003654:	2a09      	cmp	r2, #9
 8003656:	d903      	bls.n	8003660 <_vfiprintf_r+0x1cc>
 8003658:	2b00      	cmp	r3, #0
 800365a:	d0c6      	beq.n	80035ea <_vfiprintf_r+0x156>
 800365c:	9105      	str	r1, [sp, #20]
 800365e:	e7c4      	b.n	80035ea <_vfiprintf_r+0x156>
 8003660:	4604      	mov	r4, r0
 8003662:	2301      	movs	r3, #1
 8003664:	fb0c 2101 	mla	r1, ip, r1, r2
 8003668:	e7f0      	b.n	800364c <_vfiprintf_r+0x1b8>
 800366a:	ab03      	add	r3, sp, #12
 800366c:	9300      	str	r3, [sp, #0]
 800366e:	462a      	mov	r2, r5
 8003670:	4630      	mov	r0, r6
 8003672:	4b13      	ldr	r3, [pc, #76]	@ (80036c0 <_vfiprintf_r+0x22c>)
 8003674:	a904      	add	r1, sp, #16
 8003676:	f7fd fd95 	bl	80011a4 <_printf_float>
 800367a:	4607      	mov	r7, r0
 800367c:	1c78      	adds	r0, r7, #1
 800367e:	d1d6      	bne.n	800362e <_vfiprintf_r+0x19a>
 8003680:	6e6b      	ldr	r3, [r5, #100]	@ 0x64
 8003682:	07d9      	lsls	r1, r3, #31
 8003684:	d405      	bmi.n	8003692 <_vfiprintf_r+0x1fe>
 8003686:	89ab      	ldrh	r3, [r5, #12]
 8003688:	059a      	lsls	r2, r3, #22
 800368a:	d402      	bmi.n	8003692 <_vfiprintf_r+0x1fe>
 800368c:	6da8      	ldr	r0, [r5, #88]	@ 0x58
 800368e:	f7fe facb 	bl	8001c28 <__retarget_lock_release_recursive>
 8003692:	89ab      	ldrh	r3, [r5, #12]
 8003694:	065b      	lsls	r3, r3, #25
 8003696:	f53f af1f 	bmi.w	80034d8 <_vfiprintf_r+0x44>
 800369a:	9809      	ldr	r0, [sp, #36]	@ 0x24
 800369c:	e71e      	b.n	80034dc <_vfiprintf_r+0x48>
 800369e:	ab03      	add	r3, sp, #12
 80036a0:	9300      	str	r3, [sp, #0]
 80036a2:	462a      	mov	r2, r5
 80036a4:	4630      	mov	r0, r6
 80036a6:	4b06      	ldr	r3, [pc, #24]	@ (80036c0 <_vfiprintf_r+0x22c>)
 80036a8:	a904      	add	r1, sp, #16
 80036aa:	f7fe f819 	bl	80016e0 <_printf_i>
 80036ae:	e7e4      	b.n	800367a <_vfiprintf_r+0x1e6>
 80036b0:	08003cf7 	.word	0x08003cf7
 80036b4:	08003cfd 	.word	0x08003cfd
 80036b8:	08003d01 	.word	0x08003d01
 80036bc:	080011a5 	.word	0x080011a5
 80036c0:	08003471 	.word	0x08003471

080036c4 <__swbuf_r>:
 80036c4:	b5f8      	push	{r3, r4, r5, r6, r7, lr}
 80036c6:	460e      	mov	r6, r1
 80036c8:	4614      	mov	r4, r2
 80036ca:	4605      	mov	r5, r0
 80036cc:	b118      	cbz	r0, 80036d6 <__swbuf_r+0x12>
 80036ce:	6a03      	ldr	r3, [r0, #32]
 80036d0:	b90b      	cbnz	r3, 80036d6 <__swbuf_r+0x12>
 80036d2:	f7fe f9b1 	bl	8001a38 <__sinit>
 80036d6:	69a3      	ldr	r3, [r4, #24]
 80036d8:	60a3      	str	r3, [r4, #8]
 80036da:	89a3      	ldrh	r3, [r4, #12]
 80036dc:	071a      	lsls	r2, r3, #28
 80036de:	d501      	bpl.n	80036e4 <__swbuf_r+0x20>
 80036e0:	6923      	ldr	r3, [r4, #16]
 80036e2:	b943      	cbnz	r3, 80036f6 <__swbuf_r+0x32>
 80036e4:	4621      	mov	r1, r4
 80036e6:	4628      	mov	r0, r5
 80036e8:	f000 f82a 	bl	8003740 <__swsetup_r>
 80036ec:	b118      	cbz	r0, 80036f6 <__swbuf_r+0x32>
 80036ee:	f04f 37ff 	mov.w	r7, #4294967295
 80036f2:	4638      	mov	r0, r7
 80036f4:	bdf8      	pop	{r3, r4, r5, r6, r7, pc}
 80036f6:	6823      	ldr	r3, [r4, #0]
 80036f8:	6922      	ldr	r2, [r4, #16]
 80036fa:	b2f6      	uxtb	r6, r6
 80036fc:	1a98      	subs	r0, r3, r2
 80036fe:	6963      	ldr	r3, [r4, #20]
 8003700:	4637      	mov	r7, r6
 8003702:	4283      	cmp	r3, r0
 8003704:	dc05      	bgt.n	8003712 <__swbuf_r+0x4e>
 8003706:	4621      	mov	r1, r4
 8003708:	4628      	mov	r0, r5
 800370a:	f7ff fdeb 	bl	80032e4 <_fflush_r>
 800370e:	2800      	cmp	r0, #0
 8003710:	d1ed      	bne.n	80036ee <__swbuf_r+0x2a>
 8003712:	68a3      	ldr	r3, [r4, #8]
 8003714:	3b01      	subs	r3, #1
 8003716:	60a3      	str	r3, [r4, #8]
 8003718:	6823      	ldr	r3, [r4, #0]
 800371a:	1c5a      	adds	r2, r3, #1
 800371c:	6022      	str	r2, [r4, #0]
 800371e:	701e      	strb	r6, [r3, #0]
 8003720:	6962      	ldr	r2, [r4, #20]
 8003722:	1c43      	adds	r3, r0, #1
 8003724:	429a      	cmp	r2, r3
 8003726:	d004      	beq.n	8003732 <__swbuf_r+0x6e>
 8003728:	89a3      	ldrh	r3, [r4, #12]
 800372a:	07db      	lsls	r3, r3, #31
 800372c:	d5e1      	bpl.n	80036f2 <__swbuf_r+0x2e>
 800372e:	2e0a      	cmp	r6, #10
 8003730:	d1df      	bne.n	80036f2 <__swbuf_r+0x2e>
 8003732:	4621      	mov	r1, r4
 8003734:	4628      	mov	r0, r5
 8003736:	f7ff fdd5 	bl	80032e4 <_fflush_r>
 800373a:	2800      	cmp	r0, #0
 800373c:	d0d9      	beq.n	80036f2 <__swbuf_r+0x2e>
 800373e:	e7d6      	b.n	80036ee <__swbuf_r+0x2a>

08003740 <__swsetup_r>:
 8003740:	b538      	push	{r3, r4, r5, lr}
 8003742:	4b29      	ldr	r3, [pc, #164]	@ (80037e8 <__swsetup_r+0xa8>)
 8003744:	4605      	mov	r5, r0
 8003746:	6818      	ldr	r0, [r3, #0]
 8003748:	460c      	mov	r4, r1
 800374a:	b118      	cbz	r0, 8003754 <__swsetup_r+0x14>
 800374c:	6a03      	ldr	r3, [r0, #32]
 800374e:	b90b      	cbnz	r3, 8003754 <__swsetup_r+0x14>
 8003750:	f7fe f972 	bl	8001a38 <__sinit>
 8003754:	f9b4 300c 	ldrsh.w	r3, [r4, #12]
 8003758:	0719      	lsls	r1, r3, #28
 800375a:	d422      	bmi.n	80037a2 <__swsetup_r+0x62>
 800375c:	06da      	lsls	r2, r3, #27
 800375e:	d407      	bmi.n	8003770 <__swsetup_r+0x30>
 8003760:	2209      	movs	r2, #9
 8003762:	602a      	str	r2, [r5, #0]
 8003764:	f043 0340 	orr.w	r3, r3, #64	@ 0x40
 8003768:	f04f 30ff 	mov.w	r0, #4294967295
 800376c:	81a3      	strh	r3, [r4, #12]
 800376e:	e033      	b.n	80037d8 <__swsetup_r+0x98>
 8003770:	0758      	lsls	r0, r3, #29
 8003772:	d512      	bpl.n	800379a <__swsetup_r+0x5a>
 8003774:	6b61      	ldr	r1, [r4, #52]	@ 0x34
 8003776:	b141      	cbz	r1, 800378a <__swsetup_r+0x4a>
 8003778:	f104 0344 	add.w	r3, r4, #68	@ 0x44
 800377c:	4299      	cmp	r1, r3
 800377e:	d002      	beq.n	8003786 <__swsetup_r+0x46>
 8003780:	4628      	mov	r0, r5
 8003782:	f7ff f8b1 	bl	80028e8 <_free_r>
 8003786:	2300      	movs	r3, #0
 8003788:	6363      	str	r3, [r4, #52]	@ 0x34
 800378a:	89a3      	ldrh	r3, [r4, #12]
 800378c:	f023 0324 	bic.w	r3, r3, #36	@ 0x24
 8003790:	81a3      	strh	r3, [r4, #12]
 8003792:	2300      	movs	r3, #0
 8003794:	6063      	str	r3, [r4, #4]
 8003796:	6923      	ldr	r3, [r4, #16]
 8003798:	6023      	str	r3, [r4, #0]
 800379a:	89a3      	ldrh	r3, [r4, #12]
 800379c:	f043 0308 	orr.w	r3, r3, #8
 80037a0:	81a3      	strh	r3, [r4, #12]
 80037a2:	6923      	ldr	r3, [r4, #16]
 80037a4:	b94b      	cbnz	r3, 80037ba <__swsetup_r+0x7a>
 80037a6:	89a3      	ldrh	r3, [r4, #12]
 80037a8:	f403 7320 	and.w	r3, r3, #640	@ 0x280
 80037ac:	f5b3 7f00 	cmp.w	r3, #512	@ 0x200
 80037b0:	d003      	beq.n	80037ba <__swsetup_r+0x7a>
 80037b2:	4621      	mov	r1, r4
 80037b4:	4628      	mov	r0, r5
 80037b6:	f000 f882 	bl	80038be <__smakebuf_r>
 80037ba:	f9b4 300c 	ldrsh.w	r3, [r4, #12]
 80037be:	f013 0201 	ands.w	r2, r3, #1
 80037c2:	d00a      	beq.n	80037da <__swsetup_r+0x9a>
 80037c4:	2200      	movs	r2, #0
 80037c6:	60a2      	str	r2, [r4, #8]
 80037c8:	6962      	ldr	r2, [r4, #20]
 80037ca:	4252      	negs	r2, r2
 80037cc:	61a2      	str	r2, [r4, #24]
 80037ce:	6922      	ldr	r2, [r4, #16]
 80037d0:	b942      	cbnz	r2, 80037e4 <__swsetup_r+0xa4>
 80037d2:	f013 0080 	ands.w	r0, r3, #128	@ 0x80
 80037d6:	d1c5      	bne.n	8003764 <__swsetup_r+0x24>
 80037d8:	bd38      	pop	{r3, r4, r5, pc}
 80037da:	0799      	lsls	r1, r3, #30
 80037dc:	bf58      	it	pl
 80037de:	6962      	ldrpl	r2, [r4, #20]
 80037e0:	60a2      	str	r2, [r4, #8]
 80037e2:	e7f4      	b.n	80037ce <__swsetup_r+0x8e>
 80037e4:	2000      	movs	r0, #0
 80037e6:	e7f7      	b.n	80037d8 <__swsetup_r+0x98>
 80037e8:	20000018 	.word	0x20000018

080037ec <_raise_r>:
 80037ec:	291f      	cmp	r1, #31
 80037ee:	b538      	push	{r3, r4, r5, lr}
 80037f0:	4605      	mov	r5, r0
 80037f2:	460c      	mov	r4, r1
 80037f4:	d904      	bls.n	8003800 <_raise_r+0x14>
 80037f6:	2316      	movs	r3, #22
 80037f8:	6003      	str	r3, [r0, #0]
 80037fa:	f04f 30ff 	mov.w	r0, #4294967295
 80037fe:	bd38      	pop	{r3, r4, r5, pc}
 8003800:	6bc2      	ldr	r2, [r0, #60]	@ 0x3c
 8003802:	b112      	cbz	r2, 800380a <_raise_r+0x1e>
 8003804:	f852 3021 	ldr.w	r3, [r2, r1, lsl #2]
 8003808:	b94b      	cbnz	r3, 800381e <_raise_r+0x32>
 800380a:	4628      	mov	r0, r5
 800380c:	f000 f830 	bl	8003870 <_getpid_r>
 8003810:	4622      	mov	r2, r4
 8003812:	4601      	mov	r1, r0
 8003814:	4628      	mov	r0, r5
 8003816:	e8bd 4038 	ldmia.w	sp!, {r3, r4, r5, lr}
 800381a:	f000 b817 	b.w	800384c <_kill_r>
 800381e:	2b01      	cmp	r3, #1
 8003820:	d00a      	beq.n	8003838 <_raise_r+0x4c>
 8003822:	1c59      	adds	r1, r3, #1
 8003824:	d103      	bne.n	800382e <_raise_r+0x42>
 8003826:	2316      	movs	r3, #22
 8003828:	6003      	str	r3, [r0, #0]
 800382a:	2001      	movs	r0, #1
 800382c:	e7e7      	b.n	80037fe <_raise_r+0x12>
 800382e:	2100      	movs	r1, #0
 8003830:	4620      	mov	r0, r4
 8003832:	f842 1024 	str.w	r1, [r2, r4, lsl #2]
 8003836:	4798      	blx	r3
 8003838:	2000      	movs	r0, #0
 800383a:	e7e0      	b.n	80037fe <_raise_r+0x12>

0800383c <raise>:
 800383c:	4b02      	ldr	r3, [pc, #8]	@ (8003848 <raise+0xc>)
 800383e:	4601      	mov	r1, r0
 8003840:	6818      	ldr	r0, [r3, #0]
 8003842:	f7ff bfd3 	b.w	80037ec <_raise_r>
 8003846:	bf00      	nop
 8003848:	20000018 	.word	0x20000018

0800384c <_kill_r>:
 800384c:	b538      	push	{r3, r4, r5, lr}
 800384e:	2300      	movs	r3, #0
 8003850:	4d06      	ldr	r5, [pc, #24]	@ (800386c <_kill_r+0x20>)
 8003852:	4604      	mov	r4, r0
 8003854:	4608      	mov	r0, r1
 8003856:	4611      	mov	r1, r2
 8003858:	602b      	str	r3, [r5, #0]
 800385a:	f7fd fb21 	bl	8000ea0 <_kill>
 800385e:	1c43      	adds	r3, r0, #1
 8003860:	d102      	bne.n	8003868 <_kill_r+0x1c>
 8003862:	682b      	ldr	r3, [r5, #0]
 8003864:	b103      	cbz	r3, 8003868 <_kill_r+0x1c>
 8003866:	6023      	str	r3, [r4, #0]
 8003868:	bd38      	pop	{r3, r4, r5, pc}
 800386a:	bf00      	nop
 800386c:	20000538 	.word	0x20000538

08003870 <_getpid_r>:
 8003870:	f7fd bb0f 	b.w	8000e92 <_getpid>

08003874 <__swhatbuf_r>:
 8003874:	b570      	push	{r4, r5, r6, lr}
 8003876:	460c      	mov	r4, r1
 8003878:	f9b1 100e 	ldrsh.w	r1, [r1, #14]
 800387c:	4615      	mov	r5, r2
 800387e:	2900      	cmp	r1, #0
 8003880:	461e      	mov	r6, r3
 8003882:	b096      	sub	sp, #88	@ 0x58
 8003884:	da0c      	bge.n	80038a0 <__swhatbuf_r+0x2c>
 8003886:	89a3      	ldrh	r3, [r4, #12]
 8003888:	2100      	movs	r1, #0
 800388a:	f013 0f80 	tst.w	r3, #128	@ 0x80
 800388e:	bf14      	ite	ne
 8003890:	2340      	movne	r3, #64	@ 0x40
 8003892:	f44f 6380 	moveq.w	r3, #1024	@ 0x400
 8003896:	2000      	movs	r0, #0
 8003898:	6031      	str	r1, [r6, #0]
 800389a:	602b      	str	r3, [r5, #0]
 800389c:	b016      	add	sp, #88	@ 0x58
 800389e:	bd70      	pop	{r4, r5, r6, pc}
 80038a0:	466a      	mov	r2, sp
 80038a2:	f000 f849 	bl	8003938 <_fstat_r>
 80038a6:	2800      	cmp	r0, #0
 80038a8:	dbed      	blt.n	8003886 <__swhatbuf_r+0x12>
 80038aa:	9901      	ldr	r1, [sp, #4]
 80038ac:	f401 4170 	and.w	r1, r1, #61440	@ 0xf000
 80038b0:	f5a1 5300 	sub.w	r3, r1, #8192	@ 0x2000
 80038b4:	4259      	negs	r1, r3
 80038b6:	4159      	adcs	r1, r3
 80038b8:	f44f 6380 	mov.w	r3, #1024	@ 0x400
 80038bc:	e7eb      	b.n	8003896 <__swhatbuf_r+0x22>

080038be <__smakebuf_r>:
 80038be:	898b      	ldrh	r3, [r1, #12]
 80038c0:	b5f7      	push	{r0, r1, r2, r4, r5, r6, r7, lr}
 80038c2:	079d      	lsls	r5, r3, #30
 80038c4:	4606      	mov	r6, r0
 80038c6:	460c      	mov	r4, r1
 80038c8:	d507      	bpl.n	80038da <__smakebuf_r+0x1c>
 80038ca:	f104 0347 	add.w	r3, r4, #71	@ 0x47
 80038ce:	6023      	str	r3, [r4, #0]
 80038d0:	6123      	str	r3, [r4, #16]
 80038d2:	2301      	movs	r3, #1
 80038d4:	6163      	str	r3, [r4, #20]
 80038d6:	b003      	add	sp, #12
 80038d8:	bdf0      	pop	{r4, r5, r6, r7, pc}
 80038da:	466a      	mov	r2, sp
 80038dc:	ab01      	add	r3, sp, #4
 80038de:	f7ff ffc9 	bl	8003874 <__swhatbuf_r>
 80038e2:	9f00      	ldr	r7, [sp, #0]
 80038e4:	4605      	mov	r5, r0
 80038e6:	4639      	mov	r1, r7
 80038e8:	4630      	mov	r0, r6
 80038ea:	f7ff f86f 	bl	80029cc <_malloc_r>
 80038ee:	b948      	cbnz	r0, 8003904 <__smakebuf_r+0x46>
 80038f0:	f9b4 300c 	ldrsh.w	r3, [r4, #12]
 80038f4:	059a      	lsls	r2, r3, #22
 80038f6:	d4ee      	bmi.n	80038d6 <__smakebuf_r+0x18>
 80038f8:	f023 0303 	bic.w	r3, r3, #3
 80038fc:	f043 0302 	orr.w	r3, r3, #2
 8003900:	81a3      	strh	r3, [r4, #12]
 8003902:	e7e2      	b.n	80038ca <__smakebuf_r+0xc>
 8003904:	89a3      	ldrh	r3, [r4, #12]
 8003906:	e9c4 0704 	strd	r0, r7, [r4, #16]
 800390a:	f043 0380 	orr.w	r3, r3, #128	@ 0x80
 800390e:	81a3      	strh	r3, [r4, #12]
 8003910:	9b01      	ldr	r3, [sp, #4]
 8003912:	6020      	str	r0, [r4, #0]
 8003914:	b15b      	cbz	r3, 800392e <__smakebuf_r+0x70>
 8003916:	4630      	mov	r0, r6
 8003918:	f9b4 100e 	ldrsh.w	r1, [r4, #14]
 800391c:	f000 f81e 	bl	800395c <_isatty_r>
 8003920:	b128      	cbz	r0, 800392e <__smakebuf_r+0x70>
 8003922:	89a3      	ldrh	r3, [r4, #12]
 8003924:	f023 0303 	bic.w	r3, r3, #3
 8003928:	f043 0301 	orr.w	r3, r3, #1
 800392c:	81a3      	strh	r3, [r4, #12]
 800392e:	89a3      	ldrh	r3, [r4, #12]
 8003930:	431d      	orrs	r5, r3
 8003932:	81a5      	strh	r5, [r4, #12]
 8003934:	e7cf      	b.n	80038d6 <__smakebuf_r+0x18>
	...

08003938 <_fstat_r>:
 8003938:	b538      	push	{r3, r4, r5, lr}
 800393a:	2300      	movs	r3, #0
 800393c:	4d06      	ldr	r5, [pc, #24]	@ (8003958 <_fstat_r+0x20>)
 800393e:	4604      	mov	r4, r0
 8003940:	4608      	mov	r0, r1
 8003942:	4611      	mov	r1, r2
 8003944:	602b      	str	r3, [r5, #0]
 8003946:	f7fd fb0a 	bl	8000f5e <_fstat>
 800394a:	1c43      	adds	r3, r0, #1
 800394c:	d102      	bne.n	8003954 <_fstat_r+0x1c>
 800394e:	682b      	ldr	r3, [r5, #0]
 8003950:	b103      	cbz	r3, 8003954 <_fstat_r+0x1c>
 8003952:	6023      	str	r3, [r4, #0]
 8003954:	bd38      	pop	{r3, r4, r5, pc}
 8003956:	bf00      	nop
 8003958:	20000538 	.word	0x20000538

0800395c <_isatty_r>:
 800395c:	b538      	push	{r3, r4, r5, lr}
 800395e:	2300      	movs	r3, #0
 8003960:	4d05      	ldr	r5, [pc, #20]	@ (8003978 <_isatty_r+0x1c>)
 8003962:	4604      	mov	r4, r0
 8003964:	4608      	mov	r0, r1
 8003966:	602b      	str	r3, [r5, #0]
 8003968:	f7fd fb08 	bl	8000f7c <_isatty>
 800396c:	1c43      	adds	r3, r0, #1
 800396e:	d102      	bne.n	8003976 <_isatty_r+0x1a>
 8003970:	682b      	ldr	r3, [r5, #0]
 8003972:	b103      	cbz	r3, 8003976 <_isatty_r+0x1a>
 8003974:	6023      	str	r3, [r4, #0]
 8003976:	bd38      	pop	{r3, r4, r5, pc}
 8003978:	20000538 	.word	0x20000538

0800397c <_init>:
 800397c:	b5f8      	push	{r3, r4, r5, r6, r7, lr}
 800397e:	bf00      	nop
 8003980:	bcf8      	pop	{r3, r4, r5, r6, r7}
 8003982:	bc08      	pop	{r3}
 8003984:	469e      	mov	lr, r3
 8003986:	4770      	bx	lr

08003988 <_fini>:
 8003988:	b5f8      	push	{r3, r4, r5, r6, r7, lr}
 800398a:	bf00      	nop
 800398c:	bcf8      	pop	{r3, r4, r5, r6, r7}
 800398e:	bc08      	pop	{r3}
 8003990:	469e      	mov	lr, r3
 8003992:	4770      	bx	lr
